Archive member included to satisfy reference by file (symbol)

/opt/gcc-arm-none-eabi-10-2020-q4-major/bin/../lib/gcc/arm-none-eabi/10.2.1/../../../../arm-none-eabi/lib/thumb/v7e-m+dp/hard/libm.a(lib_a-cosf.o)
                              build/obj/AttitudeController.o (symbol from plugin) (cosf)
/opt/gcc-arm-none-eabi-10-2020-q4-major/bin/../lib/gcc/arm-none-eabi/10.2.1/../../../../arm-none-eabi/lib/thumb/v7e-m+dp/hard/libm.a(lib_a-math_errf.o)
                              /opt/gcc-arm-none-eabi-10-2020-q4-major/bin/../lib/gcc/arm-none-eabi/10.2.1/../../../../arm-none-eabi/lib/thumb/v7e-m+dp/hard/libm.a(lib_a-cosf.o) (__math_invalidf)
/opt/gcc-arm-none-eabi-10-2020-q4-major/bin/../lib/gcc/arm-none-eabi/10.2.1/../../../../arm-none-eabi/lib/thumb/v7e-m+dp/hard/libm.a(lib_a-sincosf_data.o)
                              /opt/gcc-arm-none-eabi-10-2020-q4-major/bin/../lib/gcc/arm-none-eabi/10.2.1/../../../../arm-none-eabi/lib/thumb/v7e-m+dp/hard/libm.a(lib_a-cosf.o) (__inv_pio4)
/opt/gcc-arm-none-eabi-10-2020-q4-major/bin/../lib/gcc/arm-none-eabi/10.2.1/../../../../arm-none-eabi/lib/thumb/v7e-m+dp/hard/libm.a(lib_a-wf_asin.o)
                              build/obj/math.o (symbol from plugin) (asinf)
/opt/gcc-arm-none-eabi-10-2020-q4-major/bin/../lib/gcc/arm-none-eabi/10.2.1/../../../../arm-none-eabi/lib/thumb/v7e-m+dp/hard/libm.a(lib_a-wf_atan2.o)
                              build/obj/math.o (symbol from plugin) (atan2f)
/opt/gcc-arm-none-eabi-10-2020-q4-major/bin/../lib/gcc/arm-none-eabi/10.2.1/../../../../arm-none-eabi/lib/thumb/v7e-m+dp/hard/libm.a(lib_a-wf_sqrt.o)
                              build/obj/math.o (symbol from plugin) (sqrtf)
/opt/gcc-arm-none-eabi-10-2020-q4-major/bin/../lib/gcc/arm-none-eabi/10.2.1/../../../../arm-none-eabi/lib/thumb/v7e-m+dp/hard/libm.a(lib_a-ef_asin.o)
                              /opt/gcc-arm-none-eabi-10-2020-q4-major/bin/../lib/gcc/arm-none-eabi/10.2.1/../../../../arm-none-eabi/lib/thumb/v7e-m+dp/hard/libm.a(lib_a-wf_asin.o) (__ieee754_asinf)
/opt/gcc-arm-none-eabi-10-2020-q4-major/bin/../lib/gcc/arm-none-eabi/10.2.1/../../../../arm-none-eabi/lib/thumb/v7e-m+dp/hard/libm.a(lib_a-ef_atan2.o)
                              /opt/gcc-arm-none-eabi-10-2020-q4-major/bin/../lib/gcc/arm-none-eabi/10.2.1/../../../../arm-none-eabi/lib/thumb/v7e-m+dp/hard/libm.a(lib_a-wf_atan2.o) (__ieee754_atan2f)
/opt/gcc-arm-none-eabi-10-2020-q4-major/bin/../lib/gcc/arm-none-eabi/10.2.1/../../../../arm-none-eabi/lib/thumb/v7e-m+dp/hard/libm.a(lib_a-ef_sqrt.o)
                              /opt/gcc-arm-none-eabi-10-2020-q4-major/bin/../lib/gcc/arm-none-eabi/10.2.1/../../../../arm-none-eabi/lib/thumb/v7e-m+dp/hard/libm.a(lib_a-wf_sqrt.o) (__ieee754_sqrtf)
/opt/gcc-arm-none-eabi-10-2020-q4-major/bin/../lib/gcc/arm-none-eabi/10.2.1/../../../../arm-none-eabi/lib/thumb/v7e-m+dp/hard/libm.a(lib_a-s_lib_ver.o)
                              /opt/gcc-arm-none-eabi-10-2020-q4-major/bin/../lib/gcc/arm-none-eabi/10.2.1/../../../../arm-none-eabi/lib/thumb/v7e-m+dp/hard/libm.a(lib_a-wf_asin.o) (__fdlib_version)
/opt/gcc-arm-none-eabi-10-2020-q4-major/bin/../lib/gcc/arm-none-eabi/10.2.1/../../../../arm-none-eabi/lib/thumb/v7e-m+dp/hard/libm.a(lib_a-sf_atan.o)
                              /opt/gcc-arm-none-eabi-10-2020-q4-major/bin/../lib/gcc/arm-none-eabi/10.2.1/../../../../arm-none-eabi/lib/thumb/v7e-m+dp/hard/libm.a(lib_a-ef_atan2.o) (atanf)
/opt/gcc-arm-none-eabi-10-2020-q4-major/bin/../lib/gcc/arm-none-eabi/10.2.1/../../../../arm-none-eabi/lib/thumb/v7e-m+dp/hard/libm.a(lib_a-sf_fabs.o)
                              /opt/gcc-arm-none-eabi-10-2020-q4-major/bin/../lib/gcc/arm-none-eabi/10.2.1/../../../../arm-none-eabi/lib/thumb/v7e-m+dp/hard/libm.a(lib_a-wf_asin.o) (fabsf)
/opt/gcc-arm-none-eabi-10-2020-q4-major/bin/../lib/gcc/arm-none-eabi/10.2.1/../../../../arm-none-eabi/lib/thumb/v7e-m+dp/hard/libm.a(lib_a-sf_nan.o)
                              /opt/gcc-arm-none-eabi-10-2020-q4-major/bin/../lib/gcc/arm-none-eabi/10.2.1/../../../../arm-none-eabi/lib/thumb/v7e-m+dp/hard/libm.a(lib_a-wf_asin.o) (nanf)
/opt/gcc-arm-none-eabi-10-2020-q4-major/bin/../lib/gcc/arm-none-eabi/10.2.1/thumb/v7e-m+dp/hard/libgcc.a(_arm_addsubdf3.o)
                              /opt/gcc-arm-none-eabi-10-2020-q4-major/bin/../lib/gcc/arm-none-eabi/10.2.1/../../../../arm-none-eabi/lib/thumb/v7e-m+dp/hard/libm.a(lib_a-cosf.o) (__aeabi_l2d)
/opt/gcc-arm-none-eabi-10-2020-q4-major/bin/../lib/gcc/arm-none-eabi/10.2.1/../../../../arm-none-eabi/lib/thumb/v7e-m+dp/hard/libg.a(lib_a-ctype_.o)
                              build/obj/chscanf.o (symbol from plugin) (_ctype_)
/opt/gcc-arm-none-eabi-10-2020-q4-major/bin/../lib/gcc/arm-none-eabi/10.2.1/../../../../arm-none-eabi/lib/thumb/v7e-m+dp/hard/libg.a(lib_a-errno.o)
                              /opt/gcc-arm-none-eabi-10-2020-q4-major/bin/../lib/gcc/arm-none-eabi/10.2.1/../../../../arm-none-eabi/lib/thumb/v7e-m+dp/hard/libm.a(lib_a-math_errf.o) (__errno)
/opt/gcc-arm-none-eabi-10-2020-q4-major/bin/../lib/gcc/arm-none-eabi/10.2.1/../../../../arm-none-eabi/lib/thumb/v7e-m+dp/hard/libg.a(lib_a-impure.o)
                              /opt/gcc-arm-none-eabi-10-2020-q4-major/bin/../lib/gcc/arm-none-eabi/10.2.1/../../../../arm-none-eabi/lib/thumb/v7e-m+dp/hard/libg.a(lib_a-errno.o) (_impure_ptr)
/opt/gcc-arm-none-eabi-10-2020-q4-major/bin/../lib/gcc/arm-none-eabi/10.2.1/thumb/v7e-m+dp/hard/libgcc.a(_aeabi_ldivmod.o)
                              /tmp/BPRL.elf.FE4VjG.ltrans0.ltrans.o (__aeabi_ldivmod)
/opt/gcc-arm-none-eabi-10-2020-q4-major/bin/../lib/gcc/arm-none-eabi/10.2.1/thumb/v7e-m+dp/hard/libgcc.a(_aeabi_uldivmod.o)
                              /tmp/BPRL.elf.FE4VjG.ltrans0.ltrans.o (__aeabi_uldivmod)
/opt/gcc-arm-none-eabi-10-2020-q4-major/bin/../lib/gcc/arm-none-eabi/10.2.1/thumb/v7e-m+dp/hard/libgcc.a(_udivmoddi4.o)
                              /opt/gcc-arm-none-eabi-10-2020-q4-major/bin/../lib/gcc/arm-none-eabi/10.2.1/thumb/v7e-m+dp/hard/libgcc.a(_aeabi_ldivmod.o) (__udivmoddi4)
/opt/gcc-arm-none-eabi-10-2020-q4-major/bin/../lib/gcc/arm-none-eabi/10.2.1/thumb/v7e-m+dp/hard/libgcc.a(unwind-arm.o)
                              /tmp/BPRL.elf.FE4VjG.ltrans0.ltrans.o (__aeabi_unwind_cpp_pr0)
/opt/gcc-arm-none-eabi-10-2020-q4-major/bin/../lib/gcc/arm-none-eabi/10.2.1/thumb/v7e-m+dp/hard/libgcc.a(libunwind.o)
                              /opt/gcc-arm-none-eabi-10-2020-q4-major/bin/../lib/gcc/arm-none-eabi/10.2.1/thumb/v7e-m+dp/hard/libgcc.a(unwind-arm.o) (restore_core_regs)
/opt/gcc-arm-none-eabi-10-2020-q4-major/bin/../lib/gcc/arm-none-eabi/10.2.1/thumb/v7e-m+dp/hard/libgcc.a(pr-support.o)
                              /opt/gcc-arm-none-eabi-10-2020-q4-major/bin/../lib/gcc/arm-none-eabi/10.2.1/thumb/v7e-m+dp/hard/libgcc.a(unwind-arm.o) (__gnu_unwind_execute)
/opt/gcc-arm-none-eabi-10-2020-q4-major/bin/../lib/gcc/arm-none-eabi/10.2.1/thumb/v7e-m+dp/hard/libgcc.a(_dvmd_tls.o)
                              /opt/gcc-arm-none-eabi-10-2020-q4-major/bin/../lib/gcc/arm-none-eabi/10.2.1/thumb/v7e-m+dp/hard/libgcc.a(_aeabi_ldivmod.o) (__aeabi_ldiv0)
/opt/gcc-arm-none-eabi-10-2020-q4-major/bin/../lib/gcc/arm-none-eabi/10.2.1/../../../../arm-none-eabi/lib/thumb/v7e-m+dp/hard/libg.a(lib_a-abort.o)
                              /opt/gcc-arm-none-eabi-10-2020-q4-major/bin/../lib/gcc/arm-none-eabi/10.2.1/thumb/v7e-m+dp/hard/libgcc.a(unwind-arm.o) (abort)
/opt/gcc-arm-none-eabi-10-2020-q4-major/bin/../lib/gcc/arm-none-eabi/10.2.1/../../../../arm-none-eabi/lib/thumb/v7e-m+dp/hard/libg.a(lib_a-memcmp.o)
                              /tmp/BPRL.elf.FE4VjG.ltrans0.ltrans.o (memcmp)
/opt/gcc-arm-none-eabi-10-2020-q4-major/bin/../lib/gcc/arm-none-eabi/10.2.1/../../../../arm-none-eabi/lib/thumb/v7e-m+dp/hard/libg.a(lib_a-memcpy.o)
                              /tmp/BPRL.elf.FE4VjG.ltrans0.ltrans.o (memcpy)
/opt/gcc-arm-none-eabi-10-2020-q4-major/bin/../lib/gcc/arm-none-eabi/10.2.1/../../../../arm-none-eabi/lib/thumb/v7e-m+dp/hard/libg.a(lib_a-memset.o)
                              /tmp/BPRL.elf.FE4VjG.ltrans0.ltrans.o (memset)
/opt/gcc-arm-none-eabi-10-2020-q4-major/bin/../lib/gcc/arm-none-eabi/10.2.1/../../../../arm-none-eabi/lib/thumb/v7e-m+dp/hard/libg.a(lib_a-signal.o)
                              /opt/gcc-arm-none-eabi-10-2020-q4-major/bin/../lib/gcc/arm-none-eabi/10.2.1/../../../../arm-none-eabi/lib/thumb/v7e-m+dp/hard/libg.a(lib_a-abort.o) (raise)
/opt/gcc-arm-none-eabi-10-2020-q4-major/bin/../lib/gcc/arm-none-eabi/10.2.1/../../../../arm-none-eabi/lib/thumb/v7e-m+dp/hard/libg.a(lib_a-signalr.o)
                              /opt/gcc-arm-none-eabi-10-2020-q4-major/bin/../lib/gcc/arm-none-eabi/10.2.1/../../../../arm-none-eabi/lib/thumb/v7e-m+dp/hard/libg.a(lib_a-signal.o) (_kill_r)
/opt/gcc-arm-none-eabi-10-2020-q4-major/bin/../lib/gcc/arm-none-eabi/10.2.1/../../../../arm-none-eabi/lib/thumb/v7e-m+dp/hard/libg.a(lib_a-snprintf.o)
                              /tmp/BPRL.elf.FE4VjG.ltrans0.ltrans.o (snprintf)
/opt/gcc-arm-none-eabi-10-2020-q4-major/bin/../lib/gcc/arm-none-eabi/10.2.1/../../../../arm-none-eabi/lib/thumb/v7e-m+dp/hard/libg.a(lib_a-strchr.o)
                              /tmp/BPRL.elf.FE4VjG.ltrans0.ltrans.o (strchr)
/opt/gcc-arm-none-eabi-10-2020-q4-major/bin/../lib/gcc/arm-none-eabi/10.2.1/../../../../arm-none-eabi/lib/thumb/v7e-m+dp/hard/libg.a(lib_a-strncpy.o)
                              /tmp/BPRL.elf.FE4VjG.ltrans0.ltrans.o (strncpy)
/opt/gcc-arm-none-eabi-10-2020-q4-major/bin/../lib/gcc/arm-none-eabi/10.2.1/../../../../arm-none-eabi/lib/thumb/v7e-m+dp/hard/libg.a(lib_a-svfprintf.o)
                              /opt/gcc-arm-none-eabi-10-2020-q4-major/bin/../lib/gcc/arm-none-eabi/10.2.1/../../../../arm-none-eabi/lib/thumb/v7e-m+dp/hard/libg.a(lib_a-snprintf.o) (_svfprintf_r)
/opt/gcc-arm-none-eabi-10-2020-q4-major/bin/../lib/gcc/arm-none-eabi/10.2.1/../../../../arm-none-eabi/lib/thumb/v7e-m+dp/hard/libg.a(lib_a-dtoa.o)
                              /opt/gcc-arm-none-eabi-10-2020-q4-major/bin/../lib/gcc/arm-none-eabi/10.2.1/../../../../arm-none-eabi/lib/thumb/v7e-m+dp/hard/libg.a(lib_a-svfprintf.o) (_dtoa_r)
/opt/gcc-arm-none-eabi-10-2020-q4-major/bin/../lib/gcc/arm-none-eabi/10.2.1/../../../../arm-none-eabi/lib/thumb/v7e-m+dp/hard/libg.a(lib_a-freer.o)
                              /opt/gcc-arm-none-eabi-10-2020-q4-major/bin/../lib/gcc/arm-none-eabi/10.2.1/../../../../arm-none-eabi/lib/thumb/v7e-m+dp/hard/libg.a(lib_a-svfprintf.o) (_free_r)
/opt/gcc-arm-none-eabi-10-2020-q4-major/bin/../lib/gcc/arm-none-eabi/10.2.1/../../../../arm-none-eabi/lib/thumb/v7e-m+dp/hard/libg.a(lib_a-localeconv.o)
                              /opt/gcc-arm-none-eabi-10-2020-q4-major/bin/../lib/gcc/arm-none-eabi/10.2.1/../../../../arm-none-eabi/lib/thumb/v7e-m+dp/hard/libg.a(lib_a-svfprintf.o) (_localeconv_r)
/opt/gcc-arm-none-eabi-10-2020-q4-major/bin/../lib/gcc/arm-none-eabi/10.2.1/../../../../arm-none-eabi/lib/thumb/v7e-m+dp/hard/libg.a(lib_a-mallocr.o)
                              /opt/gcc-arm-none-eabi-10-2020-q4-major/bin/../lib/gcc/arm-none-eabi/10.2.1/../../../../arm-none-eabi/lib/thumb/v7e-m+dp/hard/libg.a(lib_a-signal.o) (_malloc_r)
/opt/gcc-arm-none-eabi-10-2020-q4-major/bin/../lib/gcc/arm-none-eabi/10.2.1/../../../../arm-none-eabi/lib/thumb/v7e-m+dp/hard/libg.a(lib_a-memchr.o)
                              /opt/gcc-arm-none-eabi-10-2020-q4-major/bin/../lib/gcc/arm-none-eabi/10.2.1/../../../../arm-none-eabi/lib/thumb/v7e-m+dp/hard/libg.a(lib_a-svfprintf.o) (memchr)
/opt/gcc-arm-none-eabi-10-2020-q4-major/bin/../lib/gcc/arm-none-eabi/10.2.1/../../../../arm-none-eabi/lib/thumb/v7e-m+dp/hard/libg.a(lib_a-mlock.o)
                              /opt/gcc-arm-none-eabi-10-2020-q4-major/bin/../lib/gcc/arm-none-eabi/10.2.1/../../../../arm-none-eabi/lib/thumb/v7e-m+dp/hard/libg.a(lib_a-freer.o) (__malloc_lock)
/opt/gcc-arm-none-eabi-10-2020-q4-major/bin/../lib/gcc/arm-none-eabi/10.2.1/../../../../arm-none-eabi/lib/thumb/v7e-m+dp/hard/libg.a(lib_a-mprec.o)
                              /opt/gcc-arm-none-eabi-10-2020-q4-major/bin/../lib/gcc/arm-none-eabi/10.2.1/../../../../arm-none-eabi/lib/thumb/v7e-m+dp/hard/libg.a(lib_a-dtoa.o) (_Balloc)
/opt/gcc-arm-none-eabi-10-2020-q4-major/bin/../lib/gcc/arm-none-eabi/10.2.1/../../../../arm-none-eabi/lib/thumb/v7e-m+dp/hard/libg.a(lib_a-reent.o)
                              /opt/gcc-arm-none-eabi-10-2020-q4-major/bin/../lib/gcc/arm-none-eabi/10.2.1/../../../../arm-none-eabi/lib/thumb/v7e-m+dp/hard/libg.a(lib_a-signalr.o) (errno)
/opt/gcc-arm-none-eabi-10-2020-q4-major/bin/../lib/gcc/arm-none-eabi/10.2.1/../../../../arm-none-eabi/lib/thumb/v7e-m+dp/hard/libg.a(lib_a-s_frexp.o)
                              /opt/gcc-arm-none-eabi-10-2020-q4-major/bin/../lib/gcc/arm-none-eabi/10.2.1/../../../../arm-none-eabi/lib/thumb/v7e-m+dp/hard/libg.a(lib_a-svfprintf.o) (frexp)
/opt/gcc-arm-none-eabi-10-2020-q4-major/bin/../lib/gcc/arm-none-eabi/10.2.1/../../../../arm-none-eabi/lib/thumb/v7e-m+dp/hard/libg.a(lib_a-strlen.o)
                              /opt/gcc-arm-none-eabi-10-2020-q4-major/bin/../lib/gcc/arm-none-eabi/10.2.1/../../../../arm-none-eabi/lib/thumb/v7e-m+dp/hard/libg.a(lib_a-svfprintf.o) (strlen)
/opt/gcc-arm-none-eabi-10-2020-q4-major/bin/../lib/gcc/arm-none-eabi/10.2.1/../../../../arm-none-eabi/lib/thumb/v7e-m+dp/hard/libg.a(lib_a-svfiprintf.o)
                              /opt/gcc-arm-none-eabi-10-2020-q4-major/bin/../lib/gcc/arm-none-eabi/10.2.1/../../../../arm-none-eabi/lib/thumb/v7e-m+dp/hard/libg.a(lib_a-svfprintf.o) (__ssprint_r)
/opt/gcc-arm-none-eabi-10-2020-q4-major/bin/../lib/gcc/arm-none-eabi/10.2.1/../../../../arm-none-eabi/lib/thumb/v7e-m+dp/hard/libg.a(lib_a-assert.o)
                              /opt/gcc-arm-none-eabi-10-2020-q4-major/bin/../lib/gcc/arm-none-eabi/10.2.1/../../../../arm-none-eabi/lib/thumb/v7e-m+dp/hard/libg.a(lib_a-dtoa.o) (__assert_func)
/opt/gcc-arm-none-eabi-10-2020-q4-major/bin/../lib/gcc/arm-none-eabi/10.2.1/../../../../arm-none-eabi/lib/thumb/v7e-m+dp/hard/libg.a(lib_a-callocr.o)
                              /opt/gcc-arm-none-eabi-10-2020-q4-major/bin/../lib/gcc/arm-none-eabi/10.2.1/../../../../arm-none-eabi/lib/thumb/v7e-m+dp/hard/libg.a(lib_a-mprec.o) (_calloc_r)
/opt/gcc-arm-none-eabi-10-2020-q4-major/bin/../lib/gcc/arm-none-eabi/10.2.1/../../../../arm-none-eabi/lib/thumb/v7e-m+dp/hard/libg.a(lib_a-fiprintf.o)
                              /opt/gcc-arm-none-eabi-10-2020-q4-major/bin/../lib/gcc/arm-none-eabi/10.2.1/../../../../arm-none-eabi/lib/thumb/v7e-m+dp/hard/libg.a(lib_a-assert.o) (fiprintf)
/opt/gcc-arm-none-eabi-10-2020-q4-major/bin/../lib/gcc/arm-none-eabi/10.2.1/../../../../arm-none-eabi/lib/thumb/v7e-m+dp/hard/libg.a(lib_a-locale.o)
                              /opt/gcc-arm-none-eabi-10-2020-q4-major/bin/../lib/gcc/arm-none-eabi/10.2.1/../../../../arm-none-eabi/lib/thumb/v7e-m+dp/hard/libg.a(lib_a-localeconv.o) (__global_locale)
/opt/gcc-arm-none-eabi-10-2020-q4-major/bin/../lib/gcc/arm-none-eabi/10.2.1/../../../../arm-none-eabi/lib/thumb/v7e-m+dp/hard/libg.a(lib_a-lock.o)
                              /opt/gcc-arm-none-eabi-10-2020-q4-major/bin/../lib/gcc/arm-none-eabi/10.2.1/../../../../arm-none-eabi/lib/thumb/v7e-m+dp/hard/libg.a(lib_a-mlock.o) (__retarget_lock_acquire_recursive)
/opt/gcc-arm-none-eabi-10-2020-q4-major/bin/../lib/gcc/arm-none-eabi/10.2.1/../../../../arm-none-eabi/lib/thumb/v7e-m+dp/hard/libg.a(lib_a-mbtowc_r.o)
                              /opt/gcc-arm-none-eabi-10-2020-q4-major/bin/../lib/gcc/arm-none-eabi/10.2.1/../../../../arm-none-eabi/lib/thumb/v7e-m+dp/hard/libg.a(lib_a-locale.o) (__ascii_mbtowc)
/opt/gcc-arm-none-eabi-10-2020-q4-major/bin/../lib/gcc/arm-none-eabi/10.2.1/../../../../arm-none-eabi/lib/thumb/v7e-m+dp/hard/libg.a(lib_a-memmove.o)
                              /opt/gcc-arm-none-eabi-10-2020-q4-major/bin/../lib/gcc/arm-none-eabi/10.2.1/../../../../arm-none-eabi/lib/thumb/v7e-m+dp/hard/libg.a(lib_a-svfiprintf.o) (memmove)
/opt/gcc-arm-none-eabi-10-2020-q4-major/bin/../lib/gcc/arm-none-eabi/10.2.1/../../../../arm-none-eabi/lib/thumb/v7e-m+dp/hard/libg.a(lib_a-reallocr.o)
                              /opt/gcc-arm-none-eabi-10-2020-q4-major/bin/../lib/gcc/arm-none-eabi/10.2.1/../../../../arm-none-eabi/lib/thumb/v7e-m+dp/hard/libg.a(lib_a-svfiprintf.o) (_realloc_r)
/opt/gcc-arm-none-eabi-10-2020-q4-major/bin/../lib/gcc/arm-none-eabi/10.2.1/../../../../arm-none-eabi/lib/thumb/v7e-m+dp/hard/libg.a(lib_a-strcmp.o)
                              /opt/gcc-arm-none-eabi-10-2020-q4-major/bin/../lib/gcc/arm-none-eabi/10.2.1/../../../../arm-none-eabi/lib/thumb/v7e-m+dp/hard/libg.a(lib_a-locale.o) (strcmp)
/opt/gcc-arm-none-eabi-10-2020-q4-major/bin/../lib/gcc/arm-none-eabi/10.2.1/../../../../arm-none-eabi/lib/thumb/v7e-m+dp/hard/libg.a(lib_a-vfiprintf.o)
                              /opt/gcc-arm-none-eabi-10-2020-q4-major/bin/../lib/gcc/arm-none-eabi/10.2.1/../../../../arm-none-eabi/lib/thumb/v7e-m+dp/hard/libg.a(lib_a-fiprintf.o) (_vfiprintf_r)
/opt/gcc-arm-none-eabi-10-2020-q4-major/bin/../lib/gcc/arm-none-eabi/10.2.1/../../../../arm-none-eabi/lib/thumb/v7e-m+dp/hard/libg.a(lib_a-wctomb_r.o)
                              /opt/gcc-arm-none-eabi-10-2020-q4-major/bin/../lib/gcc/arm-none-eabi/10.2.1/../../../../arm-none-eabi/lib/thumb/v7e-m+dp/hard/libg.a(lib_a-locale.o) (__ascii_wctomb)
/opt/gcc-arm-none-eabi-10-2020-q4-major/bin/../lib/gcc/arm-none-eabi/10.2.1/../../../../arm-none-eabi/lib/thumb/v7e-m+dp/hard/libg.a(lib_a-wsetup.o)
                              /opt/gcc-arm-none-eabi-10-2020-q4-major/bin/../lib/gcc/arm-none-eabi/10.2.1/../../../../arm-none-eabi/lib/thumb/v7e-m+dp/hard/libg.a(lib_a-vfiprintf.o) (__swsetup_r)
/opt/gcc-arm-none-eabi-10-2020-q4-major/bin/../lib/gcc/arm-none-eabi/10.2.1/../../../../arm-none-eabi/lib/thumb/v7e-m+dp/hard/libg.a(lib_a-fflush.o)
                              /opt/gcc-arm-none-eabi-10-2020-q4-major/bin/../lib/gcc/arm-none-eabi/10.2.1/../../../../arm-none-eabi/lib/thumb/v7e-m+dp/hard/libg.a(lib_a-vfiprintf.o) (_fflush_r)
/opt/gcc-arm-none-eabi-10-2020-q4-major/bin/../lib/gcc/arm-none-eabi/10.2.1/../../../../arm-none-eabi/lib/thumb/v7e-m+dp/hard/libg.a(lib_a-findfp.o)
                              /opt/gcc-arm-none-eabi-10-2020-q4-major/bin/../lib/gcc/arm-none-eabi/10.2.1/../../../../arm-none-eabi/lib/thumb/v7e-m+dp/hard/libg.a(lib_a-vfiprintf.o) (__sinit)
/opt/gcc-arm-none-eabi-10-2020-q4-major/bin/../lib/gcc/arm-none-eabi/10.2.1/../../../../arm-none-eabi/lib/thumb/v7e-m+dp/hard/libg.a(lib_a-fputwc.o)
                              /opt/gcc-arm-none-eabi-10-2020-q4-major/bin/../lib/gcc/arm-none-eabi/10.2.1/../../../../arm-none-eabi/lib/thumb/v7e-m+dp/hard/libg.a(lib_a-vfiprintf.o) (_fputwc_r)
/opt/gcc-arm-none-eabi-10-2020-q4-major/bin/../lib/gcc/arm-none-eabi/10.2.1/../../../../arm-none-eabi/lib/thumb/v7e-m+dp/hard/libg.a(lib_a-fvwrite.o)
                              /opt/gcc-arm-none-eabi-10-2020-q4-major/bin/../lib/gcc/arm-none-eabi/10.2.1/../../../../arm-none-eabi/lib/thumb/v7e-m+dp/hard/libg.a(lib_a-vfiprintf.o) (__sfvwrite_r)
/opt/gcc-arm-none-eabi-10-2020-q4-major/bin/../lib/gcc/arm-none-eabi/10.2.1/../../../../arm-none-eabi/lib/thumb/v7e-m+dp/hard/libg.a(lib_a-fwalk.o)
                              /opt/gcc-arm-none-eabi-10-2020-q4-major/bin/../lib/gcc/arm-none-eabi/10.2.1/../../../../arm-none-eabi/lib/thumb/v7e-m+dp/hard/libg.a(lib_a-findfp.o) (_fwalk)
/opt/gcc-arm-none-eabi-10-2020-q4-major/bin/../lib/gcc/arm-none-eabi/10.2.1/../../../../arm-none-eabi/lib/thumb/v7e-m+dp/hard/libg.a(lib_a-makebuf.o)
                              /opt/gcc-arm-none-eabi-10-2020-q4-major/bin/../lib/gcc/arm-none-eabi/10.2.1/../../../../arm-none-eabi/lib/thumb/v7e-m+dp/hard/libg.a(lib_a-wsetup.o) (__smakebuf_r)
/opt/gcc-arm-none-eabi-10-2020-q4-major/bin/../lib/gcc/arm-none-eabi/10.2.1/../../../../arm-none-eabi/lib/thumb/v7e-m+dp/hard/libg.a(lib_a-stdio.o)
                              /opt/gcc-arm-none-eabi-10-2020-q4-major/bin/../lib/gcc/arm-none-eabi/10.2.1/../../../../arm-none-eabi/lib/thumb/v7e-m+dp/hard/libg.a(lib_a-findfp.o) (__sread)
/opt/gcc-arm-none-eabi-10-2020-q4-major/bin/../lib/gcc/arm-none-eabi/10.2.1/../../../../arm-none-eabi/lib/thumb/v7e-m+dp/hard/libg.a(lib_a-wbuf.o)
                              /opt/gcc-arm-none-eabi-10-2020-q4-major/bin/../lib/gcc/arm-none-eabi/10.2.1/../../../../arm-none-eabi/lib/thumb/v7e-m+dp/hard/libg.a(lib_a-fputwc.o) (__swbuf_r)
/opt/gcc-arm-none-eabi-10-2020-q4-major/bin/../lib/gcc/arm-none-eabi/10.2.1/../../../../arm-none-eabi/lib/thumb/v7e-m+dp/hard/libg.a(lib_a-wcrtomb.o)
                              /opt/gcc-arm-none-eabi-10-2020-q4-major/bin/../lib/gcc/arm-none-eabi/10.2.1/../../../../arm-none-eabi/lib/thumb/v7e-m+dp/hard/libg.a(lib_a-fputwc.o) (_wcrtomb_r)
/opt/gcc-arm-none-eabi-10-2020-q4-major/bin/../lib/gcc/arm-none-eabi/10.2.1/../../../../arm-none-eabi/lib/thumb/v7e-m+dp/hard/libg.a(lib_a-fclose.o)
                              /opt/gcc-arm-none-eabi-10-2020-q4-major/bin/../lib/gcc/arm-none-eabi/10.2.1/../../../../arm-none-eabi/lib/thumb/v7e-m+dp/hard/libg.a(lib_a-findfp.o) (_fclose_r)

Discarded input sections

 .data          0x0000000000000000        0x0 build/obj/crt0_v7m.o
 .bss           0x0000000000000000        0x0 build/obj/crt0_v7m.o
 .data          0x0000000000000000        0x0 build/obj/vectors.o
 .bss           0x0000000000000000        0x0 build/obj/vectors.o
 .data          0x0000000000000000        0x0 build/obj/chcoreasm.o
 .bss           0x0000000000000000        0x0 build/obj/chcoreasm.o
 .text          0x0000000000000000        0x0 /tmp/BPRL.elf.FE4VjG.ltrans0.ltrans.o
 .data          0x0000000000000000        0x0 /tmp/BPRL.elf.FE4VjG.ltrans0.ltrans.o
 .bss           0x0000000000000000        0x0 /tmp/BPRL.elf.FE4VjG.ltrans0.ltrans.o
 .ARM.extab.text._Z20quat_to_rot_body2nedRK4QuatPA3_f
                0x0000000000000000        0x0 /tmp/BPRL.elf.FE4VjG.ltrans0.ltrans.o
 .ARM.extab.text._ZN3PID6updateEf
                0x0000000000000000        0x0 /tmp/BPRL.elf.FE4VjG.ltrans0.ltrans.o
 .ARM.extab.text._ZL16switch_to_outputv
                0x0000000000000000        0x0 /tmp/BPRL.elf.FE4VjG.ltrans0.ltrans.o
 .ARM.extab.text.sdc_lld_is_card_inserted
                0x0000000000000000        0x0 /tmp/BPRL.elf.FE4VjG.ltrans0.ltrans.o
 .ARM.extab.text.sdc_lld_is_write_protected
                0x0000000000000000        0x0 /tmp/BPRL.elf.FE4VjG.ltrans0.ltrans.o
 .ARM.extab.text._Z17bprl_can_registermPFvRK10CANRxFramePvES2_.constprop.0
                0x0000000000000000        0x0 /tmp/BPRL.elf.FE4VjG.ltrans0.ltrans.o
 .ARM.extab.text._ZN6Logger10ring_writeEPKvj.constprop.0
                0x0000000000000000        0x0 /tmp/BPRL.elf.FE4VjG.ltrans0.ltrans.o
 .ARM.extab.text._ZN3EKF7_updateEiPA16_KfPS0_S3_
                0x0000000000000000        0x0 /tmp/BPRL.elf.FE4VjG.ltrans0.ltrans.o
 .ARM.extab.text._ZL12dshot_dma_tcPvm
                0x0000000000000000        0x0 /tmp/BPRL.elf.FE4VjG.ltrans0.ltrans.o
 .ARM.extab.text._ZN3EKF15_normalize_quatEv
                0x0000000000000000        0x0 /tmp/BPRL.elf.FE4VjG.ltrans0.ltrans.o
 .ARM.extab.text._Z13quat_to_eulerRK4QuatRfS2_S2_
                0x0000000000000000        0x0 /tmp/BPRL.elf.FE4VjG.ltrans0.ltrans.o
 .text._open_r  0x0000000000000000        0xc /tmp/BPRL.elf.FE4VjG.ltrans0.ltrans.o
 .ARM.extab.text.startup.main
                0x0000000000000000        0x0 /tmp/BPRL.elf.FE4VjG.ltrans0.ltrans.o
 .ARM.extab.text._ZL9CANThreadPv
                0x0000000000000000        0x0 /tmp/BPRL.elf.FE4VjG.ltrans0.ltrans.o
 .ARM.extab.text._ZL9I2CThreadPv
                0x0000000000000000        0x0 /tmp/BPRL.elf.FE4VjG.ltrans0.ltrans.o
 .ARM.extab.text._ZL15HeartbeatThreadPv
                0x0000000000000000        0x0 /tmp/BPRL.elf.FE4VjG.ltrans0.ltrans.o
 .ARM.extab.text._ZL14StateEstThreadPv
                0x0000000000000000        0x0 /tmp/BPRL.elf.FE4VjG.ltrans0.ltrans.o
 .ARM.extab.text._ZL13ControlThreadPv
                0x0000000000000000        0x0 /tmp/BPRL.elf.FE4VjG.ltrans0.ltrans.o
 .ARM.extab.text._ZL9LogThreadPv
                0x0000000000000000        0x0 /tmp/BPRL.elf.FE4VjG.ltrans0.ltrans.o
 .ARM.extab.text._ZL11imx5_can_cbRK10CANRxFramePv
                0x0000000000000000        0x0 /tmp/BPRL.elf.FE4VjG.ltrans0.ltrans.o
 .ARM.extab.text.VectorAC
                0x0000000000000000        0x0 /tmp/BPRL.elf.FE4VjG.ltrans0.ltrans.o
 .ARM.extab.text._ZN8ICM209488set_bankEh
                0x0000000000000000        0x0 /tmp/BPRL.elf.FE4VjG.ltrans0.ltrans.o
 .ARM.extab.text._ZN8ICM209484readEPfS0_.part.0
                0x0000000000000000        0x0 /tmp/BPRL.elf.FE4VjG.ltrans0.ltrans.o
 .ARM.extab.text._ZN8ICM209489reg_writeEhh
                0x0000000000000000        0x0 /tmp/BPRL.elf.FE4VjG.ltrans0.ltrans.o
 .ARM.extab.text._ZN8ICM206029reg_writeEhh.constprop.0
                0x0000000000000000        0x0 /tmp/BPRL.elf.FE4VjG.ltrans0.ltrans.o
 .ARM.extab.text._ZL9SPIThreadPv
                0x0000000000000000        0x0 /tmp/BPRL.elf.FE4VjG.ltrans0.ltrans.o
 .text          0x0000000000000000        0x0 /tmp/BPRL.elf.FE4VjG.ltrans1.ltrans.o
 .data          0x0000000000000000        0x0 /tmp/BPRL.elf.FE4VjG.ltrans1.ltrans.o
 .bss           0x0000000000000000        0x0 /tmp/BPRL.elf.FE4VjG.ltrans1.ltrans.o
 .ARM.extab.text._ZN8ICM209484initEP14hal_spi_driverPK14hal_spi_configS4_.isra.0
                0x0000000000000000        0x0 /tmp/BPRL.elf.FE4VjG.ltrans1.ltrans.o
 .ARM.extab.text.startup._sub_I_65535_0.0
                0x0000000000000000        0x0 /tmp/BPRL.elf.FE4VjG.ltrans1.ltrans.o
 .comment       0x0000000000000000       0x4e /tmp/cc1AI8gk.debug.temp.o
 .comment       0x0000000000000000       0x4e /tmp/cckiIMyo.debug.temp.o
 .comment       0x0000000000000000       0x4e /tmp/ccbdkTrP.debug.temp.o
 .debug_info    0x0000000000000000      0xe63 /tmp/ccxyCMmE.debug.temp.o
 .debug_abbrev  0x0000000000000000      0x213 /tmp/ccxyCMmE.debug.temp.o
 .debug_line    0x0000000000000000      0x2ea /tmp/ccxyCMmE.debug.temp.o
 .debug_str     0x0000000000000000      0x7ec /tmp/ccxyCMmE.debug.temp.o
 .comment       0x0000000000000000       0x4e /tmp/ccxyCMmE.debug.temp.o
 .debug_info    0x0000000000000000      0x931 /tmp/ccUXHfmm.debug.temp.o
 .debug_abbrev  0x0000000000000000      0x1b3 /tmp/ccUXHfmm.debug.temp.o
 .debug_line    0x0000000000000000      0x2a6 /tmp/ccUXHfmm.debug.temp.o
 .debug_str     0x0000000000000000      0x590 /tmp/ccUXHfmm.debug.temp.o
 .comment       0x0000000000000000       0x4e /tmp/ccUXHfmm.debug.temp.o
 .comment       0x0000000000000000       0x4e /tmp/cc0Cj8E8.debug.temp.o
 .debug_info    0x0000000000000000      0x5de /tmp/ccBUedUC.debug.temp.o
 .debug_abbrev  0x0000000000000000      0x13e /tmp/ccBUedUC.debug.temp.o
 .debug_line    0x0000000000000000      0x1df /tmp/ccBUedUC.debug.temp.o
 .debug_str     0x0000000000000000      0x525 /tmp/ccBUedUC.debug.temp.o
 .comment       0x0000000000000000       0x4e /tmp/ccBUedUC.debug.temp.o
 .comment       0x0000000000000000       0x4e /tmp/cc1hHXIF.debug.temp.o
 .comment       0x0000000000000000       0x4e /tmp/ccjdzKfz.debug.temp.o
 .debug_info    0x0000000000000000      0x2dd /tmp/ccaD9WSE.debug.temp.o
 .debug_abbrev  0x0000000000000000      0x112 /tmp/ccaD9WSE.debug.temp.o
 .debug_line    0x0000000000000000      0x1c0 /tmp/ccaD9WSE.debug.temp.o
 .debug_str     0x0000000000000000      0x2a4 /tmp/ccaD9WSE.debug.temp.o
 .comment       0x0000000000000000       0x4e /tmp/ccaD9WSE.debug.temp.o
 .comment       0x0000000000000000       0x4e /tmp/ccn6xZbq.debug.temp.o
 .comment       0x0000000000000000       0x4e /tmp/ccfUCnJW.debug.temp.o
 .debug_info    0x0000000000000000     0x1fba /tmp/ccW3QVqr.debug.temp.o
 .debug_abbrev  0x0000000000000000      0x33c /tmp/ccW3QVqr.debug.temp.o
 .debug_line    0x0000000000000000      0x3a3 /tmp/ccW3QVqr.debug.temp.o
 .debug_str     0x0000000000000000     0x10c0 /tmp/ccW3QVqr.debug.temp.o
 .comment       0x0000000000000000       0x4e /tmp/ccW3QVqr.debug.temp.o
 .comment       0x0000000000000000       0x4e /tmp/ccShXzVe.debug.temp.o
 .comment       0x0000000000000000       0x4e /tmp/ccHtzOWh.debug.temp.o
 .comment       0x0000000000000000       0x4e /tmp/cc3twoij.debug.temp.o
 .comment       0x0000000000000000       0x4e /tmp/ccFIp4O1.debug.temp.o
 .comment       0x0000000000000000       0x4e /tmp/ccGfNtvL.debug.temp.o
 .debug_info    0x0000000000000000       0x79 /tmp/ccEIaXQH.debug.temp.o
 .debug_abbrev  0x0000000000000000       0x26 /tmp/ccEIaXQH.debug.temp.o
 .debug_line    0x0000000000000000       0x1e /tmp/ccEIaXQH.debug.temp.o
 .debug_str     0x0000000000000000      0x1d0 /tmp/ccEIaXQH.debug.temp.o
 .comment       0x0000000000000000       0x4e /tmp/ccEIaXQH.debug.temp.o
 .comment       0x0000000000000000       0x4e /tmp/ccGhAOcz.debug.temp.o
 .debug_info    0x0000000000000000       0x79 /tmp/ccaq3SJe.debug.temp.o
 .debug_abbrev  0x0000000000000000       0x26 /tmp/ccaq3SJe.debug.temp.o
 .debug_line    0x0000000000000000       0x1e /tmp/ccaq3SJe.debug.temp.o
 .debug_str     0x0000000000000000      0x1d0 /tmp/ccaq3SJe.debug.temp.o
 .comment       0x0000000000000000       0x4e /tmp/ccaq3SJe.debug.temp.o
 .comment       0x0000000000000000       0x4e /tmp/ccoABdJL.debug.temp.o
 .comment       0x0000000000000000       0x4e /tmp/ccVLgFnA.debug.temp.o
 .debug_info    0x0000000000000000       0x79 /tmp/ccP1kPTL.debug.temp.o
 .debug_abbrev  0x0000000000000000       0x26 /tmp/ccP1kPTL.debug.temp.o
 .debug_line    0x0000000000000000       0x1e /tmp/ccP1kPTL.debug.temp.o
 .debug_str     0x0000000000000000      0x1d0 /tmp/ccP1kPTL.debug.temp.o
 .comment       0x0000000000000000       0x4e /tmp/ccP1kPTL.debug.temp.o
 .comment       0x0000000000000000       0x4e /tmp/cc8KHu6o.debug.temp.o
 .comment       0x0000000000000000       0x4e /tmp/ccxcVT2h.debug.temp.o
 .comment       0x0000000000000000       0x4e /tmp/ccWqfuMc.debug.temp.o
 .comment       0x0000000000000000       0x4e /tmp/ccXDelKO.debug.temp.o
 .comment       0x0000000000000000       0x4e /tmp/ccyDIc7b.debug.temp.o
 .debug_info    0x0000000000000000       0x79 /tmp/cczHceHh.debug.temp.o
 .debug_abbrev  0x0000000000000000       0x26 /tmp/cczHceHh.debug.temp.o
 .debug_line    0x0000000000000000       0x1e /tmp/cczHceHh.debug.temp.o
 .debug_str     0x0000000000000000      0x1bf /tmp/cczHceHh.debug.temp.o
 .comment       0x0000000000000000       0x4e /tmp/cczHceHh.debug.temp.o
 .comment       0x0000000000000000       0x4e /tmp/cc2aLvbc.debug.temp.o
 .comment       0x0000000000000000       0x4e /tmp/cctFC6ic.debug.temp.o
 .debug_info    0x0000000000000000       0x79 /tmp/cc5dCdeT.debug.temp.o
 .debug_abbrev  0x0000000000000000       0x26 /tmp/cc5dCdeT.debug.temp.o
 .debug_line    0x0000000000000000       0x1e /tmp/cc5dCdeT.debug.temp.o
 .debug_str     0x0000000000000000      0x1b9 /tmp/cc5dCdeT.debug.temp.o
 .comment       0x0000000000000000       0x4e /tmp/cc5dCdeT.debug.temp.o
 .comment       0x0000000000000000       0x4e /tmp/ccSZMTci.debug.temp.o
 .comment       0x0000000000000000       0x4e /tmp/ccNe19st.debug.temp.o
 .comment       0x0000000000000000       0x4e /tmp/ccqlIZIv.debug.temp.o
 .comment       0x0000000000000000       0x4e /tmp/cc4sZw6e.debug.temp.o
 .comment       0x0000000000000000       0x4e /tmp/ccyZJoui.debug.temp.o
 .comment       0x0000000000000000       0x4e /tmp/ccBmOTdn.debug.temp.o
 .comment       0x0000000000000000       0x4e /tmp/cczV1lYM.debug.temp.o
 .debug_info    0x0000000000000000      0xdd2 /tmp/cc3RlWiY.debug.temp.o
 .debug_abbrev  0x0000000000000000      0x2ad /tmp/cc3RlWiY.debug.temp.o
 .debug_line    0x0000000000000000      0x259 /tmp/cc3RlWiY.debug.temp.o
 .debug_str     0x0000000000000000      0x773 /tmp/cc3RlWiY.debug.temp.o
 .comment       0x0000000000000000       0x4e /tmp/cc3RlWiY.debug.temp.o
 .comment       0x0000000000000000       0x4e /tmp/cc2JkTMX.debug.temp.o
 .debug_info    0x0000000000000000      0xd25 /tmp/ccyzL3Rd.debug.temp.o
 .debug_abbrev  0x0000000000000000      0x2ad /tmp/ccyzL3Rd.debug.temp.o
 .debug_line    0x0000000000000000      0x272 /tmp/ccyzL3Rd.debug.temp.o
 .debug_str     0x0000000000000000      0x76b /tmp/ccyzL3Rd.debug.temp.o
 .comment       0x0000000000000000       0x4e /tmp/ccyzL3Rd.debug.temp.o
 .comment       0x0000000000000000       0x4e /tmp/cccR94mW.debug.temp.o
 .debug_info    0x0000000000000000      0xbfd /tmp/ccIsE6P1.debug.temp.o
 .debug_abbrev  0x0000000000000000      0x282 /tmp/ccIsE6P1.debug.temp.o
 .debug_line    0x0000000000000000      0x264 /tmp/ccIsE6P1.debug.temp.o
 .debug_str     0x0000000000000000      0x6e0 /tmp/ccIsE6P1.debug.temp.o
 .comment       0x0000000000000000       0x4e /tmp/ccIsE6P1.debug.temp.o
 .debug_info    0x0000000000000000      0xd70 /tmp/ccqfmb2q.debug.temp.o
 .debug_abbrev  0x0000000000000000      0x222 /tmp/ccqfmb2q.debug.temp.o
 .debug_line    0x0000000000000000      0x30a /tmp/ccqfmb2q.debug.temp.o
 .debug_str     0x0000000000000000      0x74d /tmp/ccqfmb2q.debug.temp.o
 .comment       0x0000000000000000       0x4e /tmp/ccqfmb2q.debug.temp.o
 .debug_info    0x0000000000000000      0x5f6 /tmp/cch8GVy3.debug.temp.o
 .debug_abbrev  0x0000000000000000      0x17d /tmp/cch8GVy3.debug.temp.o
 .debug_line    0x0000000000000000      0x273 /tmp/cch8GVy3.debug.temp.o
 .debug_str     0x0000000000000000      0x3d0 /tmp/cch8GVy3.debug.temp.o
 .comment       0x0000000000000000       0x4e /tmp/cch8GVy3.debug.temp.o
 .comment       0x0000000000000000       0x4e /tmp/ccmBwYlf.debug.temp.o
 .comment       0x0000000000000000       0x4e /tmp/cc9pEMiJ.debug.temp.o
 .comment       0x0000000000000000       0x4e /tmp/cceUumu1.debug.temp.o
 .debug_info    0x0000000000000000      0xd75 /tmp/cchSfEwN.debug.temp.o
 .debug_abbrev  0x0000000000000000      0x230 /tmp/cchSfEwN.debug.temp.o
 .debug_line    0x0000000000000000      0x2da /tmp/cchSfEwN.debug.temp.o
 .debug_str     0x0000000000000000      0x70d /tmp/cchSfEwN.debug.temp.o
 .comment       0x0000000000000000       0x4e /tmp/cchSfEwN.debug.temp.o
 .debug_info    0x0000000000000000      0x670 /tmp/ccCOWBM9.debug.temp.o
 .debug_abbrev  0x0000000000000000      0x1b9 /tmp/ccCOWBM9.debug.temp.o
 .debug_line    0x0000000000000000      0x25a /tmp/ccCOWBM9.debug.temp.o
 .debug_str     0x0000000000000000      0x479 /tmp/ccCOWBM9.debug.temp.o
 .comment       0x0000000000000000       0x4e /tmp/ccCOWBM9.debug.temp.o
 .debug_info    0x0000000000000000      0xdfc /tmp/ccWjAgnr.debug.temp.o
 .debug_abbrev  0x0000000000000000      0x258 /tmp/ccWjAgnr.debug.temp.o
 .debug_line    0x0000000000000000      0x2fb /tmp/ccWjAgnr.debug.temp.o
 .debug_str     0x0000000000000000      0x7b6 /tmp/ccWjAgnr.debug.temp.o
 .comment       0x0000000000000000       0x4e /tmp/ccWjAgnr.debug.temp.o
 .comment       0x0000000000000000       0x4e /tmp/ccUjBBsu.debug.temp.o
 .comment       0x0000000000000000       0x4e /tmp/ccMZuXoC.debug.temp.o
 .debug_info    0x0000000000000000      0x547 /tmp/ccj64EJG.debug.temp.o
 .debug_abbrev  0x0000000000000000      0x1a6 /tmp/ccj64EJG.debug.temp.o
 .debug_line    0x0000000000000000      0x1e2 /tmp/ccj64EJG.debug.temp.o
 .debug_str     0x0000000000000000      0x35d /tmp/ccj64EJG.debug.temp.o
 .comment       0x0000000000000000       0x4e /tmp/ccj64EJG.debug.temp.o
 .debug_info    0x0000000000000000      0x4d1 /tmp/ccsx88cj.debug.temp.o
 .debug_abbrev  0x0000000000000000      0x19a /tmp/ccsx88cj.debug.temp.o
 .debug_line    0x0000000000000000      0x22a /tmp/ccsx88cj.debug.temp.o
 .debug_str     0x0000000000000000      0x310 /tmp/ccsx88cj.debug.temp.o
 .comment       0x0000000000000000       0x4e /tmp/ccsx88cj.debug.temp.o
 .debug_info    0x0000000000000000      0x35a /tmp/cc2Hy6rQ.debug.temp.o
 .debug_abbrev  0x0000000000000000      0x104 /tmp/cc2Hy6rQ.debug.temp.o
 .debug_line    0x0000000000000000      0x196 /tmp/cc2Hy6rQ.debug.temp.o
 .debug_str     0x0000000000000000      0x271 /tmp/cc2Hy6rQ.debug.temp.o
 .comment       0x0000000000000000       0x4e /tmp/cc2Hy6rQ.debug.temp.o
 .debug_info    0x0000000000000000      0x2bc /tmp/ccrx9rvd.debug.temp.o
 .debug_abbrev  0x0000000000000000      0x108 /tmp/ccrx9rvd.debug.temp.o
 .debug_line    0x0000000000000000      0x198 /tmp/ccrx9rvd.debug.temp.o
 .debug_str     0x0000000000000000      0x24d /tmp/ccrx9rvd.debug.temp.o
 .comment       0x0000000000000000       0x4e /tmp/ccrx9rvd.debug.temp.o
 .debug_info    0x0000000000000000      0x3e2 /tmp/ccAzJlke.debug.temp.o
 .debug_abbrev  0x0000000000000000      0x125 /tmp/ccAzJlke.debug.temp.o
 .debug_line    0x0000000000000000      0x1ca /tmp/ccAzJlke.debug.temp.o
 .debug_str     0x0000000000000000      0x2cb /tmp/ccAzJlke.debug.temp.o
 .comment       0x0000000000000000       0x4e /tmp/ccAzJlke.debug.temp.o
 .comment       0x0000000000000000       0x4e /tmp/ccKhrB7B.debug.temp.o
 .debug_info    0x0000000000000000       0x79 /tmp/cci7Opl1.debug.temp.o
 .debug_abbrev  0x0000000000000000       0x26 /tmp/cci7Opl1.debug.temp.o
 .debug_line    0x0000000000000000       0x1e /tmp/cci7Opl1.debug.temp.o
 .debug_str     0x0000000000000000      0x1cf /tmp/cci7Opl1.debug.temp.o
 .comment       0x0000000000000000       0x4e /tmp/cci7Opl1.debug.temp.o
 .comment       0x0000000000000000       0x4e /tmp/ccyMIKzN.debug.temp.o
 .debug_info    0x0000000000000000       0x6b /tmp/ccQy5fcL.debug.temp.o
 .debug_abbrev  0x0000000000000000       0x26 /tmp/ccQy5fcL.debug.temp.o
 .debug_line    0x0000000000000000       0x1e /tmp/ccQy5fcL.debug.temp.o
 .debug_str     0x0000000000000000      0x1b0 /tmp/ccQy5fcL.debug.temp.o
 .comment       0x0000000000000000       0x4e /tmp/ccQy5fcL.debug.temp.o
 .comment       0x0000000000000000       0x4e /tmp/ccn9r2Hy.debug.temp.o
 .comment       0x0000000000000000       0x4e /tmp/cczvTYYv.debug.temp.o
 .comment       0x0000000000000000       0x4e /tmp/ccsvxdtZ.debug.temp.o
 .comment       0x0000000000000000       0x4e /tmp/cc1R7395.debug.temp.o
 .comment       0x0000000000000000       0x4e /tmp/cca2FiSo.debug.temp.o
 .comment       0x0000000000000000       0x4e /tmp/ccTEgzi9.debug.temp.o
 .comment       0x0000000000000000       0x4e /tmp/ccVtlQW8.debug.temp.o
 .comment       0x0000000000000000       0x4e /tmp/cckVIbWA.debug.temp.o
 .comment       0x0000000000000000       0x4e /tmp/ccwo63eS.debug.temp.o
 .comment       0x0000000000000000       0x4e /tmp/ccQl3QoJ.debug.temp.o
 .comment       0x0000000000000000       0x4e /tmp/ccW4cvUs.debug.temp.o
 .comment       0x0000000000000000       0x4e /tmp/ccrLOXrd.debug.temp.o
 .comment       0x0000000000000000       0x4e /tmp/ccUA5s9m.debug.temp.o
 .comment       0x0000000000000000       0x4e /tmp/ccTUmnEl.debug.temp.o
 .debug_info    0x0000000000000000      0x1f9 /tmp/ccuSxD7o.debug.temp.o
 .debug_abbrev  0x0000000000000000      0x13c /tmp/ccuSxD7o.debug.temp.o
 .debug_line    0x0000000000000000      0x17d /tmp/ccuSxD7o.debug.temp.o
 .debug_str     0x0000000000000000      0x300 /tmp/ccuSxD7o.debug.temp.o
 .comment       0x0000000000000000       0x4e /tmp/ccuSxD7o.debug.temp.o
 .comment       0x0000000000000000       0x4e /tmp/cc4q1Zko.debug.temp.o
 .comment       0x0000000000000000       0x4e /tmp/cc9t8zi9.debug.temp.o
 .comment       0x0000000000000000       0x4e /tmp/ccBpW6ak.debug.temp.o
 .debug_info    0x0000000000000000     0x1521 /tmp/cci8urcI.debug.temp.o
 .debug_abbrev  0x0000000000000000      0x333 /tmp/cci8urcI.debug.temp.o
 .debug_line    0x0000000000000000      0x45a /tmp/cci8urcI.debug.temp.o
 .debug_str     0x0000000000000000      0xbf0 /tmp/cci8urcI.debug.temp.o
 .comment       0x0000000000000000       0x4e /tmp/cci8urcI.debug.temp.o
 .comment       0x0000000000000000       0x4e /tmp/ccOKxzCx.debug.temp.o
 .debug_info    0x0000000000000000     0x1c68 /tmp/cclfOzEx.debug.temp.o
 .debug_abbrev  0x0000000000000000      0x2d0 /tmp/cclfOzEx.debug.temp.o
 .debug_line    0x0000000000000000      0x3c5 /tmp/cclfOzEx.debug.temp.o
 .debug_str     0x0000000000000000     0x119a /tmp/cclfOzEx.debug.temp.o
 .comment       0x0000000000000000       0x4e /tmp/cclfOzEx.debug.temp.o
 .comment       0x0000000000000000       0x4e /tmp/ccV4PTbm.debug.temp.o
 .text          0x0000000000000000        0x0 /opt/gcc-arm-none-eabi-10-2020-q4-major/bin/../lib/gcc/arm-none-eabi/10.2.1/../../../../arm-none-eabi/lib/thumb/v7e-m+dp/hard/libm.a(lib_a-cosf.o)
 .data          0x0000000000000000        0x0 /opt/gcc-arm-none-eabi-10-2020-q4-major/bin/../lib/gcc/arm-none-eabi/10.2.1/../../../../arm-none-eabi/lib/thumb/v7e-m+dp/hard/libm.a(lib_a-cosf.o)
 .bss           0x0000000000000000        0x0 /opt/gcc-arm-none-eabi-10-2020-q4-major/bin/../lib/gcc/arm-none-eabi/10.2.1/../../../../arm-none-eabi/lib/thumb/v7e-m+dp/hard/libm.a(lib_a-cosf.o)
 .text          0x0000000000000000        0x0 /opt/gcc-arm-none-eabi-10-2020-q4-major/bin/../lib/gcc/arm-none-eabi/10.2.1/../../../../arm-none-eabi/lib/thumb/v7e-m+dp/hard/libm.a(lib_a-math_errf.o)
 .data          0x0000000000000000        0x0 /opt/gcc-arm-none-eabi-10-2020-q4-major/bin/../lib/gcc/arm-none-eabi/10.2.1/../../../../arm-none-eabi/lib/thumb/v7e-m+dp/hard/libm.a(lib_a-math_errf.o)
 .bss           0x0000000000000000        0x0 /opt/gcc-arm-none-eabi-10-2020-q4-major/bin/../lib/gcc/arm-none-eabi/10.2.1/../../../../arm-none-eabi/lib/thumb/v7e-m+dp/hard/libm.a(lib_a-math_errf.o)
 .text.xflowf   0x0000000000000000       0x20 /opt/gcc-arm-none-eabi-10-2020-q4-major/bin/../lib/gcc/arm-none-eabi/10.2.1/../../../../arm-none-eabi/lib/thumb/v7e-m+dp/hard/libm.a(lib_a-math_errf.o)
 .text.__math_uflowf
                0x0000000000000000        0xc /opt/gcc-arm-none-eabi-10-2020-q4-major/bin/../lib/gcc/arm-none-eabi/10.2.1/../../../../arm-none-eabi/lib/thumb/v7e-m+dp/hard/libm.a(lib_a-math_errf.o)
 .text.__math_may_uflowf
                0x0000000000000000        0xc /opt/gcc-arm-none-eabi-10-2020-q4-major/bin/../lib/gcc/arm-none-eabi/10.2.1/../../../../arm-none-eabi/lib/thumb/v7e-m+dp/hard/libm.a(lib_a-math_errf.o)
 .text.__math_oflowf
                0x0000000000000000        0xc /opt/gcc-arm-none-eabi-10-2020-q4-major/bin/../lib/gcc/arm-none-eabi/10.2.1/../../../../arm-none-eabi/lib/thumb/v7e-m+dp/hard/libm.a(lib_a-math_errf.o)
 .text.__math_divzerof
                0x0000000000000000       0x24 /opt/gcc-arm-none-eabi-10-2020-q4-major/bin/../lib/gcc/arm-none-eabi/10.2.1/../../../../arm-none-eabi/lib/thumb/v7e-m+dp/hard/libm.a(lib_a-math_errf.o)
 .text          0x0000000000000000        0x0 /opt/gcc-arm-none-eabi-10-2020-q4-major/bin/../lib/gcc/arm-none-eabi/10.2.1/../../../../arm-none-eabi/lib/thumb/v7e-m+dp/hard/libm.a(lib_a-sincosf_data.o)
 .data          0x0000000000000000        0x0 /opt/gcc-arm-none-eabi-10-2020-q4-major/bin/../lib/gcc/arm-none-eabi/10.2.1/../../../../arm-none-eabi/lib/thumb/v7e-m+dp/hard/libm.a(lib_a-sincosf_data.o)
 .bss           0x0000000000000000        0x0 /opt/gcc-arm-none-eabi-10-2020-q4-major/bin/../lib/gcc/arm-none-eabi/10.2.1/../../../../arm-none-eabi/lib/thumb/v7e-m+dp/hard/libm.a(lib_a-sincosf_data.o)
 .text          0x0000000000000000        0x0 /opt/gcc-arm-none-eabi-10-2020-q4-major/bin/../lib/gcc/arm-none-eabi/10.2.1/../../../../arm-none-eabi/lib/thumb/v7e-m+dp/hard/libm.a(lib_a-wf_asin.o)
 .data          0x0000000000000000        0x0 /opt/gcc-arm-none-eabi-10-2020-q4-major/bin/../lib/gcc/arm-none-eabi/10.2.1/../../../../arm-none-eabi/lib/thumb/v7e-m+dp/hard/libm.a(lib_a-wf_asin.o)
 .bss           0x0000000000000000        0x0 /opt/gcc-arm-none-eabi-10-2020-q4-major/bin/../lib/gcc/arm-none-eabi/10.2.1/../../../../arm-none-eabi/lib/thumb/v7e-m+dp/hard/libm.a(lib_a-wf_asin.o)
 .text          0x0000000000000000        0x0 /opt/gcc-arm-none-eabi-10-2020-q4-major/bin/../lib/gcc/arm-none-eabi/10.2.1/../../../../arm-none-eabi/lib/thumb/v7e-m+dp/hard/libm.a(lib_a-wf_atan2.o)
 .data          0x0000000000000000        0x0 /opt/gcc-arm-none-eabi-10-2020-q4-major/bin/../lib/gcc/arm-none-eabi/10.2.1/../../../../arm-none-eabi/lib/thumb/v7e-m+dp/hard/libm.a(lib_a-wf_atan2.o)
 .bss           0x0000000000000000        0x0 /opt/gcc-arm-none-eabi-10-2020-q4-major/bin/../lib/gcc/arm-none-eabi/10.2.1/../../../../arm-none-eabi/lib/thumb/v7e-m+dp/hard/libm.a(lib_a-wf_atan2.o)
 .text          0x0000000000000000        0x0 /opt/gcc-arm-none-eabi-10-2020-q4-major/bin/../lib/gcc/arm-none-eabi/10.2.1/../../../../arm-none-eabi/lib/thumb/v7e-m+dp/hard/libm.a(lib_a-wf_sqrt.o)
 .data          0x0000000000000000        0x0 /opt/gcc-arm-none-eabi-10-2020-q4-major/bin/../lib/gcc/arm-none-eabi/10.2.1/../../../../arm-none-eabi/lib/thumb/v7e-m+dp/hard/libm.a(lib_a-wf_sqrt.o)
 .bss           0x0000000000000000        0x0 /opt/gcc-arm-none-eabi-10-2020-q4-major/bin/../lib/gcc/arm-none-eabi/10.2.1/../../../../arm-none-eabi/lib/thumb/v7e-m+dp/hard/libm.a(lib_a-wf_sqrt.o)
 .text          0x0000000000000000        0x0 /opt/gcc-arm-none-eabi-10-2020-q4-major/bin/../lib/gcc/arm-none-eabi/10.2.1/../../../../arm-none-eabi/lib/thumb/v7e-m+dp/hard/libm.a(lib_a-ef_asin.o)
 .data          0x0000000000000000        0x0 /opt/gcc-arm-none-eabi-10-2020-q4-major/bin/../lib/gcc/arm-none-eabi/10.2.1/../../../../arm-none-eabi/lib/thumb/v7e-m+dp/hard/libm.a(lib_a-ef_asin.o)
 .bss           0x0000000000000000        0x0 /opt/gcc-arm-none-eabi-10-2020-q4-major/bin/../lib/gcc/arm-none-eabi/10.2.1/../../../../arm-none-eabi/lib/thumb/v7e-m+dp/hard/libm.a(lib_a-ef_asin.o)
 .text          0x0000000000000000        0x0 /opt/gcc-arm-none-eabi-10-2020-q4-major/bin/../lib/gcc/arm-none-eabi/10.2.1/../../../../arm-none-eabi/lib/thumb/v7e-m+dp/hard/libm.a(lib_a-ef_atan2.o)
 .data          0x0000000000000000        0x0 /opt/gcc-arm-none-eabi-10-2020-q4-major/bin/../lib/gcc/arm-none-eabi/10.2.1/../../../../arm-none-eabi/lib/thumb/v7e-m+dp/hard/libm.a(lib_a-ef_atan2.o)
 .bss           0x0000000000000000        0x0 /opt/gcc-arm-none-eabi-10-2020-q4-major/bin/../lib/gcc/arm-none-eabi/10.2.1/../../../../arm-none-eabi/lib/thumb/v7e-m+dp/hard/libm.a(lib_a-ef_atan2.o)
 .text          0x0000000000000000        0x0 /opt/gcc-arm-none-eabi-10-2020-q4-major/bin/../lib/gcc/arm-none-eabi/10.2.1/../../../../arm-none-eabi/lib/thumb/v7e-m+dp/hard/libm.a(lib_a-ef_sqrt.o)
 .data          0x0000000000000000        0x0 /opt/gcc-arm-none-eabi-10-2020-q4-major/bin/../lib/gcc/arm-none-eabi/10.2.1/../../../../arm-none-eabi/lib/thumb/v7e-m+dp/hard/libm.a(lib_a-ef_sqrt.o)
 .bss           0x0000000000000000        0x0 /opt/gcc-arm-none-eabi-10-2020-q4-major/bin/../lib/gcc/arm-none-eabi/10.2.1/../../../../arm-none-eabi/lib/thumb/v7e-m+dp/hard/libm.a(lib_a-ef_sqrt.o)
 .text          0x0000000000000000        0x0 /opt/gcc-arm-none-eabi-10-2020-q4-major/bin/../lib/gcc/arm-none-eabi/10.2.1/../../../../arm-none-eabi/lib/thumb/v7e-m+dp/hard/libm.a(lib_a-s_lib_ver.o)
 .data          0x0000000000000000        0x0 /opt/gcc-arm-none-eabi-10-2020-q4-major/bin/../lib/gcc/arm-none-eabi/10.2.1/../../../../arm-none-eabi/lib/thumb/v7e-m+dp/hard/libm.a(lib_a-s_lib_ver.o)
 .bss           0x0000000000000000        0x0 /opt/gcc-arm-none-eabi-10-2020-q4-major/bin/../lib/gcc/arm-none-eabi/10.2.1/../../../../arm-none-eabi/lib/thumb/v7e-m+dp/hard/libm.a(lib_a-s_lib_ver.o)
 .text          0x0000000000000000        0x0 /opt/gcc-arm-none-eabi-10-2020-q4-major/bin/../lib/gcc/arm-none-eabi/10.2.1/../../../../arm-none-eabi/lib/thumb/v7e-m+dp/hard/libm.a(lib_a-sf_atan.o)
 .data          0x0000000000000000        0x0 /opt/gcc-arm-none-eabi-10-2020-q4-major/bin/../lib/gcc/arm-none-eabi/10.2.1/../../../../arm-none-eabi/lib/thumb/v7e-m+dp/hard/libm.a(lib_a-sf_atan.o)
 .bss           0x0000000000000000        0x0 /opt/gcc-arm-none-eabi-10-2020-q4-major/bin/../lib/gcc/arm-none-eabi/10.2.1/../../../../arm-none-eabi/lib/thumb/v7e-m+dp/hard/libm.a(lib_a-sf_atan.o)
 .text          0x0000000000000000        0x0 /opt/gcc-arm-none-eabi-10-2020-q4-major/bin/../lib/gcc/arm-none-eabi/10.2.1/../../../../arm-none-eabi/lib/thumb/v7e-m+dp/hard/libm.a(lib_a-sf_fabs.o)
 .data          0x0000000000000000        0x0 /opt/gcc-arm-none-eabi-10-2020-q4-major/bin/../lib/gcc/arm-none-eabi/10.2.1/../../../../arm-none-eabi/lib/thumb/v7e-m+dp/hard/libm.a(lib_a-sf_fabs.o)
 .bss           0x0000000000000000        0x0 /opt/gcc-arm-none-eabi-10-2020-q4-major/bin/../lib/gcc/arm-none-eabi/10.2.1/../../../../arm-none-eabi/lib/thumb/v7e-m+dp/hard/libm.a(lib_a-sf_fabs.o)
 .text          0x0000000000000000        0x0 /opt/gcc-arm-none-eabi-10-2020-q4-major/bin/../lib/gcc/arm-none-eabi/10.2.1/../../../../arm-none-eabi/lib/thumb/v7e-m+dp/hard/libm.a(lib_a-sf_nan.o)
 .data          0x0000000000000000        0x0 /opt/gcc-arm-none-eabi-10-2020-q4-major/bin/../lib/gcc/arm-none-eabi/10.2.1/../../../../arm-none-eabi/lib/thumb/v7e-m+dp/hard/libm.a(lib_a-sf_nan.o)
 .bss           0x0000000000000000        0x0 /opt/gcc-arm-none-eabi-10-2020-q4-major/bin/../lib/gcc/arm-none-eabi/10.2.1/../../../../arm-none-eabi/lib/thumb/v7e-m+dp/hard/libm.a(lib_a-sf_nan.o)
 .data          0x0000000000000000        0x0 /opt/gcc-arm-none-eabi-10-2020-q4-major/bin/../lib/gcc/arm-none-eabi/10.2.1/thumb/v7e-m+dp/hard/libgcc.a(_arm_addsubdf3.o)
 .bss           0x0000000000000000        0x0 /opt/gcc-arm-none-eabi-10-2020-q4-major/bin/../lib/gcc/arm-none-eabi/10.2.1/thumb/v7e-m+dp/hard/libgcc.a(_arm_addsubdf3.o)
 .text          0x0000000000000000       0xa0 /opt/gcc-arm-none-eabi-10-2020-q4-major/bin/../lib/gcc/arm-none-eabi/10.2.1/thumb/v7e-m+dp/hard/libgcc.a(_aeabi_ldivmod.o)
 .data          0x0000000000000000        0x0 /opt/gcc-arm-none-eabi-10-2020-q4-major/bin/../lib/gcc/arm-none-eabi/10.2.1/thumb/v7e-m+dp/hard/libgcc.a(_aeabi_ldivmod.o)
 .bss           0x0000000000000000        0x0 /opt/gcc-arm-none-eabi-10-2020-q4-major/bin/../lib/gcc/arm-none-eabi/10.2.1/thumb/v7e-m+dp/hard/libgcc.a(_aeabi_ldivmod.o)
 .debug_frame   0x0000000000000000       0x44 /opt/gcc-arm-none-eabi-10-2020-q4-major/bin/../lib/gcc/arm-none-eabi/10.2.1/thumb/v7e-m+dp/hard/libgcc.a(_aeabi_ldivmod.o)
 .ARM.attributes
                0x0000000000000000       0x1e /opt/gcc-arm-none-eabi-10-2020-q4-major/bin/../lib/gcc/arm-none-eabi/10.2.1/thumb/v7e-m+dp/hard/libgcc.a(_aeabi_ldivmod.o)
 .data          0x0000000000000000        0x0 /opt/gcc-arm-none-eabi-10-2020-q4-major/bin/../lib/gcc/arm-none-eabi/10.2.1/thumb/v7e-m+dp/hard/libgcc.a(_aeabi_uldivmod.o)
 .bss           0x0000000000000000        0x0 /opt/gcc-arm-none-eabi-10-2020-q4-major/bin/../lib/gcc/arm-none-eabi/10.2.1/thumb/v7e-m+dp/hard/libgcc.a(_aeabi_uldivmod.o)
 .data          0x0000000000000000        0x0 /opt/gcc-arm-none-eabi-10-2020-q4-major/bin/../lib/gcc/arm-none-eabi/10.2.1/thumb/v7e-m+dp/hard/libgcc.a(_udivmoddi4.o)
 .bss           0x0000000000000000        0x0 /opt/gcc-arm-none-eabi-10-2020-q4-major/bin/../lib/gcc/arm-none-eabi/10.2.1/thumb/v7e-m+dp/hard/libgcc.a(_udivmoddi4.o)
 .ARM.extab     0x0000000000000000        0x0 /opt/gcc-arm-none-eabi-10-2020-q4-major/bin/../lib/gcc/arm-none-eabi/10.2.1/thumb/v7e-m+dp/hard/libgcc.a(_udivmoddi4.o)
 .data          0x0000000000000000        0x0 /opt/gcc-arm-none-eabi-10-2020-q4-major/bin/../lib/gcc/arm-none-eabi/10.2.1/thumb/v7e-m+dp/hard/libgcc.a(unwind-arm.o)
 .bss           0x0000000000000000        0x0 /opt/gcc-arm-none-eabi-10-2020-q4-major/bin/../lib/gcc/arm-none-eabi/10.2.1/thumb/v7e-m+dp/hard/libgcc.a(unwind-arm.o)
 .ARM.extab     0x0000000000000000        0x0 /opt/gcc-arm-none-eabi-10-2020-q4-major/bin/../lib/gcc/arm-none-eabi/10.2.1/thumb/v7e-m+dp/hard/libgcc.a(unwind-arm.o)
 .data          0x0000000000000000        0x0 /opt/gcc-arm-none-eabi-10-2020-q4-major/bin/../lib/gcc/arm-none-eabi/10.2.1/thumb/v7e-m+dp/hard/libgcc.a(libunwind.o)
 .bss           0x0000000000000000        0x0 /opt/gcc-arm-none-eabi-10-2020-q4-major/bin/../lib/gcc/arm-none-eabi/10.2.1/thumb/v7e-m+dp/hard/libgcc.a(libunwind.o)
 .data          0x0000000000000000        0x0 /opt/gcc-arm-none-eabi-10-2020-q4-major/bin/../lib/gcc/arm-none-eabi/10.2.1/thumb/v7e-m+dp/hard/libgcc.a(pr-support.o)
 .bss           0x0000000000000000        0x0 /opt/gcc-arm-none-eabi-10-2020-q4-major/bin/../lib/gcc/arm-none-eabi/10.2.1/thumb/v7e-m+dp/hard/libgcc.a(pr-support.o)
 .text.unlikely
                0x0000000000000000        0xc /opt/gcc-arm-none-eabi-10-2020-q4-major/bin/../lib/gcc/arm-none-eabi/10.2.1/thumb/v7e-m+dp/hard/libgcc.a(pr-support.o)
 .ARM.extab.text.unlikely
                0x0000000000000000        0x0 /opt/gcc-arm-none-eabi-10-2020-q4-major/bin/../lib/gcc/arm-none-eabi/10.2.1/thumb/v7e-m+dp/hard/libgcc.a(pr-support.o)
 .ARM.exidx.text.unlikely
                0x0000000000000000       0x10 /opt/gcc-arm-none-eabi-10-2020-q4-major/bin/../lib/gcc/arm-none-eabi/10.2.1/thumb/v7e-m+dp/hard/libgcc.a(pr-support.o)
 .data          0x0000000000000000        0x0 /opt/gcc-arm-none-eabi-10-2020-q4-major/bin/../lib/gcc/arm-none-eabi/10.2.1/thumb/v7e-m+dp/hard/libgcc.a(_dvmd_tls.o)
 .bss           0x0000000000000000        0x0 /opt/gcc-arm-none-eabi-10-2020-q4-major/bin/../lib/gcc/arm-none-eabi/10.2.1/thumb/v7e-m+dp/hard/libgcc.a(_dvmd_tls.o)
 .text          0x0000000000000000        0x0 /opt/gcc-arm-none-eabi-10-2020-q4-major/bin/../lib/gcc/arm-none-eabi/10.2.1/../../../../arm-none-eabi/lib/thumb/v7e-m+dp/hard/libg.a(lib_a-ctype_.o)
 .data          0x0000000000000000        0x0 /opt/gcc-arm-none-eabi-10-2020-q4-major/bin/../lib/gcc/arm-none-eabi/10.2.1/../../../../arm-none-eabi/lib/thumb/v7e-m+dp/hard/libg.a(lib_a-ctype_.o)
 .bss           0x0000000000000000        0x0 /opt/gcc-arm-none-eabi-10-2020-q4-major/bin/../lib/gcc/arm-none-eabi/10.2.1/../../../../arm-none-eabi/lib/thumb/v7e-m+dp/hard/libg.a(lib_a-ctype_.o)
 .text          0x0000000000000000        0x0 /opt/gcc-arm-none-eabi-10-2020-q4-major/bin/../lib/gcc/arm-none-eabi/10.2.1/../../../../arm-none-eabi/lib/thumb/v7e-m+dp/hard/libg.a(lib_a-errno.o)
 .data          0x0000000000000000        0x0 /opt/gcc-arm-none-eabi-10-2020-q4-major/bin/../lib/gcc/arm-none-eabi/10.2.1/../../../../arm-none-eabi/lib/thumb/v7e-m+dp/hard/libg.a(lib_a-errno.o)
 .bss           0x0000000000000000        0x0 /opt/gcc-arm-none-eabi-10-2020-q4-major/bin/../lib/gcc/arm-none-eabi/10.2.1/../../../../arm-none-eabi/lib/thumb/v7e-m+dp/hard/libg.a(lib_a-errno.o)
 .text          0x0000000000000000        0x0 /opt/gcc-arm-none-eabi-10-2020-q4-major/bin/../lib/gcc/arm-none-eabi/10.2.1/../../../../arm-none-eabi/lib/thumb/v7e-m+dp/hard/libg.a(lib_a-impure.o)
 .data          0x0000000000000000        0x0 /opt/gcc-arm-none-eabi-10-2020-q4-major/bin/../lib/gcc/arm-none-eabi/10.2.1/../../../../arm-none-eabi/lib/thumb/v7e-m+dp/hard/libg.a(lib_a-impure.o)
 .bss           0x0000000000000000        0x0 /opt/gcc-arm-none-eabi-10-2020-q4-major/bin/../lib/gcc/arm-none-eabi/10.2.1/../../../../arm-none-eabi/lib/thumb/v7e-m+dp/hard/libg.a(lib_a-impure.o)
 .rodata._global_impure_ptr
                0x0000000000000000        0x4 /opt/gcc-arm-none-eabi-10-2020-q4-major/bin/../lib/gcc/arm-none-eabi/10.2.1/../../../../arm-none-eabi/lib/thumb/v7e-m+dp/hard/libg.a(lib_a-impure.o)
 .text          0x0000000000000000        0x0 /opt/gcc-arm-none-eabi-10-2020-q4-major/bin/../lib/gcc/arm-none-eabi/10.2.1/../../../../arm-none-eabi/lib/thumb/v7e-m+dp/hard/libg.a(lib_a-abort.o)
 .data          0x0000000000000000        0x0 /opt/gcc-arm-none-eabi-10-2020-q4-major/bin/../lib/gcc/arm-none-eabi/10.2.1/../../../../arm-none-eabi/lib/thumb/v7e-m+dp/hard/libg.a(lib_a-abort.o)
 .bss           0x0000000000000000        0x0 /opt/gcc-arm-none-eabi-10-2020-q4-major/bin/../lib/gcc/arm-none-eabi/10.2.1/../../../../arm-none-eabi/lib/thumb/v7e-m+dp/hard/libg.a(lib_a-abort.o)
 .text          0x0000000000000000        0x0 /opt/gcc-arm-none-eabi-10-2020-q4-major/bin/../lib/gcc/arm-none-eabi/10.2.1/../../../../arm-none-eabi/lib/thumb/v7e-m+dp/hard/libg.a(lib_a-memcmp.o)
 .data          0x0000000000000000        0x0 /opt/gcc-arm-none-eabi-10-2020-q4-major/bin/../lib/gcc/arm-none-eabi/10.2.1/../../../../arm-none-eabi/lib/thumb/v7e-m+dp/hard/libg.a(lib_a-memcmp.o)
 .bss           0x0000000000000000        0x0 /opt/gcc-arm-none-eabi-10-2020-q4-major/bin/../lib/gcc/arm-none-eabi/10.2.1/../../../../arm-none-eabi/lib/thumb/v7e-m+dp/hard/libg.a(lib_a-memcmp.o)
 .data          0x0000000000000000        0x0 /opt/gcc-arm-none-eabi-10-2020-q4-major/bin/../lib/gcc/arm-none-eabi/10.2.1/../../../../arm-none-eabi/lib/thumb/v7e-m+dp/hard/libg.a(lib_a-memcpy.o)
 .bss           0x0000000000000000        0x0 /opt/gcc-arm-none-eabi-10-2020-q4-major/bin/../lib/gcc/arm-none-eabi/10.2.1/../../../../arm-none-eabi/lib/thumb/v7e-m+dp/hard/libg.a(lib_a-memcpy.o)
 .text          0x0000000000000000        0x0 /opt/gcc-arm-none-eabi-10-2020-q4-major/bin/../lib/gcc/arm-none-eabi/10.2.1/../../../../arm-none-eabi/lib/thumb/v7e-m+dp/hard/libg.a(lib_a-memset.o)
 .data          0x0000000000000000        0x0 /opt/gcc-arm-none-eabi-10-2020-q4-major/bin/../lib/gcc/arm-none-eabi/10.2.1/../../../../arm-none-eabi/lib/thumb/v7e-m+dp/hard/libg.a(lib_a-memset.o)
 .bss           0x0000000000000000        0x0 /opt/gcc-arm-none-eabi-10-2020-q4-major/bin/../lib/gcc/arm-none-eabi/10.2.1/../../../../arm-none-eabi/lib/thumb/v7e-m+dp/hard/libg.a(lib_a-memset.o)
 .text          0x0000000000000000        0x0 /opt/gcc-arm-none-eabi-10-2020-q4-major/bin/../lib/gcc/arm-none-eabi/10.2.1/../../../../arm-none-eabi/lib/thumb/v7e-m+dp/hard/libg.a(lib_a-signal.o)
 .data          0x0000000000000000        0x0 /opt/gcc-arm-none-eabi-10-2020-q4-major/bin/../lib/gcc/arm-none-eabi/10.2.1/../../../../arm-none-eabi/lib/thumb/v7e-m+dp/hard/libg.a(lib_a-signal.o)
 .bss           0x0000000000000000        0x0 /opt/gcc-arm-none-eabi-10-2020-q4-major/bin/../lib/gcc/arm-none-eabi/10.2.1/../../../../arm-none-eabi/lib/thumb/v7e-m+dp/hard/libg.a(lib_a-signal.o)
 .text._init_signal_r
                0x0000000000000000       0x30 /opt/gcc-arm-none-eabi-10-2020-q4-major/bin/../lib/gcc/arm-none-eabi/10.2.1/../../../../arm-none-eabi/lib/thumb/v7e-m+dp/hard/libg.a(lib_a-signal.o)
 .text._signal_r
                0x0000000000000000       0x4c /opt/gcc-arm-none-eabi-10-2020-q4-major/bin/../lib/gcc/arm-none-eabi/10.2.1/../../../../arm-none-eabi/lib/thumb/v7e-m+dp/hard/libg.a(lib_a-signal.o)
 .text._raise_r
                0x0000000000000000       0x58 /opt/gcc-arm-none-eabi-10-2020-q4-major/bin/../lib/gcc/arm-none-eabi/10.2.1/../../../../arm-none-eabi/lib/thumb/v7e-m+dp/hard/libg.a(lib_a-signal.o)
 .text.__sigtramp_r
                0x0000000000000000       0x64 /opt/gcc-arm-none-eabi-10-2020-q4-major/bin/../lib/gcc/arm-none-eabi/10.2.1/../../../../arm-none-eabi/lib/thumb/v7e-m+dp/hard/libg.a(lib_a-signal.o)
 .text.signal   0x0000000000000000       0x54 /opt/gcc-arm-none-eabi-10-2020-q4-major/bin/../lib/gcc/arm-none-eabi/10.2.1/../../../../arm-none-eabi/lib/thumb/v7e-m+dp/hard/libg.a(lib_a-signal.o)
 .text._init_signal
                0x0000000000000000       0x38 /opt/gcc-arm-none-eabi-10-2020-q4-major/bin/../lib/gcc/arm-none-eabi/10.2.1/../../../../arm-none-eabi/lib/thumb/v7e-m+dp/hard/libg.a(lib_a-signal.o)
 .text.__sigtramp
                0x0000000000000000       0x68 /opt/gcc-arm-none-eabi-10-2020-q4-major/bin/../lib/gcc/arm-none-eabi/10.2.1/../../../../arm-none-eabi/lib/thumb/v7e-m+dp/hard/libg.a(lib_a-signal.o)
 .text          0x0000000000000000        0x0 /opt/gcc-arm-none-eabi-10-2020-q4-major/bin/../lib/gcc/arm-none-eabi/10.2.1/../../../../arm-none-eabi/lib/thumb/v7e-m+dp/hard/libg.a(lib_a-signalr.o)
 .data          0x0000000000000000        0x0 /opt/gcc-arm-none-eabi-10-2020-q4-major/bin/../lib/gcc/arm-none-eabi/10.2.1/../../../../arm-none-eabi/lib/thumb/v7e-m+dp/hard/libg.a(lib_a-signalr.o)
 .bss           0x0000000000000000        0x0 /opt/gcc-arm-none-eabi-10-2020-q4-major/bin/../lib/gcc/arm-none-eabi/10.2.1/../../../../arm-none-eabi/lib/thumb/v7e-m+dp/hard/libg.a(lib_a-signalr.o)
 .text          0x0000000000000000        0x0 /opt/gcc-arm-none-eabi-10-2020-q4-major/bin/../lib/gcc/arm-none-eabi/10.2.1/../../../../arm-none-eabi/lib/thumb/v7e-m+dp/hard/libg.a(lib_a-snprintf.o)
 .data          0x0000000000000000        0x0 /opt/gcc-arm-none-eabi-10-2020-q4-major/bin/../lib/gcc/arm-none-eabi/10.2.1/../../../../arm-none-eabi/lib/thumb/v7e-m+dp/hard/libg.a(lib_a-snprintf.o)
 .bss           0x0000000000000000        0x0 /opt/gcc-arm-none-eabi-10-2020-q4-major/bin/../lib/gcc/arm-none-eabi/10.2.1/../../../../arm-none-eabi/lib/thumb/v7e-m+dp/hard/libg.a(lib_a-snprintf.o)
 .text._snprintf_r
                0x0000000000000000       0x80 /opt/gcc-arm-none-eabi-10-2020-q4-major/bin/../lib/gcc/arm-none-eabi/10.2.1/../../../../arm-none-eabi/lib/thumb/v7e-m+dp/hard/libg.a(lib_a-snprintf.o)
 .text          0x0000000000000000        0x0 /opt/gcc-arm-none-eabi-10-2020-q4-major/bin/../lib/gcc/arm-none-eabi/10.2.1/../../../../arm-none-eabi/lib/thumb/v7e-m+dp/hard/libg.a(lib_a-strchr.o)
 .data          0x0000000000000000        0x0 /opt/gcc-arm-none-eabi-10-2020-q4-major/bin/../lib/gcc/arm-none-eabi/10.2.1/../../../../arm-none-eabi/lib/thumb/v7e-m+dp/hard/libg.a(lib_a-strchr.o)
 .bss           0x0000000000000000        0x0 /opt/gcc-arm-none-eabi-10-2020-q4-major/bin/../lib/gcc/arm-none-eabi/10.2.1/../../../../arm-none-eabi/lib/thumb/v7e-m+dp/hard/libg.a(lib_a-strchr.o)
 .text          0x0000000000000000        0x0 /opt/gcc-arm-none-eabi-10-2020-q4-major/bin/../lib/gcc/arm-none-eabi/10.2.1/../../../../arm-none-eabi/lib/thumb/v7e-m+dp/hard/libg.a(lib_a-strncpy.o)
 .data          0x0000000000000000        0x0 /opt/gcc-arm-none-eabi-10-2020-q4-major/bin/../lib/gcc/arm-none-eabi/10.2.1/../../../../arm-none-eabi/lib/thumb/v7e-m+dp/hard/libg.a(lib_a-strncpy.o)
 .bss           0x0000000000000000        0x0 /opt/gcc-arm-none-eabi-10-2020-q4-major/bin/../lib/gcc/arm-none-eabi/10.2.1/../../../../arm-none-eabi/lib/thumb/v7e-m+dp/hard/libg.a(lib_a-strncpy.o)
 .text          0x0000000000000000        0x0 /opt/gcc-arm-none-eabi-10-2020-q4-major/bin/../lib/gcc/arm-none-eabi/10.2.1/../../../../arm-none-eabi/lib/thumb/v7e-m+dp/hard/libg.a(lib_a-svfprintf.o)
 .data          0x0000000000000000        0x0 /opt/gcc-arm-none-eabi-10-2020-q4-major/bin/../lib/gcc/arm-none-eabi/10.2.1/../../../../arm-none-eabi/lib/thumb/v7e-m+dp/hard/libg.a(lib_a-svfprintf.o)
 .bss           0x0000000000000000        0x0 /opt/gcc-arm-none-eabi-10-2020-q4-major/bin/../lib/gcc/arm-none-eabi/10.2.1/../../../../arm-none-eabi/lib/thumb/v7e-m+dp/hard/libg.a(lib_a-svfprintf.o)
 .text          0x0000000000000000        0x0 /opt/gcc-arm-none-eabi-10-2020-q4-major/bin/../lib/gcc/arm-none-eabi/10.2.1/../../../../arm-none-eabi/lib/thumb/v7e-m+dp/hard/libg.a(lib_a-dtoa.o)
 .data          0x0000000000000000        0x0 /opt/gcc-arm-none-eabi-10-2020-q4-major/bin/../lib/gcc/arm-none-eabi/10.2.1/../../../../arm-none-eabi/lib/thumb/v7e-m+dp/hard/libg.a(lib_a-dtoa.o)
 .bss           0x0000000000000000        0x0 /opt/gcc-arm-none-eabi-10-2020-q4-major/bin/../lib/gcc/arm-none-eabi/10.2.1/../../../../arm-none-eabi/lib/thumb/v7e-m+dp/hard/libg.a(lib_a-dtoa.o)
 .text          0x0000000000000000        0x0 /opt/gcc-arm-none-eabi-10-2020-q4-major/bin/../lib/gcc/arm-none-eabi/10.2.1/../../../../arm-none-eabi/lib/thumb/v7e-m+dp/hard/libg.a(lib_a-freer.o)
 .data          0x0000000000000000        0x0 /opt/gcc-arm-none-eabi-10-2020-q4-major/bin/../lib/gcc/arm-none-eabi/10.2.1/../../../../arm-none-eabi/lib/thumb/v7e-m+dp/hard/libg.a(lib_a-freer.o)
 .bss           0x0000000000000000        0x0 /opt/gcc-arm-none-eabi-10-2020-q4-major/bin/../lib/gcc/arm-none-eabi/10.2.1/../../../../arm-none-eabi/lib/thumb/v7e-m+dp/hard/libg.a(lib_a-freer.o)
 .text          0x0000000000000000        0x0 /opt/gcc-arm-none-eabi-10-2020-q4-major/bin/../lib/gcc/arm-none-eabi/10.2.1/../../../../arm-none-eabi/lib/thumb/v7e-m+dp/hard/libg.a(lib_a-localeconv.o)
 .data          0x0000000000000000        0x0 /opt/gcc-arm-none-eabi-10-2020-q4-major/bin/../lib/gcc/arm-none-eabi/10.2.1/../../../../arm-none-eabi/lib/thumb/v7e-m+dp/hard/libg.a(lib_a-localeconv.o)
 .bss           0x0000000000000000        0x0 /opt/gcc-arm-none-eabi-10-2020-q4-major/bin/../lib/gcc/arm-none-eabi/10.2.1/../../../../arm-none-eabi/lib/thumb/v7e-m+dp/hard/libg.a(lib_a-localeconv.o)
 .text.__localeconv_l
                0x0000000000000000        0x4 /opt/gcc-arm-none-eabi-10-2020-q4-major/bin/../lib/gcc/arm-none-eabi/10.2.1/../../../../arm-none-eabi/lib/thumb/v7e-m+dp/hard/libg.a(lib_a-localeconv.o)
 .text.localeconv
                0x0000000000000000        0x8 /opt/gcc-arm-none-eabi-10-2020-q4-major/bin/../lib/gcc/arm-none-eabi/10.2.1/../../../../arm-none-eabi/lib/thumb/v7e-m+dp/hard/libg.a(lib_a-localeconv.o)
 .text          0x0000000000000000        0x0 /opt/gcc-arm-none-eabi-10-2020-q4-major/bin/../lib/gcc/arm-none-eabi/10.2.1/../../../../arm-none-eabi/lib/thumb/v7e-m+dp/hard/libg.a(lib_a-mallocr.o)
 .data          0x0000000000000000        0x0 /opt/gcc-arm-none-eabi-10-2020-q4-major/bin/../lib/gcc/arm-none-eabi/10.2.1/../../../../arm-none-eabi/lib/thumb/v7e-m+dp/hard/libg.a(lib_a-mallocr.o)
 .bss           0x0000000000000000        0x0 /opt/gcc-arm-none-eabi-10-2020-q4-major/bin/../lib/gcc/arm-none-eabi/10.2.1/../../../../arm-none-eabi/lib/thumb/v7e-m+dp/hard/libg.a(lib_a-mallocr.o)
 .data          0x0000000000000000        0x0 /opt/gcc-arm-none-eabi-10-2020-q4-major/bin/../lib/gcc/arm-none-eabi/10.2.1/../../../../arm-none-eabi/lib/thumb/v7e-m+dp/hard/libg.a(lib_a-memchr.o)
 .bss           0x0000000000000000        0x0 /opt/gcc-arm-none-eabi-10-2020-q4-major/bin/../lib/gcc/arm-none-eabi/10.2.1/../../../../arm-none-eabi/lib/thumb/v7e-m+dp/hard/libg.a(lib_a-memchr.o)
 .text          0x0000000000000000        0x0 /opt/gcc-arm-none-eabi-10-2020-q4-major/bin/../lib/gcc/arm-none-eabi/10.2.1/../../../../arm-none-eabi/lib/thumb/v7e-m+dp/hard/libg.a(lib_a-mlock.o)
 .data          0x0000000000000000        0x0 /opt/gcc-arm-none-eabi-10-2020-q4-major/bin/../lib/gcc/arm-none-eabi/10.2.1/../../../../arm-none-eabi/lib/thumb/v7e-m+dp/hard/libg.a(lib_a-mlock.o)
 .bss           0x0000000000000000        0x0 /opt/gcc-arm-none-eabi-10-2020-q4-major/bin/../lib/gcc/arm-none-eabi/10.2.1/../../../../arm-none-eabi/lib/thumb/v7e-m+dp/hard/libg.a(lib_a-mlock.o)
 .text          0x0000000000000000        0x0 /opt/gcc-arm-none-eabi-10-2020-q4-major/bin/../lib/gcc/arm-none-eabi/10.2.1/../../../../arm-none-eabi/lib/thumb/v7e-m+dp/hard/libg.a(lib_a-mprec.o)
 .data          0x0000000000000000        0x0 /opt/gcc-arm-none-eabi-10-2020-q4-major/bin/../lib/gcc/arm-none-eabi/10.2.1/../../../../arm-none-eabi/lib/thumb/v7e-m+dp/hard/libg.a(lib_a-mprec.o)
 .bss           0x0000000000000000        0x0 /opt/gcc-arm-none-eabi-10-2020-q4-major/bin/../lib/gcc/arm-none-eabi/10.2.1/../../../../arm-none-eabi/lib/thumb/v7e-m+dp/hard/libg.a(lib_a-mprec.o)
 .text.__s2b    0x0000000000000000       0xb4 /opt/gcc-arm-none-eabi-10-2020-q4-major/bin/../lib/gcc/arm-none-eabi/10.2.1/../../../../arm-none-eabi/lib/thumb/v7e-m+dp/hard/libg.a(lib_a-mprec.o)
 .text.__ulp    0x0000000000000000       0x60 /opt/gcc-arm-none-eabi-10-2020-q4-major/bin/../lib/gcc/arm-none-eabi/10.2.1/../../../../arm-none-eabi/lib/thumb/v7e-m+dp/hard/libg.a(lib_a-mprec.o)
 .text.__b2d    0x0000000000000000       0xc0 /opt/gcc-arm-none-eabi-10-2020-q4-major/bin/../lib/gcc/arm-none-eabi/10.2.1/../../../../arm-none-eabi/lib/thumb/v7e-m+dp/hard/libg.a(lib_a-mprec.o)
 .text.__ratio  0x0000000000000000       0x64 /opt/gcc-arm-none-eabi-10-2020-q4-major/bin/../lib/gcc/arm-none-eabi/10.2.1/../../../../arm-none-eabi/lib/thumb/v7e-m+dp/hard/libg.a(lib_a-mprec.o)
 .text._mprec_log10
                0x0000000000000000       0x28 /opt/gcc-arm-none-eabi-10-2020-q4-major/bin/../lib/gcc/arm-none-eabi/10.2.1/../../../../arm-none-eabi/lib/thumb/v7e-m+dp/hard/libg.a(lib_a-mprec.o)
 .text.__copybits
                0x0000000000000000       0x5c /opt/gcc-arm-none-eabi-10-2020-q4-major/bin/../lib/gcc/arm-none-eabi/10.2.1/../../../../arm-none-eabi/lib/thumb/v7e-m+dp/hard/libg.a(lib_a-mprec.o)
 .text.__any_on
                0x0000000000000000       0x64 /opt/gcc-arm-none-eabi-10-2020-q4-major/bin/../lib/gcc/arm-none-eabi/10.2.1/../../../../arm-none-eabi/lib/thumb/v7e-m+dp/hard/libg.a(lib_a-mprec.o)
 .rodata.__mprec_tinytens
                0x0000000000000000       0x28 /opt/gcc-arm-none-eabi-10-2020-q4-major/bin/../lib/gcc/arm-none-eabi/10.2.1/../../../../arm-none-eabi/lib/thumb/v7e-m+dp/hard/libg.a(lib_a-mprec.o)
 .text          0x0000000000000000        0x0 /opt/gcc-arm-none-eabi-10-2020-q4-major/bin/../lib/gcc/arm-none-eabi/10.2.1/../../../../arm-none-eabi/lib/thumb/v7e-m+dp/hard/libg.a(lib_a-reent.o)
 .data          0x0000000000000000        0x0 /opt/gcc-arm-none-eabi-10-2020-q4-major/bin/../lib/gcc/arm-none-eabi/10.2.1/../../../../arm-none-eabi/lib/thumb/v7e-m+dp/hard/libg.a(lib_a-reent.o)
 .bss           0x0000000000000000        0x0 /opt/gcc-arm-none-eabi-10-2020-q4-major/bin/../lib/gcc/arm-none-eabi/10.2.1/../../../../arm-none-eabi/lib/thumb/v7e-m+dp/hard/libg.a(lib_a-reent.o)
 .text.cleanup_glue
                0x0000000000000000       0x48 /opt/gcc-arm-none-eabi-10-2020-q4-major/bin/../lib/gcc/arm-none-eabi/10.2.1/../../../../arm-none-eabi/lib/thumb/v7e-m+dp/hard/libg.a(lib_a-reent.o)
 .text._reclaim_reent
                0x0000000000000000       0x90 /opt/gcc-arm-none-eabi-10-2020-q4-major/bin/../lib/gcc/arm-none-eabi/10.2.1/../../../../arm-none-eabi/lib/thumb/v7e-m+dp/hard/libg.a(lib_a-reent.o)
 .text          0x0000000000000000        0x0 /opt/gcc-arm-none-eabi-10-2020-q4-major/bin/../lib/gcc/arm-none-eabi/10.2.1/../../../../arm-none-eabi/lib/thumb/v7e-m+dp/hard/libg.a(lib_a-s_frexp.o)
 .data          0x0000000000000000        0x0 /opt/gcc-arm-none-eabi-10-2020-q4-major/bin/../lib/gcc/arm-none-eabi/10.2.1/../../../../arm-none-eabi/lib/thumb/v7e-m+dp/hard/libg.a(lib_a-s_frexp.o)
 .bss           0x0000000000000000        0x0 /opt/gcc-arm-none-eabi-10-2020-q4-major/bin/../lib/gcc/arm-none-eabi/10.2.1/../../../../arm-none-eabi/lib/thumb/v7e-m+dp/hard/libg.a(lib_a-s_frexp.o)
 .data          0x0000000000000000        0x0 /opt/gcc-arm-none-eabi-10-2020-q4-major/bin/../lib/gcc/arm-none-eabi/10.2.1/../../../../arm-none-eabi/lib/thumb/v7e-m+dp/hard/libg.a(lib_a-strlen.o)
 .bss           0x0000000000000000        0x0 /opt/gcc-arm-none-eabi-10-2020-q4-major/bin/../lib/gcc/arm-none-eabi/10.2.1/../../../../arm-none-eabi/lib/thumb/v7e-m+dp/hard/libg.a(lib_a-strlen.o)
 .text          0x0000000000000000        0x0 /opt/gcc-arm-none-eabi-10-2020-q4-major/bin/../lib/gcc/arm-none-eabi/10.2.1/../../../../arm-none-eabi/lib/thumb/v7e-m+dp/hard/libg.a(lib_a-svfiprintf.o)
 .data          0x0000000000000000        0x0 /opt/gcc-arm-none-eabi-10-2020-q4-major/bin/../lib/gcc/arm-none-eabi/10.2.1/../../../../arm-none-eabi/lib/thumb/v7e-m+dp/hard/libg.a(lib_a-svfiprintf.o)
 .bss           0x0000000000000000        0x0 /opt/gcc-arm-none-eabi-10-2020-q4-major/bin/../lib/gcc/arm-none-eabi/10.2.1/../../../../arm-none-eabi/lib/thumb/v7e-m+dp/hard/libg.a(lib_a-svfiprintf.o)
 .rodata._svfiprintf_r.str1.4
                0x0000000000000000       0x2f /opt/gcc-arm-none-eabi-10-2020-q4-major/bin/../lib/gcc/arm-none-eabi/10.2.1/../../../../arm-none-eabi/lib/thumb/v7e-m+dp/hard/libg.a(lib_a-svfiprintf.o)
 .text._svfiprintf_r
                0x0000000000000000      0xb9c /opt/gcc-arm-none-eabi-10-2020-q4-major/bin/../lib/gcc/arm-none-eabi/10.2.1/../../../../arm-none-eabi/lib/thumb/v7e-m+dp/hard/libg.a(lib_a-svfiprintf.o)
 .rodata.blanks.1
                0x0000000000000000       0x10 /opt/gcc-arm-none-eabi-10-2020-q4-major/bin/../lib/gcc/arm-none-eabi/10.2.1/../../../../arm-none-eabi/lib/thumb/v7e-m+dp/hard/libg.a(lib_a-svfiprintf.o)
 .rodata.zeroes.0
                0x0000000000000000       0x10 /opt/gcc-arm-none-eabi-10-2020-q4-major/bin/../lib/gcc/arm-none-eabi/10.2.1/../../../../arm-none-eabi/lib/thumb/v7e-m+dp/hard/libg.a(lib_a-svfiprintf.o)
 .text          0x0000000000000000        0x0 /opt/gcc-arm-none-eabi-10-2020-q4-major/bin/../lib/gcc/arm-none-eabi/10.2.1/../../../../arm-none-eabi/lib/thumb/v7e-m+dp/hard/libg.a(lib_a-assert.o)
 .data          0x0000000000000000        0x0 /opt/gcc-arm-none-eabi-10-2020-q4-major/bin/../lib/gcc/arm-none-eabi/10.2.1/../../../../arm-none-eabi/lib/thumb/v7e-m+dp/hard/libg.a(lib_a-assert.o)
 .bss           0x0000000000000000        0x0 /opt/gcc-arm-none-eabi-10-2020-q4-major/bin/../lib/gcc/arm-none-eabi/10.2.1/../../../../arm-none-eabi/lib/thumb/v7e-m+dp/hard/libg.a(lib_a-assert.o)
 .text.__assert
                0x0000000000000000        0xc /opt/gcc-arm-none-eabi-10-2020-q4-major/bin/../lib/gcc/arm-none-eabi/10.2.1/../../../../arm-none-eabi/lib/thumb/v7e-m+dp/hard/libg.a(lib_a-assert.o)
 .text          0x0000000000000000        0x0 /opt/gcc-arm-none-eabi-10-2020-q4-major/bin/../lib/gcc/arm-none-eabi/10.2.1/../../../../arm-none-eabi/lib/thumb/v7e-m+dp/hard/libg.a(lib_a-callocr.o)
 .data          0x0000000000000000        0x0 /opt/gcc-arm-none-eabi-10-2020-q4-major/bin/../lib/gcc/arm-none-eabi/10.2.1/../../../../arm-none-eabi/lib/thumb/v7e-m+dp/hard/libg.a(lib_a-callocr.o)
 .bss           0x0000000000000000        0x0 /opt/gcc-arm-none-eabi-10-2020-q4-major/bin/../lib/gcc/arm-none-eabi/10.2.1/../../../../arm-none-eabi/lib/thumb/v7e-m+dp/hard/libg.a(lib_a-callocr.o)
 .text          0x0000000000000000        0x0 /opt/gcc-arm-none-eabi-10-2020-q4-major/bin/../lib/gcc/arm-none-eabi/10.2.1/../../../../arm-none-eabi/lib/thumb/v7e-m+dp/hard/libg.a(lib_a-fiprintf.o)
 .data          0x0000000000000000        0x0 /opt/gcc-arm-none-eabi-10-2020-q4-major/bin/../lib/gcc/arm-none-eabi/10.2.1/../../../../arm-none-eabi/lib/thumb/v7e-m+dp/hard/libg.a(lib_a-fiprintf.o)
 .bss           0x0000000000000000        0x0 /opt/gcc-arm-none-eabi-10-2020-q4-major/bin/../lib/gcc/arm-none-eabi/10.2.1/../../../../arm-none-eabi/lib/thumb/v7e-m+dp/hard/libg.a(lib_a-fiprintf.o)
 .text._fiprintf_r
                0x0000000000000000       0x1c /opt/gcc-arm-none-eabi-10-2020-q4-major/bin/../lib/gcc/arm-none-eabi/10.2.1/../../../../arm-none-eabi/lib/thumb/v7e-m+dp/hard/libg.a(lib_a-fiprintf.o)
 .text          0x0000000000000000        0x0 /opt/gcc-arm-none-eabi-10-2020-q4-major/bin/../lib/gcc/arm-none-eabi/10.2.1/../../../../arm-none-eabi/lib/thumb/v7e-m+dp/hard/libg.a(lib_a-locale.o)
 .data          0x0000000000000000        0x0 /opt/gcc-arm-none-eabi-10-2020-q4-major/bin/../lib/gcc/arm-none-eabi/10.2.1/../../../../arm-none-eabi/lib/thumb/v7e-m+dp/hard/libg.a(lib_a-locale.o)
 .bss           0x0000000000000000        0x0 /opt/gcc-arm-none-eabi-10-2020-q4-major/bin/../lib/gcc/arm-none-eabi/10.2.1/../../../../arm-none-eabi/lib/thumb/v7e-m+dp/hard/libg.a(lib_a-locale.o)
 .text._setlocale_r
                0x0000000000000000       0x40 /opt/gcc-arm-none-eabi-10-2020-q4-major/bin/../lib/gcc/arm-none-eabi/10.2.1/../../../../arm-none-eabi/lib/thumb/v7e-m+dp/hard/libg.a(lib_a-locale.o)
 .text.setlocale
                0x0000000000000000       0x40 /opt/gcc-arm-none-eabi-10-2020-q4-major/bin/../lib/gcc/arm-none-eabi/10.2.1/../../../../arm-none-eabi/lib/thumb/v7e-m+dp/hard/libg.a(lib_a-locale.o)
 .bss._PathLocale
                0x0000000000000000        0x4 /opt/gcc-arm-none-eabi-10-2020-q4-major/bin/../lib/gcc/arm-none-eabi/10.2.1/../../../../arm-none-eabi/lib/thumb/v7e-m+dp/hard/libg.a(lib_a-locale.o)
 .text          0x0000000000000000        0x0 /opt/gcc-arm-none-eabi-10-2020-q4-major/bin/../lib/gcc/arm-none-eabi/10.2.1/../../../../arm-none-eabi/lib/thumb/v7e-m+dp/hard/libg.a(lib_a-lock.o)
 .data          0x0000000000000000        0x0 /opt/gcc-arm-none-eabi-10-2020-q4-major/bin/../lib/gcc/arm-none-eabi/10.2.1/../../../../arm-none-eabi/lib/thumb/v7e-m+dp/hard/libg.a(lib_a-lock.o)
 .bss           0x0000000000000000        0x0 /opt/gcc-arm-none-eabi-10-2020-q4-major/bin/../lib/gcc/arm-none-eabi/10.2.1/../../../../arm-none-eabi/lib/thumb/v7e-m+dp/hard/libg.a(lib_a-lock.o)
 .text.__retarget_lock_init
                0x0000000000000000        0x4 /opt/gcc-arm-none-eabi-10-2020-q4-major/bin/../lib/gcc/arm-none-eabi/10.2.1/../../../../arm-none-eabi/lib/thumb/v7e-m+dp/hard/libg.a(lib_a-lock.o)
 .text.__retarget_lock_close
                0x0000000000000000        0x4 /opt/gcc-arm-none-eabi-10-2020-q4-major/bin/../lib/gcc/arm-none-eabi/10.2.1/../../../../arm-none-eabi/lib/thumb/v7e-m+dp/hard/libg.a(lib_a-lock.o)
 .text.__retarget_lock_acquire
                0x0000000000000000        0x4 /opt/gcc-arm-none-eabi-10-2020-q4-major/bin/../lib/gcc/arm-none-eabi/10.2.1/../../../../arm-none-eabi/lib/thumb/v7e-m+dp/hard/libg.a(lib_a-lock.o)
 .text.__retarget_lock_try_acquire
                0x0000000000000000        0x4 /opt/gcc-arm-none-eabi-10-2020-q4-major/bin/../lib/gcc/arm-none-eabi/10.2.1/../../../../arm-none-eabi/lib/thumb/v7e-m+dp/hard/libg.a(lib_a-lock.o)
 .text.__retarget_lock_try_acquire_recursive
                0x0000000000000000        0x4 /opt/gcc-arm-none-eabi-10-2020-q4-major/bin/../lib/gcc/arm-none-eabi/10.2.1/../../../../arm-none-eabi/lib/thumb/v7e-m+dp/hard/libg.a(lib_a-lock.o)
 .text.__retarget_lock_release
                0x0000000000000000        0x4 /opt/gcc-arm-none-eabi-10-2020-q4-major/bin/../lib/gcc/arm-none-eabi/10.2.1/../../../../arm-none-eabi/lib/thumb/v7e-m+dp/hard/libg.a(lib_a-lock.o)
 .bss.__lock___arc4random_mutex
                0x0000000000000000        0x1 /opt/gcc-arm-none-eabi-10-2020-q4-major/bin/../lib/gcc/arm-none-eabi/10.2.1/../../../../arm-none-eabi/lib/thumb/v7e-m+dp/hard/libg.a(lib_a-lock.o)
 .bss.__lock___at_quick_exit_mutex
                0x0000000000000000        0x1 /opt/gcc-arm-none-eabi-10-2020-q4-major/bin/../lib/gcc/arm-none-eabi/10.2.1/../../../../arm-none-eabi/lib/thumb/v7e-m+dp/hard/libg.a(lib_a-lock.o)
 .bss.__lock___atexit_recursive_mutex
                0x0000000000000000        0x1 /opt/gcc-arm-none-eabi-10-2020-q4-major/bin/../lib/gcc/arm-none-eabi/10.2.1/../../../../arm-none-eabi/lib/thumb/v7e-m+dp/hard/libg.a(lib_a-lock.o)
 .bss.__lock___dd_hash_mutex
                0x0000000000000000        0x1 /opt/gcc-arm-none-eabi-10-2020-q4-major/bin/../lib/gcc/arm-none-eabi/10.2.1/../../../../arm-none-eabi/lib/thumb/v7e-m+dp/hard/libg.a(lib_a-lock.o)
 .bss.__lock___env_recursive_mutex
                0x0000000000000000        0x1 /opt/gcc-arm-none-eabi-10-2020-q4-major/bin/../lib/gcc/arm-none-eabi/10.2.1/../../../../arm-none-eabi/lib/thumb/v7e-m+dp/hard/libg.a(lib_a-lock.o)
 .bss.__lock___tz_mutex
                0x0000000000000000        0x1 /opt/gcc-arm-none-eabi-10-2020-q4-major/bin/../lib/gcc/arm-none-eabi/10.2.1/../../../../arm-none-eabi/lib/thumb/v7e-m+dp/hard/libg.a(lib_a-lock.o)
 .text          0x0000000000000000        0x0 /opt/gcc-arm-none-eabi-10-2020-q4-major/bin/../lib/gcc/arm-none-eabi/10.2.1/../../../../arm-none-eabi/lib/thumb/v7e-m+dp/hard/libg.a(lib_a-mbtowc_r.o)
 .data          0x0000000000000000        0x0 /opt/gcc-arm-none-eabi-10-2020-q4-major/bin/../lib/gcc/arm-none-eabi/10.2.1/../../../../arm-none-eabi/lib/thumb/v7e-m+dp/hard/libg.a(lib_a-mbtowc_r.o)
 .bss           0x0000000000000000        0x0 /opt/gcc-arm-none-eabi-10-2020-q4-major/bin/../lib/gcc/arm-none-eabi/10.2.1/../../../../arm-none-eabi/lib/thumb/v7e-m+dp/hard/libg.a(lib_a-mbtowc_r.o)
 .text._mbtowc_r
                0x0000000000000000       0x14 /opt/gcc-arm-none-eabi-10-2020-q4-major/bin/../lib/gcc/arm-none-eabi/10.2.1/../../../../arm-none-eabi/lib/thumb/v7e-m+dp/hard/libg.a(lib_a-mbtowc_r.o)
 .text          0x0000000000000000        0x0 /opt/gcc-arm-none-eabi-10-2020-q4-major/bin/../lib/gcc/arm-none-eabi/10.2.1/../../../../arm-none-eabi/lib/thumb/v7e-m+dp/hard/libg.a(lib_a-memmove.o)
 .data          0x0000000000000000        0x0 /opt/gcc-arm-none-eabi-10-2020-q4-major/bin/../lib/gcc/arm-none-eabi/10.2.1/../../../../arm-none-eabi/lib/thumb/v7e-m+dp/hard/libg.a(lib_a-memmove.o)
 .bss           0x0000000000000000        0x0 /opt/gcc-arm-none-eabi-10-2020-q4-major/bin/../lib/gcc/arm-none-eabi/10.2.1/../../../../arm-none-eabi/lib/thumb/v7e-m+dp/hard/libg.a(lib_a-memmove.o)
 .text          0x0000000000000000        0x0 /opt/gcc-arm-none-eabi-10-2020-q4-major/bin/../lib/gcc/arm-none-eabi/10.2.1/../../../../arm-none-eabi/lib/thumb/v7e-m+dp/hard/libg.a(lib_a-reallocr.o)
 .data          0x0000000000000000        0x0 /opt/gcc-arm-none-eabi-10-2020-q4-major/bin/../lib/gcc/arm-none-eabi/10.2.1/../../../../arm-none-eabi/lib/thumb/v7e-m+dp/hard/libg.a(lib_a-reallocr.o)
 .bss           0x0000000000000000        0x0 /opt/gcc-arm-none-eabi-10-2020-q4-major/bin/../lib/gcc/arm-none-eabi/10.2.1/../../../../arm-none-eabi/lib/thumb/v7e-m+dp/hard/libg.a(lib_a-reallocr.o)
 .text          0x0000000000000000      0x2dc /opt/gcc-arm-none-eabi-10-2020-q4-major/bin/../lib/gcc/arm-none-eabi/10.2.1/../../../../arm-none-eabi/lib/thumb/v7e-m+dp/hard/libg.a(lib_a-strcmp.o)
 .data          0x0000000000000000        0x0 /opt/gcc-arm-none-eabi-10-2020-q4-major/bin/../lib/gcc/arm-none-eabi/10.2.1/../../../../arm-none-eabi/lib/thumb/v7e-m+dp/hard/libg.a(lib_a-strcmp.o)
 .bss           0x0000000000000000        0x0 /opt/gcc-arm-none-eabi-10-2020-q4-major/bin/../lib/gcc/arm-none-eabi/10.2.1/../../../../arm-none-eabi/lib/thumb/v7e-m+dp/hard/libg.a(lib_a-strcmp.o)
 .debug_frame   0x0000000000000000       0x68 /opt/gcc-arm-none-eabi-10-2020-q4-major/bin/../lib/gcc/arm-none-eabi/10.2.1/../../../../arm-none-eabi/lib/thumb/v7e-m+dp/hard/libg.a(lib_a-strcmp.o)
 .ARM.attributes
                0x0000000000000000       0x1c /opt/gcc-arm-none-eabi-10-2020-q4-major/bin/../lib/gcc/arm-none-eabi/10.2.1/../../../../arm-none-eabi/lib/thumb/v7e-m+dp/hard/libg.a(lib_a-strcmp.o)
 .text          0x0000000000000000        0x0 /opt/gcc-arm-none-eabi-10-2020-q4-major/bin/../lib/gcc/arm-none-eabi/10.2.1/../../../../arm-none-eabi/lib/thumb/v7e-m+dp/hard/libg.a(lib_a-vfiprintf.o)
 .data          0x0000000000000000        0x0 /opt/gcc-arm-none-eabi-10-2020-q4-major/bin/../lib/gcc/arm-none-eabi/10.2.1/../../../../arm-none-eabi/lib/thumb/v7e-m+dp/hard/libg.a(lib_a-vfiprintf.o)
 .bss           0x0000000000000000        0x0 /opt/gcc-arm-none-eabi-10-2020-q4-major/bin/../lib/gcc/arm-none-eabi/10.2.1/../../../../arm-none-eabi/lib/thumb/v7e-m+dp/hard/libg.a(lib_a-vfiprintf.o)
 .text.__sprint_r
                0x0000000000000000       0x18 /opt/gcc-arm-none-eabi-10-2020-q4-major/bin/../lib/gcc/arm-none-eabi/10.2.1/../../../../arm-none-eabi/lib/thumb/v7e-m+dp/hard/libg.a(lib_a-vfiprintf.o)
 .text.vfiprintf
                0x0000000000000000       0x1c /opt/gcc-arm-none-eabi-10-2020-q4-major/bin/../lib/gcc/arm-none-eabi/10.2.1/../../../../arm-none-eabi/lib/thumb/v7e-m+dp/hard/libg.a(lib_a-vfiprintf.o)
 .text          0x0000000000000000        0x0 /opt/gcc-arm-none-eabi-10-2020-q4-major/bin/../lib/gcc/arm-none-eabi/10.2.1/../../../../arm-none-eabi/lib/thumb/v7e-m+dp/hard/libg.a(lib_a-wctomb_r.o)
 .data          0x0000000000000000        0x0 /opt/gcc-arm-none-eabi-10-2020-q4-major/bin/../lib/gcc/arm-none-eabi/10.2.1/../../../../arm-none-eabi/lib/thumb/v7e-m+dp/hard/libg.a(lib_a-wctomb_r.o)
 .bss           0x0000000000000000        0x0 /opt/gcc-arm-none-eabi-10-2020-q4-major/bin/../lib/gcc/arm-none-eabi/10.2.1/../../../../arm-none-eabi/lib/thumb/v7e-m+dp/hard/libg.a(lib_a-wctomb_r.o)
 .text._wctomb_r
                0x0000000000000000       0x14 /opt/gcc-arm-none-eabi-10-2020-q4-major/bin/../lib/gcc/arm-none-eabi/10.2.1/../../../../arm-none-eabi/lib/thumb/v7e-m+dp/hard/libg.a(lib_a-wctomb_r.o)
 .text          0x0000000000000000        0x0 /opt/gcc-arm-none-eabi-10-2020-q4-major/bin/../lib/gcc/arm-none-eabi/10.2.1/../../../../arm-none-eabi/lib/thumb/v7e-m+dp/hard/libg.a(lib_a-wsetup.o)
 .data          0x0000000000000000        0x0 /opt/gcc-arm-none-eabi-10-2020-q4-major/bin/../lib/gcc/arm-none-eabi/10.2.1/../../../../arm-none-eabi/lib/thumb/v7e-m+dp/hard/libg.a(lib_a-wsetup.o)
 .bss           0x0000000000000000        0x0 /opt/gcc-arm-none-eabi-10-2020-q4-major/bin/../lib/gcc/arm-none-eabi/10.2.1/../../../../arm-none-eabi/lib/thumb/v7e-m+dp/hard/libg.a(lib_a-wsetup.o)
 .text          0x0000000000000000        0x0 /opt/gcc-arm-none-eabi-10-2020-q4-major/bin/../lib/gcc/arm-none-eabi/10.2.1/../../../../arm-none-eabi/lib/thumb/v7e-m+dp/hard/libg.a(lib_a-fflush.o)
 .data          0x0000000000000000        0x0 /opt/gcc-arm-none-eabi-10-2020-q4-major/bin/../lib/gcc/arm-none-eabi/10.2.1/../../../../arm-none-eabi/lib/thumb/v7e-m+dp/hard/libg.a(lib_a-fflush.o)
 .bss           0x0000000000000000        0x0 /opt/gcc-arm-none-eabi-10-2020-q4-major/bin/../lib/gcc/arm-none-eabi/10.2.1/../../../../arm-none-eabi/lib/thumb/v7e-m+dp/hard/libg.a(lib_a-fflush.o)
 .text.fflush   0x0000000000000000       0x74 /opt/gcc-arm-none-eabi-10-2020-q4-major/bin/../lib/gcc/arm-none-eabi/10.2.1/../../../../arm-none-eabi/lib/thumb/v7e-m+dp/hard/libg.a(lib_a-fflush.o)
 .text          0x0000000000000000        0x0 /opt/gcc-arm-none-eabi-10-2020-q4-major/bin/../lib/gcc/arm-none-eabi/10.2.1/../../../../arm-none-eabi/lib/thumb/v7e-m+dp/hard/libg.a(lib_a-findfp.o)
 .data          0x0000000000000000        0x0 /opt/gcc-arm-none-eabi-10-2020-q4-major/bin/../lib/gcc/arm-none-eabi/10.2.1/../../../../arm-none-eabi/lib/thumb/v7e-m+dp/hard/libg.a(lib_a-findfp.o)
 .bss           0x0000000000000000        0x0 /opt/gcc-arm-none-eabi-10-2020-q4-major/bin/../lib/gcc/arm-none-eabi/10.2.1/../../../../arm-none-eabi/lib/thumb/v7e-m+dp/hard/libg.a(lib_a-findfp.o)
 .text.__fp_lock
                0x0000000000000000       0x1c /opt/gcc-arm-none-eabi-10-2020-q4-major/bin/../lib/gcc/arm-none-eabi/10.2.1/../../../../arm-none-eabi/lib/thumb/v7e-m+dp/hard/libg.a(lib_a-findfp.o)
 .text.__fp_unlock
                0x0000000000000000       0x1c /opt/gcc-arm-none-eabi-10-2020-q4-major/bin/../lib/gcc/arm-none-eabi/10.2.1/../../../../arm-none-eabi/lib/thumb/v7e-m+dp/hard/libg.a(lib_a-findfp.o)
 .text.__sfmoreglue
                0x0000000000000000       0x30 /opt/gcc-arm-none-eabi-10-2020-q4-major/bin/../lib/gcc/arm-none-eabi/10.2.1/../../../../arm-none-eabi/lib/thumb/v7e-m+dp/hard/libg.a(lib_a-findfp.o)
 .text._cleanup
                0x0000000000000000       0x14 /opt/gcc-arm-none-eabi-10-2020-q4-major/bin/../lib/gcc/arm-none-eabi/10.2.1/../../../../arm-none-eabi/lib/thumb/v7e-m+dp/hard/libg.a(lib_a-findfp.o)
 .text.__sfp    0x0000000000000000       0xc8 /opt/gcc-arm-none-eabi-10-2020-q4-major/bin/../lib/gcc/arm-none-eabi/10.2.1/../../../../arm-none-eabi/lib/thumb/v7e-m+dp/hard/libg.a(lib_a-findfp.o)
 .text.__sinit_lock_acquire
                0x0000000000000000        0xc /opt/gcc-arm-none-eabi-10-2020-q4-major/bin/../lib/gcc/arm-none-eabi/10.2.1/../../../../arm-none-eabi/lib/thumb/v7e-m+dp/hard/libg.a(lib_a-findfp.o)
 .text.__sinit_lock_release
                0x0000000000000000        0xc /opt/gcc-arm-none-eabi-10-2020-q4-major/bin/../lib/gcc/arm-none-eabi/10.2.1/../../../../arm-none-eabi/lib/thumb/v7e-m+dp/hard/libg.a(lib_a-findfp.o)
 .text.__fp_lock_all
                0x0000000000000000       0x24 /opt/gcc-arm-none-eabi-10-2020-q4-major/bin/../lib/gcc/arm-none-eabi/10.2.1/../../../../arm-none-eabi/lib/thumb/v7e-m+dp/hard/libg.a(lib_a-findfp.o)
 .text.__fp_unlock_all
                0x0000000000000000       0x24 /opt/gcc-arm-none-eabi-10-2020-q4-major/bin/../lib/gcc/arm-none-eabi/10.2.1/../../../../arm-none-eabi/lib/thumb/v7e-m+dp/hard/libg.a(lib_a-findfp.o)
 .text          0x0000000000000000        0x0 /opt/gcc-arm-none-eabi-10-2020-q4-major/bin/../lib/gcc/arm-none-eabi/10.2.1/../../../../arm-none-eabi/lib/thumb/v7e-m+dp/hard/libg.a(lib_a-fputwc.o)
 .data          0x0000000000000000        0x0 /opt/gcc-arm-none-eabi-10-2020-q4-major/bin/../lib/gcc/arm-none-eabi/10.2.1/../../../../arm-none-eabi/lib/thumb/v7e-m+dp/hard/libg.a(lib_a-fputwc.o)
 .bss           0x0000000000000000        0x0 /opt/gcc-arm-none-eabi-10-2020-q4-major/bin/../lib/gcc/arm-none-eabi/10.2.1/../../../../arm-none-eabi/lib/thumb/v7e-m+dp/hard/libg.a(lib_a-fputwc.o)
 .text.fputwc   0x0000000000000000       0x74 /opt/gcc-arm-none-eabi-10-2020-q4-major/bin/../lib/gcc/arm-none-eabi/10.2.1/../../../../arm-none-eabi/lib/thumb/v7e-m+dp/hard/libg.a(lib_a-fputwc.o)
 .text          0x0000000000000000        0x0 /opt/gcc-arm-none-eabi-10-2020-q4-major/bin/../lib/gcc/arm-none-eabi/10.2.1/../../../../arm-none-eabi/lib/thumb/v7e-m+dp/hard/libg.a(lib_a-fvwrite.o)
 .data          0x0000000000000000        0x0 /opt/gcc-arm-none-eabi-10-2020-q4-major/bin/../lib/gcc/arm-none-eabi/10.2.1/../../../../arm-none-eabi/lib/thumb/v7e-m+dp/hard/libg.a(lib_a-fvwrite.o)
 .bss           0x0000000000000000        0x0 /opt/gcc-arm-none-eabi-10-2020-q4-major/bin/../lib/gcc/arm-none-eabi/10.2.1/../../../../arm-none-eabi/lib/thumb/v7e-m+dp/hard/libg.a(lib_a-fvwrite.o)
 .text          0x0000000000000000        0x0 /opt/gcc-arm-none-eabi-10-2020-q4-major/bin/../lib/gcc/arm-none-eabi/10.2.1/../../../../arm-none-eabi/lib/thumb/v7e-m+dp/hard/libg.a(lib_a-fwalk.o)
 .data          0x0000000000000000        0x0 /opt/gcc-arm-none-eabi-10-2020-q4-major/bin/../lib/gcc/arm-none-eabi/10.2.1/../../../../arm-none-eabi/lib/thumb/v7e-m+dp/hard/libg.a(lib_a-fwalk.o)
 .bss           0x0000000000000000        0x0 /opt/gcc-arm-none-eabi-10-2020-q4-major/bin/../lib/gcc/arm-none-eabi/10.2.1/../../../../arm-none-eabi/lib/thumb/v7e-m+dp/hard/libg.a(lib_a-fwalk.o)
 .text._fwalk   0x0000000000000000       0x40 /opt/gcc-arm-none-eabi-10-2020-q4-major/bin/../lib/gcc/arm-none-eabi/10.2.1/../../../../arm-none-eabi/lib/thumb/v7e-m+dp/hard/libg.a(lib_a-fwalk.o)
 .text          0x0000000000000000        0x0 /opt/gcc-arm-none-eabi-10-2020-q4-major/bin/../lib/gcc/arm-none-eabi/10.2.1/../../../../arm-none-eabi/lib/thumb/v7e-m+dp/hard/libg.a(lib_a-makebuf.o)
 .data          0x0000000000000000        0x0 /opt/gcc-arm-none-eabi-10-2020-q4-major/bin/../lib/gcc/arm-none-eabi/10.2.1/../../../../arm-none-eabi/lib/thumb/v7e-m+dp/hard/libg.a(lib_a-makebuf.o)
 .bss           0x0000000000000000        0x0 /opt/gcc-arm-none-eabi-10-2020-q4-major/bin/../lib/gcc/arm-none-eabi/10.2.1/../../../../arm-none-eabi/lib/thumb/v7e-m+dp/hard/libg.a(lib_a-makebuf.o)
 .text.__swhatbuf_r
                0x0000000000000000       0x60 /opt/gcc-arm-none-eabi-10-2020-q4-major/bin/../lib/gcc/arm-none-eabi/10.2.1/../../../../arm-none-eabi/lib/thumb/v7e-m+dp/hard/libg.a(lib_a-makebuf.o)
 .text          0x0000000000000000        0x0 /opt/gcc-arm-none-eabi-10-2020-q4-major/bin/../lib/gcc/arm-none-eabi/10.2.1/../../../../arm-none-eabi/lib/thumb/v7e-m+dp/hard/libg.a(lib_a-stdio.o)
 .data          0x0000000000000000        0x0 /opt/gcc-arm-none-eabi-10-2020-q4-major/bin/../lib/gcc/arm-none-eabi/10.2.1/../../../../arm-none-eabi/lib/thumb/v7e-m+dp/hard/libg.a(lib_a-stdio.o)
 .bss           0x0000000000000000        0x0 /opt/gcc-arm-none-eabi-10-2020-q4-major/bin/../lib/gcc/arm-none-eabi/10.2.1/../../../../arm-none-eabi/lib/thumb/v7e-m+dp/hard/libg.a(lib_a-stdio.o)
 .text.__seofread
                0x0000000000000000        0x4 /opt/gcc-arm-none-eabi-10-2020-q4-major/bin/../lib/gcc/arm-none-eabi/10.2.1/../../../../arm-none-eabi/lib/thumb/v7e-m+dp/hard/libg.a(lib_a-stdio.o)
 .text          0x0000000000000000        0x0 /opt/gcc-arm-none-eabi-10-2020-q4-major/bin/../lib/gcc/arm-none-eabi/10.2.1/../../../../arm-none-eabi/lib/thumb/v7e-m+dp/hard/libg.a(lib_a-wbuf.o)
 .data          0x0000000000000000        0x0 /opt/gcc-arm-none-eabi-10-2020-q4-major/bin/../lib/gcc/arm-none-eabi/10.2.1/../../../../arm-none-eabi/lib/thumb/v7e-m+dp/hard/libg.a(lib_a-wbuf.o)
 .bss           0x0000000000000000        0x0 /opt/gcc-arm-none-eabi-10-2020-q4-major/bin/../lib/gcc/arm-none-eabi/10.2.1/../../../../arm-none-eabi/lib/thumb/v7e-m+dp/hard/libg.a(lib_a-wbuf.o)
 .text.__swbuf  0x0000000000000000       0x18 /opt/gcc-arm-none-eabi-10-2020-q4-major/bin/../lib/gcc/arm-none-eabi/10.2.1/../../../../arm-none-eabi/lib/thumb/v7e-m+dp/hard/libg.a(lib_a-wbuf.o)
 .text          0x0000000000000000        0x0 /opt/gcc-arm-none-eabi-10-2020-q4-major/bin/../lib/gcc/arm-none-eabi/10.2.1/../../../../arm-none-eabi/lib/thumb/v7e-m+dp/hard/libg.a(lib_a-wcrtomb.o)
 .data          0x0000000000000000        0x0 /opt/gcc-arm-none-eabi-10-2020-q4-major/bin/../lib/gcc/arm-none-eabi/10.2.1/../../../../arm-none-eabi/lib/thumb/v7e-m+dp/hard/libg.a(lib_a-wcrtomb.o)
 .bss           0x0000000000000000        0x0 /opt/gcc-arm-none-eabi-10-2020-q4-major/bin/../lib/gcc/arm-none-eabi/10.2.1/../../../../arm-none-eabi/lib/thumb/v7e-m+dp/hard/libg.a(lib_a-wcrtomb.o)
 .text.wcrtomb  0x0000000000000000       0x4c /opt/gcc-arm-none-eabi-10-2020-q4-major/bin/../lib/gcc/arm-none-eabi/10.2.1/../../../../arm-none-eabi/lib/thumb/v7e-m+dp/hard/libg.a(lib_a-wcrtomb.o)
 .text          0x0000000000000000        0x0 /opt/gcc-arm-none-eabi-10-2020-q4-major/bin/../lib/gcc/arm-none-eabi/10.2.1/../../../../arm-none-eabi/lib/thumb/v7e-m+dp/hard/libg.a(lib_a-fclose.o)
 .data          0x0000000000000000        0x0 /opt/gcc-arm-none-eabi-10-2020-q4-major/bin/../lib/gcc/arm-none-eabi/10.2.1/../../../../arm-none-eabi/lib/thumb/v7e-m+dp/hard/libg.a(lib_a-fclose.o)
 .bss           0x0000000000000000        0x0 /opt/gcc-arm-none-eabi-10-2020-q4-major/bin/../lib/gcc/arm-none-eabi/10.2.1/../../../../arm-none-eabi/lib/thumb/v7e-m+dp/hard/libg.a(lib_a-fclose.o)
 .text.fclose   0x0000000000000000       0x10 /opt/gcc-arm-none-eabi-10-2020-q4-major/bin/../lib/gcc/arm-none-eabi/10.2.1/../../../../arm-none-eabi/lib/thumb/v7e-m+dp/hard/libg.a(lib_a-fclose.o)

Memory Configuration

Name             Origin             Length             Attributes
flash0           0x0000000008000000 0x0000000000200000 xr
flash1           0x0000000008000000 0x0000000000100000 xr
flash2           0x0000000008100000 0x0000000000100000 xr
flash3           0x0000000000000000 0x0000000000000000 xr
flash4           0x0000000000000000 0x0000000000000000 xr
flash5           0x0000000000000000 0x0000000000000000 xr
flash6           0x0000000000000000 0x0000000000000000 xr
flash7           0x0000000000000000 0x0000000000000000 xr
ram0             0x0000000024000000 0x0000000000080000 xw
ram1             0x0000000030000000 0x0000000000040000 xw
ram2             0x0000000030000000 0x0000000000048000 xw
ram3             0x0000000030040000 0x0000000000008000 xw
ram4             0x0000000038000000 0x0000000000010000 xw
ram5             0x0000000020000000 0x0000000000020000 xw
ram6             0x0000000000000000 0x0000000000010000 xw
ram7             0x0000000038800000 0x0000000000001000 xw
*default*        0x0000000000000000 0xffffffffffffffff

Linker script and memory map

LOAD build/obj/crt0_v7m.o
LOAD build/obj/vectors.o
LOAD build/obj/chcoreasm.o
LOAD build/obj/crt1.o
LOAD /tmp/BPRL.elf.FE4VjG.ltrans0.ltrans.o
LOAD /tmp/BPRL.elf.FE4VjG.ltrans1.ltrans.o
LOAD /tmp/cc1AI8gk.debug.temp.o
LOAD /tmp/cckiIMyo.debug.temp.o
LOAD /tmp/ccbdkTrP.debug.temp.o
LOAD /tmp/ccxyCMmE.debug.temp.o
LOAD /tmp/ccUXHfmm.debug.temp.o
LOAD /tmp/cc0Cj8E8.debug.temp.o
LOAD /tmp/ccBUedUC.debug.temp.o
LOAD /tmp/cc1hHXIF.debug.temp.o
LOAD /tmp/ccjdzKfz.debug.temp.o
LOAD /tmp/ccaD9WSE.debug.temp.o
LOAD /tmp/ccn6xZbq.debug.temp.o
LOAD /tmp/ccfUCnJW.debug.temp.o
LOAD /tmp/ccW3QVqr.debug.temp.o
LOAD /tmp/ccShXzVe.debug.temp.o
LOAD /tmp/ccHtzOWh.debug.temp.o
LOAD /tmp/cc3twoij.debug.temp.o
LOAD /tmp/ccFIp4O1.debug.temp.o
LOAD /tmp/ccGfNtvL.debug.temp.o
LOAD /tmp/ccEIaXQH.debug.temp.o
LOAD /tmp/ccGhAOcz.debug.temp.o
LOAD /tmp/ccaq3SJe.debug.temp.o
LOAD /tmp/ccoABdJL.debug.temp.o
LOAD /tmp/ccVLgFnA.debug.temp.o
LOAD /tmp/ccP1kPTL.debug.temp.o
LOAD /tmp/cc8KHu6o.debug.temp.o
LOAD /tmp/ccxcVT2h.debug.temp.o
LOAD /tmp/ccWqfuMc.debug.temp.o
LOAD /tmp/ccXDelKO.debug.temp.o
LOAD /tmp/ccyDIc7b.debug.temp.o
LOAD /tmp/cczHceHh.debug.temp.o
LOAD /tmp/cc2aLvbc.debug.temp.o
LOAD /tmp/cctFC6ic.debug.temp.o
LOAD /tmp/cc5dCdeT.debug.temp.o
LOAD /tmp/ccSZMTci.debug.temp.o
LOAD /tmp/ccNe19st.debug.temp.o
LOAD /tmp/ccqlIZIv.debug.temp.o
LOAD /tmp/cc4sZw6e.debug.temp.o
LOAD /tmp/ccyZJoui.debug.temp.o
LOAD /tmp/ccBmOTdn.debug.temp.o
LOAD /tmp/cczV1lYM.debug.temp.o
LOAD /tmp/cc3RlWiY.debug.temp.o
LOAD /tmp/cc2JkTMX.debug.temp.o
LOAD /tmp/ccyzL3Rd.debug.temp.o
LOAD /tmp/cccR94mW.debug.temp.o
LOAD /tmp/ccIsE6P1.debug.temp.o
LOAD /tmp/ccqfmb2q.debug.temp.o
LOAD /tmp/cch8GVy3.debug.temp.o
LOAD /tmp/ccmBwYlf.debug.temp.o
LOAD /tmp/cc9pEMiJ.debug.temp.o
LOAD /tmp/cceUumu1.debug.temp.o
LOAD /tmp/cchSfEwN.debug.temp.o
LOAD /tmp/ccCOWBM9.debug.temp.o
LOAD /tmp/ccWjAgnr.debug.temp.o
LOAD /tmp/ccUjBBsu.debug.temp.o
LOAD /tmp/ccMZuXoC.debug.temp.o
LOAD /tmp/ccj64EJG.debug.temp.o
LOAD /tmp/ccsx88cj.debug.temp.o
LOAD /tmp/cc2Hy6rQ.debug.temp.o
LOAD /tmp/ccrx9rvd.debug.temp.o
LOAD /tmp/ccAzJlke.debug.temp.o
LOAD /tmp/ccKhrB7B.debug.temp.o
LOAD /tmp/cci7Opl1.debug.temp.o
LOAD /tmp/ccyMIKzN.debug.temp.o
LOAD /tmp/ccQy5fcL.debug.temp.o
LOAD /tmp/ccn9r2Hy.debug.temp.o
LOAD /tmp/cczvTYYv.debug.temp.o
LOAD /tmp/ccsvxdtZ.debug.temp.o
LOAD /tmp/cc1R7395.debug.temp.o
LOAD /tmp/cca2FiSo.debug.temp.o
LOAD /tmp/ccTEgzi9.debug.temp.o
LOAD /tmp/ccVtlQW8.debug.temp.o
LOAD /tmp/cckVIbWA.debug.temp.o
LOAD /tmp/ccwo63eS.debug.temp.o
LOAD /tmp/ccQl3QoJ.debug.temp.o
LOAD /tmp/ccW4cvUs.debug.temp.o
LOAD /tmp/ccrLOXrd.debug.temp.o
LOAD /tmp/ccUA5s9m.debug.temp.o
LOAD /tmp/ccTUmnEl.debug.temp.o
LOAD /tmp/ccuSxD7o.debug.temp.o
LOAD /tmp/cc4q1Zko.debug.temp.o
LOAD /tmp/cc9t8zi9.debug.temp.o
LOAD /tmp/ccBpW6ak.debug.temp.o
LOAD /tmp/cci8urcI.debug.temp.o
LOAD /tmp/ccOKxzCx.debug.temp.o
LOAD /tmp/cclfOzEx.debug.temp.o
LOAD /tmp/ccV4PTbm.debug.temp.o
LOAD build/obj/hal.o
LOAD build/obj/hal_st.o
LOAD build/obj/hal_buffered_serial.o
LOAD build/obj/hal_buffers.o
LOAD build/obj/hal_queues.o
LOAD build/obj/hal_flash.o
LOAD build/obj/hal_mmcsd.o
LOAD build/obj/hal_can.o
LOAD build/obj/hal_pal.o
LOAD build/obj/hal_sdc.o
LOAD build/obj/hal_serial.o
LOAD build/obj/hal_serial_usb.o
LOAD build/obj/hal_spi.o
LOAD build/obj/hal_usb.o
LOAD build/obj/nvic.o
LOAD build/obj/stm32_isr.o
LOAD build/obj/hal_lld.o
LOAD build/obj/stm32_bdma.o
LOAD build/obj/stm32_dma.o
LOAD build/obj/stm32_exti.o
LOAD build/obj/hal_can_lld.o
LOAD build/obj/hal_pal_lld.o
LOAD build/obj/stm32_mdma.o
LOAD build/obj/hal_usb_lld.o
LOAD build/obj/hal_sdc_lld.o
LOAD build/obj/hal_spi_lld.o
LOAD build/obj/hal_st_lld.o
LOAD build/obj/hal_serial_lld.o
LOAD build/obj/osal.o
LOAD build/obj/chsys.o
LOAD build/obj/chrfcu.o
LOAD build/obj/chdebug.o
LOAD build/obj/chtrace.o
LOAD build/obj/chvt.o
LOAD build/obj/chschd.o
LOAD build/obj/chinstances.o
LOAD build/obj/chthreads.o
LOAD build/obj/chtm.o
LOAD build/obj/chregistry.o
LOAD build/obj/chsem.o
LOAD build/obj/chmtx.o
LOAD build/obj/chcond.o
LOAD build/obj/chevents.o
LOAD build/obj/chmsg.o
LOAD build/obj/chdynamic.o
LOAD build/obj/chmboxes.o
LOAD build/obj/chmemcore.o
LOAD build/obj/chmemheaps.o
LOAD build/obj/chmempools.o
LOAD build/obj/chpipes.o
LOAD build/obj/chobjcaches.o
LOAD build/obj/chdelegates.o
LOAD build/obj/chfactory.o
LOAD build/obj/chcore.o
LOAD build/obj/chprintf.o
LOAD build/obj/chscanf.o
LOAD build/obj/memstreams.o
LOAD build/obj/nullstreams.o
LOAD build/obj/bufstreams.o
LOAD build/obj/fatfs_diskio.o
LOAD build/obj/fatfs_syscall.o
LOAD build/obj/ff.o
LOAD build/obj/ffunicode.o
LOAD build/obj/board.o
LOAD build/obj/syscalls.o
LOAD build/obj/main.o
LOAD build/obj/threads.o
LOAD build/obj/math.o
LOAD build/obj/EKF.o
LOAD build/obj/StateManager.o
LOAD build/obj/PID.o
LOAD build/obj/AttitudeController.o
LOAD build/obj/MotorMixer.o
LOAD build/obj/ICM20948.o
LOAD build/obj/ICM20602.o
LOAD build/obj/SPI.o
LOAD build/obj/CAN.o
LOAD build/obj/I2C.o
LOAD build/obj/PWM.o
LOAD build/obj/DShot.o
LOAD build/obj/Radio.o
LOAD build/obj/SBUS.o
LOAD build/obj/CRSF.o
LOAD build/obj/usb_serial.o
LOAD build/obj/Logger.o

.mstack         0x0000000020000000      0x800
                0x0000000020000000                . = ALIGN (0x8)
                0x0000000020000000                __main_stack_base__ = .
                0x0000000020000800                . = (. + __main_stack_size__)
 *fill*         0x0000000020000000      0x800 
                0x0000000020000800                . = ALIGN (0x8)
                0x0000000020000800                __main_stack_end__ = .

.pstack         0x0000000020000800      0x800
                0x0000000020000800                . = ALIGN (0x8)
                0x0000000020000800                __process_stack_base__ = .
                0x0000000020000800                __main_thread_stack_base__ = .
                0x0000000020001000                . = (. + __process_stack_size__)
 *fill*         0x0000000020000800      0x800 
                0x0000000020001000                . = ALIGN (0x8)
                0x0000000020001000                __process_stack_end__ = .
                0x0000000020001000                __main_thread_stack_end__ = .

.nocache        0x0000000030040000     0x165c
                0x0000000030040000                __nocache_base__ = .
 *(.nocache)
 .nocache       0x0000000030040000     0x1458 /tmp/BPRL.elf.FE4VjG.ltrans0.ltrans.o
 *(.nocache.*)
 *(.bss.__nocache_*)
 .bss.__nocache_sd1_buf
                0x0000000030041458      0x200 /tmp/BPRL.elf.FE4VjG.ltrans0.ltrans.o
 .bss.__nocache_sd1_wbuf
                0x0000000030041658        0x4 /tmp/BPRL.elf.FE4VjG.ltrans0.ltrans.o
                0x000000003004165c                . = ALIGN (0x4)
                0x000000003004165c                __nocache_end__ = .

.eth            0x000000003004165c        0x0
                0x000000003004165c                __eth_base__ = .
 *(.eth)
 *(.eth.*)
 *(.bss.__eth_*)
                0x000000003004165c                . = ALIGN (0x4)
                0x000000003004165c                __eth_end__ = .

.vectors        0x0000000008000000      0x2e0
                0x0000000008000000                __textvectors_base__ = LOADADDR (.vectors)
                0x0000000008000000                __vectors_base__ = .
 *(.vectors)
 .vectors       0x0000000008000000      0x2e0 build/obj/vectors.o
                0x0000000008000000                _vectors
                0x00000000080002e0                __vectors_end__ = .

.xtors          0x00000000080002e0        0x4
                0x00000000080002e0                __init_array_base__ = .
 *(SORT_BY_NAME(.init_array.*))
 *(.init_array)
 .init_array    0x00000000080002e0        0x4 /tmp/BPRL.elf.FE4VjG.ltrans1.ltrans.o
                0x00000000080002e4                __init_array_end__ = .
                0x00000000080002e4                __fini_array_base__ = .
 *(.fini_array)
 *(SORT_BY_NAME(.fini_array.*))
                0x00000000080002e4                __fini_array_end__ = .

.text           0x0000000008000300    0x11424
                0x0000000008000300                __text_base__ = .
 *(.text)
 .text          0x0000000008000300      0x11c build/obj/crt0_v7m.o
                0x0000000008000300                _crt0_entry
 .text          0x000000000800041c        0x8 build/obj/vectors.o
                0x000000000800041c                Reset_Handler
                0x000000000800041e                Vector58
                0x000000000800041e                VectorE8
                0x000000000800041e                Vector9C
                0x000000000800041e                Vector2C4
                0x000000000800041e                DebugMon_Handler
                0x000000000800041e                Vector2B0
                0x000000000800041e                Vector26C
                0x000000000800041e                Vector22C
                0x000000000800041e                Vector1A0
                0x000000000800041e                Vector2C0
                0x000000000800041e                Vector5C
                0x000000000800041e                Vector224
                0x000000000800041e                Vector11C
                0x000000000800041e                HardFault_Handler
                0x000000000800041e                Vector1B8
                0x000000000800041e                Vector1F0
                0x000000000800041e                Vector19C
                0x000000000800041e                Vector1EC
                0x000000000800041e                SysTick_Handler
                0x000000000800041e                Vector2D8
                0x000000000800041e                PendSV_Handler
                0x000000000800041e                Vector168
                0x000000000800041e                NMI_Handler
                0x000000000800041e                Vector270
                0x000000000800041e                Vector24C
                0x000000000800041e                Vector110
                0x000000000800041e                Vector274
                0x000000000800041e                Vector1D8
                0x000000000800041e                Vector1F4
                0x000000000800041e                VectorC8
                0x000000000800041e                Vector2CC
                0x000000000800041e                Vector94
                0x000000000800041e                Vector254
                0x000000000800041e                VectorA8
                0x000000000800041e                Vector244
                0x000000000800041e                Vector204
                0x000000000800041e                Vector2AC
                0x000000000800041e                VectorB4
                0x000000000800041e                Vector1FC
                0x000000000800041e                Vector160
                0x000000000800041e                Vector1B0
                0x000000000800041e                UsageFault_Handler
                0x000000000800041e                VectorEC
                0x000000000800041e                Vector234
                0x000000000800041e                Vector264
                0x000000000800041e                Vector40
                0x000000000800041e                VectorF8
                0x000000000800041e                Vector108
                0x000000000800041e                VectorBC
                0x000000000800041e                Vector1E0
                0x000000000800041e                Vector1F8
                0x000000000800041e                Vector260
                0x000000000800041e                Vector27C
                0x000000000800041e                Vector1C4
                0x000000000800041e                Vector1CC
                0x000000000800041e                Vector2A8
                0x000000000800041e                Vector1E4
                0x000000000800041e                Vector20C
                0x000000000800041e                Vector148
                0x000000000800041e                Vector188
                0x000000000800041e                Vector23C
                0x000000000800041e                Vector198
                0x000000000800041e                Vector118
                0x000000000800041e                Vector64
                0x000000000800041e                Vector54
                0x000000000800041e                Vector98
                0x000000000800041e                Vector2B8
                0x000000000800041e                Vector258
                0x000000000800041e                Vector284
                0x000000000800041e                Vector218
                0x000000000800041e                VectorD8
                0x000000000800041e                Vector138
                0x000000000800041e                Vector24
                0x000000000800041e                Vector200
                0x000000000800041e                Vector1AC
                0x000000000800041e                Vector178
                0x000000000800041e                SecureFault_Handler
                0x000000000800041e                Vector1A4
                0x000000000800041e                VectorD0
                0x000000000800041e                Vector2A0
                0x000000000800041e                Vector1B4
                0x000000000800041e                Vector28C
                0x000000000800041e                Vector140
                0x000000000800041e                VectorE4
                0x000000000800041e                VectorC0
                0x000000000800041e                Vector1C0
                0x000000000800041e                Vector214
                0x000000000800041e                Vector250
                0x000000000800041e                Vector2D0
                0x000000000800041e                Vector134
                0x000000000800041e                Vector1D0
                0x000000000800041e                Vector2DC
                0x000000000800041e                VectorF0
                0x000000000800041e                Vector210
                0x000000000800041e                Vector2BC
                0x000000000800041e                Vector13C
                0x000000000800041e                Vector280
                0x000000000800041e                Vector100
                0x000000000800041e                VectorE0
                0x000000000800041e                VectorF4
                0x000000000800041e                Vector2B4
                0x000000000800041e                Vector2C8
                0x000000000800041e                MemManage_Handler
                0x000000000800041e                Vector238
                0x000000000800041e                VectorA0
                0x000000000800041e                VectorC4
                0x000000000800041e                Vector180
                0x000000000800041e                Vector288
                0x000000000800041e                Vector208
                0x000000000800041e                Vector90
                0x000000000800041e                Vector294
                0x000000000800041e                Vector114
                0x000000000800041e                Vector164
                0x000000000800041e                Vector60
                0x000000000800041e                Vector1BC
                0x000000000800041e                Vector17C
                0x000000000800041e                Vector48
                0x000000000800041e                Vector240
                0x000000000800041e                Vector1A8
                0x000000000800041e                Vector16C
                0x000000000800041e                Vector228
                0x000000000800041e                VectorD4
                0x000000000800041e                Vector2D4
                0x000000000800041e                Vector278
                0x000000000800041e                Vector4C
                0x000000000800041e                Vector144
                0x000000000800041e                Vector68
                0x000000000800041e                Vector230
                0x000000000800041e                Vector290
                0x000000000800041e                Vector1E8
                0x000000000800041e                Vector170
                0x000000000800041e                Vector220
                0x000000000800041e                Vector298
                0x000000000800041e                Vector88
                0x000000000800041e                Vector29C
                0x000000000800041e                Vector184
                0x000000000800041e                Vector10C
                0x000000000800041e                Vector21C
                0x000000000800041e                Vector268
                0x000000000800041e                Vector14C
                0x000000000800041e                BusFault_Handler
                0x000000000800041e                Vector50
                0x000000000800041e                Vector1C8
                0x000000000800041e                Vector194
                0x000000000800041e                Vector1DC
                0x000000000800041e                Vector44
                0x000000000800041e                Vector28
                0x000000000800041e                VectorB8
                0x000000000800041e                Vector2A4
                0x000000000800041e                Vector34
                0x000000000800041e                Vector248
                0x000000000800041e                VectorA4
                0x000000000800041e                Vector25C
                0x000000000800041e                Vector20
                0x000000000800041e                Vector18C
                0x000000000800041e                Vector174
                0x0000000008000422                _unhandled_exception
 .text          0x0000000008000424       0x32 build/obj/chcoreasm.o
                0x0000000008000424                __port_switch
                0x000000000800043c                __port_thread_start
                0x000000000800044e                __port_switch_from_isr
                0x0000000008000452                __port_exit_from_isr
 *fill*         0x0000000008000456        0x2 
 .text          0x0000000008000458      0x378 /opt/gcc-arm-none-eabi-10-2020-q4-major/bin/../lib/gcc/arm-none-eabi/10.2.1/thumb/v7e-m+dp/hard/libgcc.a(_arm_addsubdf3.o)
                0x0000000008000458                __aeabi_drsub
                0x0000000008000460                __aeabi_dsub
                0x0000000008000460                __subdf3
                0x0000000008000464                __adddf3
                0x0000000008000464                __aeabi_dadd
                0x00000000080006dc                __aeabi_ui2d
                0x00000000080006dc                __floatunsidf
                0x00000000080006fc                __floatsidf
                0x00000000080006fc                __aeabi_i2d
                0x0000000008000720                __extendsfdf2
                0x0000000008000720                __aeabi_f2d
                0x0000000008000764                __aeabi_ul2d
                0x0000000008000764                __floatundidf
                0x0000000008000774                __floatdidf
                0x0000000008000774                __aeabi_l2d
 .text          0x00000000080007d0       0x30 /opt/gcc-arm-none-eabi-10-2020-q4-major/bin/../lib/gcc/arm-none-eabi/10.2.1/thumb/v7e-m+dp/hard/libgcc.a(_aeabi_uldivmod.o)
                0x00000000080007d0                __aeabi_uldivmod
 .text          0x0000000008000800      0x2d0 /opt/gcc-arm-none-eabi-10-2020-q4-major/bin/../lib/gcc/arm-none-eabi/10.2.1/thumb/v7e-m+dp/hard/libgcc.a(_udivmoddi4.o)
                0x0000000008000800                __udivmoddi4
 .text          0x0000000008000ad0      0x9d8 /opt/gcc-arm-none-eabi-10-2020-q4-major/bin/../lib/gcc/arm-none-eabi/10.2.1/thumb/v7e-m+dp/hard/libgcc.a(unwind-arm.o)
                0x0000000008000d78                _Unwind_GetCFA
                0x0000000008000d7c                __gnu_Unwind_RaiseException
                0x0000000008000de4                __gnu_Unwind_ForcedUnwind
                0x0000000008000df4                __gnu_Unwind_Resume
                0x0000000008000e38                __gnu_Unwind_Resume_or_Rethrow
                0x0000000008000e48                _Unwind_Complete
                0x0000000008000e4c                _Unwind_DeleteException
                0x0000000008000e58                _Unwind_VRS_Get
                0x0000000008000ea4                _Unwind_VRS_Set
                0x0000000008000eec                __gnu_Unwind_Backtrace
                0x0000000008001218                __aeabi_unwind_cpp_pr0
                0x000000000800121c                __aeabi_unwind_cpp_pr1
                0x0000000008001220                __aeabi_unwind_cpp_pr2
                0x0000000008001224                _Unwind_VRS_Pop
 .text          0x00000000080014a8      0x1ac /opt/gcc-arm-none-eabi-10-2020-q4-major/bin/../lib/gcc/arm-none-eabi/10.2.1/thumb/v7e-m+dp/hard/libgcc.a(libunwind.o)
                0x00000000080014a8                __restore_core_regs
                0x00000000080014a8                restore_core_regs
                0x00000000080014c0                __gnu_Unwind_Restore_VFP
                0x00000000080014c8                __gnu_Unwind_Save_VFP
                0x00000000080014d0                __gnu_Unwind_Restore_VFP_D
                0x00000000080014d8                __gnu_Unwind_Save_VFP_D
                0x00000000080014e0                __gnu_Unwind_Restore_VFP_D_16_to_31
                0x00000000080014e8                __gnu_Unwind_Save_VFP_D_16_to_31
                0x00000000080014f0                __gnu_Unwind_Restore_WMMXD
                0x0000000008001534                __gnu_Unwind_Save_WMMXD
                0x0000000008001578                __gnu_Unwind_Restore_WMMXC
                0x000000000800158c                __gnu_Unwind_Save_WMMXC
                0x00000000080015a0                ___Unwind_RaiseException
                0x00000000080015a0                _Unwind_RaiseException
                0x00000000080015c4                ___Unwind_Resume
                0x00000000080015c4                _Unwind_Resume
                0x00000000080015e8                _Unwind_Resume_or_Rethrow
                0x00000000080015e8                ___Unwind_Resume_or_Rethrow
                0x000000000800160c                ___Unwind_ForcedUnwind
                0x000000000800160c                _Unwind_ForcedUnwind
                0x0000000008001630                _Unwind_Backtrace
                0x0000000008001630                ___Unwind_Backtrace
 .text          0x0000000008001654      0x350 /opt/gcc-arm-none-eabi-10-2020-q4-major/bin/../lib/gcc/arm-none-eabi/10.2.1/thumb/v7e-m+dp/hard/libgcc.a(pr-support.o)
                0x00000000080016ac                __gnu_unwind_execute
                0x0000000008001958                __gnu_unwind_frame
                0x0000000008001984                _Unwind_GetRegionStart
                0x0000000008001990                _Unwind_GetLanguageSpecificData
 .text          0x00000000080019a4        0x4 /opt/gcc-arm-none-eabi-10-2020-q4-major/bin/../lib/gcc/arm-none-eabi/10.2.1/thumb/v7e-m+dp/hard/libgcc.a(_dvmd_tls.o)
                0x00000000080019a4                __aeabi_ldiv0
                0x00000000080019a4                __aeabi_idiv0
 .text          0x00000000080019a8      0x134 /opt/gcc-arm-none-eabi-10-2020-q4-major/bin/../lib/gcc/arm-none-eabi/10.2.1/../../../../arm-none-eabi/lib/thumb/v7e-m+dp/hard/libg.a(lib_a-memcpy.o)
                0x00000000080019a8                memcpy
 *fill*         0x0000000008001adc        0x4 
 .text          0x0000000008001ae0       0xa0 /opt/gcc-arm-none-eabi-10-2020-q4-major/bin/../lib/gcc/arm-none-eabi/10.2.1/../../../../arm-none-eabi/lib/thumb/v7e-m+dp/hard/libg.a(lib_a-memchr.o)
                0x0000000008001ae0                memchr
 .text          0x0000000008001b80       0xdc /opt/gcc-arm-none-eabi-10-2020-q4-major/bin/../lib/gcc/arm-none-eabi/10.2.1/../../../../arm-none-eabi/lib/thumb/v7e-m+dp/hard/libg.a(lib_a-strlen.o)
                0x0000000008001b80                strlen
 *(.text.*)
 *fill*         0x0000000008001c5c        0x4 
 .text._mmcsd_get_capacity
                0x0000000008001c60       0x44 /tmp/BPRL.elf.FE4VjG.ltrans0.ltrans.o
 *fill*         0x0000000008001ca4        0xc 
 .text.sdcSync  0x0000000008001cb0        0xc /tmp/BPRL.elf.FE4VjG.ltrans0.ltrans.o
 *fill*         0x0000000008001cbc        0x4 
 .text.sdcGetInfo
                0x0000000008001cc0       0x18 /tmp/BPRL.elf.FE4VjG.ltrans0.ltrans.o
 *fill*         0x0000000008001cd8        0x8 
 .text._ctl     0x0000000008001ce0        0xc /tmp/BPRL.elf.FE4VjG.ltrans0.ltrans.o
 *fill*         0x0000000008001cec        0x4 
 .text.dmaStreamAllocI
                0x0000000008001cf0      0x124 /tmp/BPRL.elf.FE4VjG.ltrans0.ltrans.o
 *fill*         0x0000000008001e14        0xc 
 .text._pal_lld_setgroupmode
                0x0000000008001e20       0xe0 /tmp/BPRL.elf.FE4VjG.ltrans0.ltrans.o
 .text.usb_lld_start_in
                0x0000000008001f00       0xac /tmp/BPRL.elf.FE4VjG.ltrans0.ltrans.o
 *fill*         0x0000000008001fac        0x4 
 .text._usb_ep0out
                0x0000000008001fb0       0x98 /tmp/BPRL.elf.FE4VjG.ltrans0.ltrans.o
 *fill*         0x0000000008002048        0x8 
 .text.sdc_lld_collect_errors
                0x0000000008002050       0x34 /tmp/BPRL.elf.FE4VjG.ltrans0.ltrans.o
 *fill*         0x0000000008002084        0xc 
 .text.notify3  0x0000000008002090       0x10 /tmp/BPRL.elf.FE4VjG.ltrans0.ltrans.o
 .text.notify6  0x00000000080020a0       0x10 /tmp/BPRL.elf.FE4VjG.ltrans0.ltrans.o
 .text.__idle_thread
                0x00000000080020b0        0x4 /tmp/BPRL.elf.FE4VjG.ltrans0.ltrans.o
 *fill*         0x00000000080020b4        0xc 
 .text.chTMStartMeasurementX
                0x00000000080020c0        0xc /tmp/BPRL.elf.FE4VjG.ltrans0.ltrans.o
 *fill*         0x00000000080020cc        0x4 
 .text.chTMStopMeasurementX
                0x00000000080020d0       0x44 /tmp/BPRL.elf.FE4VjG.ltrans0.ltrans.o
 *fill*         0x0000000008002114        0xc 
 .text.chEvtBroadcastFlagsI
                0x0000000008002120       0x58 /tmp/BPRL.elf.FE4VjG.ltrans0.ltrans.o
 *fill*         0x0000000008002178        0x8 
 .text.sd_lld_serve_interrupt
                0x0000000008002180      0x1d0 /tmp/BPRL.elf.FE4VjG.ltrans0.ltrans.o
 .text.chCoreAllocFromTop
                0x0000000008002350       0x40 /tmp/BPRL.elf.FE4VjG.ltrans0.ltrans.o
 .text.chCoreAllocAlignedI
                0x0000000008002390       0x20 /tmp/BPRL.elf.FE4VjG.ltrans0.ltrans.o
 .text.get_ldnumber
                0x00000000080023b0       0x34 /tmp/BPRL.elf.FE4VjG.ltrans0.ltrans.o
 *fill*         0x00000000080023e4        0xc 
 .text._Z20quat_to_rot_body2nedRK4QuatPA3_f
                0x00000000080023f0       0xb8 /tmp/BPRL.elf.FE4VjG.ltrans0.ltrans.o
 *fill*         0x00000000080024a8        0x8 
 .text._ZN3PID6updateEf
                0x00000000080024b0      0x138 /tmp/BPRL.elf.FE4VjG.ltrans0.ltrans.o
 *fill*         0x00000000080025e8        0x8 
 .text._ZL16switch_to_outputv
                0x00000000080025f0       0x54 /tmp/BPRL.elf.FE4VjG.ltrans0.ltrans.o
 *fill*         0x0000000008002644        0xc 
 .text.sdc_lld_is_card_inserted
                0x0000000008002650        0x4 /tmp/BPRL.elf.FE4VjG.ltrans0.ltrans.o
 *fill*         0x0000000008002654        0xc 
 .text.sdc_lld_is_write_protected
                0x0000000008002660        0x4 /tmp/BPRL.elf.FE4VjG.ltrans0.ltrans.o
 *fill*         0x0000000008002664        0xc 
 .text._Z17bprl_can_registermPFvRK10CANRxFramePvES2_.constprop.0
                0x0000000008002670       0x38 /tmp/BPRL.elf.FE4VjG.ltrans0.ltrans.o
 *fill*         0x00000000080026a8        0x8 
 .text.otg_epin_handler.constprop.0
                0x00000000080026b0      0x110 /tmp/BPRL.elf.FE4VjG.ltrans0.ltrans.o
 .text.usb_lld_start_out.constprop.0
                0x00000000080027c0       0x70 /tmp/BPRL.elf.FE4VjG.ltrans0.ltrans.o
 .text._usb_ep0in
                0x0000000008002830       0xd4 /tmp/BPRL.elf.FE4VjG.ltrans0.ltrans.o
 *fill*         0x0000000008002904        0xc 
 .text.otg_epout_handler.constprop.0
                0x0000000008002910       0x9c /tmp/BPRL.elf.FE4VjG.ltrans0.ltrans.o
 *fill*         0x00000000080029ac        0x4 
 .text.sdcStop.constprop.0
                0x00000000080029b0       0x5c /tmp/BPRL.elf.FE4VjG.ltrans0.ltrans.o
 *fill*         0x0000000008002a0c        0x4 
 .text.vt_insert_first.constprop.0
                0x0000000008002a10       0x60 /tmp/BPRL.elf.FE4VjG.ltrans0.ltrans.o
 .text._ZN6Logger10ring_writeEPKvj.constprop.0
                0x0000000008002a70       0x88 /tmp/BPRL.elf.FE4VjG.ltrans0.ltrans.o
 *fill*         0x0000000008002af8        0x8 
 .text._usb_ep0setup
                0x0000000008002b00      0x3c8 /tmp/BPRL.elf.FE4VjG.ltrans0.ltrans.o
 *fill*         0x0000000008002ec8        0x8 
 .text.__port_irq_epilogue.part.0
                0x0000000008002ed0       0x48 /tmp/BPRL.elf.FE4VjG.ltrans0.ltrans.o
 *fill*         0x0000000008002f18        0x8 
 .text._ZN3EKF7_updateEiPA16_KfPS0_S3_
                0x0000000008002f20      0x450 /tmp/BPRL.elf.FE4VjG.ltrans0.ltrans.o
 .text._ZL12dshot_dma_tcPvm
                0x0000000008003370       0x5c /tmp/BPRL.elf.FE4VjG.ltrans0.ltrans.o
 *fill*         0x00000000080033cc        0x4 
 .text.dir_sdi.constprop.0
                0x00000000080033d0       0x70 /tmp/BPRL.elf.FE4VjG.ltrans0.ltrans.o
 .text._ZN3EKF15_normalize_quatEv
                0x0000000008003440       0xa0 /tmp/BPRL.elf.FE4VjG.ltrans0.ltrans.o
 .text._Z13quat_to_eulerRK4QuatRfS2_S2_
                0x00000000080034e0       0xac /tmp/BPRL.elf.FE4VjG.ltrans0.ltrans.o
 *fill*         0x000000000800358c        0x4 
 .text.__cpu_init
                0x0000000008003590       0x80 /tmp/BPRL.elf.FE4VjG.ltrans0.ltrans.o
                0x0000000008003590                __cpu_init
 .text.__early_init
                0x0000000008003610        0x4 /tmp/BPRL.elf.FE4VjG.ltrans0.ltrans.o
                0x0000000008003610                __early_init
 *fill*         0x0000000008003614        0xc 
 .text.__late_init
                0x0000000008003620        0x4 /tmp/BPRL.elf.FE4VjG.ltrans0.ltrans.o
                0x0000000008003620                __late_init
 *fill*         0x0000000008003624        0xc 
 .text.__default_exit
                0x0000000008003630        0x4 /tmp/BPRL.elf.FE4VjG.ltrans0.ltrans.o
                0x0000000008003630                __default_exit
 *fill*         0x0000000008003634        0xc 
 .text.__init_ram_areas
                0x0000000008003640       0xc8 /tmp/BPRL.elf.FE4VjG.ltrans0.ltrans.o
                0x0000000008003640                __init_ram_areas
 *fill*         0x0000000008003708        0x8 
 .text.spiSelect
                0x0000000008003710       0x1c /tmp/BPRL.elf.FE4VjG.ltrans0.ltrans.o
                0x0000000008003710                spiSelect
 *fill*         0x000000000800372c        0x4 
 .text.spiUnselect
                0x0000000008003730       0x1c /tmp/BPRL.elf.FE4VjG.ltrans0.ltrans.o
                0x0000000008003730                spiUnselect
 *fill*         0x000000000800374c        0x4 
 .text.spi_lld_start
                0x0000000008003750      0x1bc /tmp/BPRL.elf.FE4VjG.ltrans0.ltrans.o
                0x0000000008003750                spi_lld_start
 *fill*         0x000000000800390c        0x4 
 .text.SVC_Handler
                0x0000000008003910       0x20 /tmp/BPRL.elf.FE4VjG.ltrans0.ltrans.o
                0x0000000008003910                SVC_Handler
 .text.disk_write
                0x0000000008003930       0x44 /tmp/BPRL.elf.FE4VjG.ltrans0.ltrans.o
                0x0000000008003930                disk_write
 *fill*         0x0000000008003974        0xc 
 .text.sync_window.part.0.lto_priv.0
                0x0000000008003980       0x64 /tmp/BPRL.elf.FE4VjG.ltrans0.ltrans.o
                0x0000000008003980                sync_window.part.0.lto_priv.0
 *fill*         0x00000000080039e4        0xc 
 .text.dir_clear
                0x00000000080039f0       0xa4 /tmp/BPRL.elf.FE4VjG.ltrans0.ltrans.o
 *fill*         0x0000000008003a94        0xc 
 .text.dir_next
                0x0000000008003aa0       0xc4 /tmp/BPRL.elf.FE4VjG.ltrans0.ltrans.o
 *fill*         0x0000000008003b64        0xc 
 .text.move_window.part.0.lto_priv.0
                0x0000000008003b70       0x60 /tmp/BPRL.elf.FE4VjG.ltrans0.ltrans.o
                0x0000000008003b70                move_window.part.0.lto_priv.0
 .text.dir_register
                0x0000000008003bd0       0x80 /tmp/BPRL.elf.FE4VjG.ltrans0.ltrans.o
 .text.follow_path
                0x0000000008003c50      0x1dc /tmp/BPRL.elf.FE4VjG.ltrans0.ltrans.o
 *fill*         0x0000000008003e2c        0x4 
 .text.check_fs
                0x0000000008003e30       0xd8 /tmp/BPRL.elf.FE4VjG.ltrans0.ltrans.o
 *fill*         0x0000000008003f08        0x8 
 .text.mount_volume
                0x0000000008003f10      0x284 /tmp/BPRL.elf.FE4VjG.ltrans0.ltrans.o
 *fill*         0x0000000008004194        0xc 
 .text.put_fat.part.0.lto_priv.0
                0x00000000080041a0      0x134 /tmp/BPRL.elf.FE4VjG.ltrans0.ltrans.o
                0x00000000080041a0                put_fat.part.0.lto_priv.0
 *fill*         0x00000000080042d4        0xc 
 .text._read_r  0x00000000080042e0        0xc /tmp/BPRL.elf.FE4VjG.ltrans0.ltrans.o
                0x00000000080042e0                _read_r
 *fill*         0x00000000080042ec        0x4 
 .text._lseek_r
                0x00000000080042f0        0x4 /tmp/BPRL.elf.FE4VjG.ltrans0.ltrans.o
                0x00000000080042f0                _lseek_r
 *fill*         0x00000000080042f4        0xc 
 .text._write_r
                0x0000000008004300        0x4 /tmp/BPRL.elf.FE4VjG.ltrans0.ltrans.o
                0x0000000008004300                _write_r
 *fill*         0x0000000008004304        0xc 
 .text._close_r
                0x0000000008004310        0x4 /tmp/BPRL.elf.FE4VjG.ltrans0.ltrans.o
                0x0000000008004310                _close_r
 *fill*         0x0000000008004314        0xc 
 .text._sbrk_r  0x0000000008004320       0x44 /tmp/BPRL.elf.FE4VjG.ltrans0.ltrans.o
                0x0000000008004320                _sbrk_r
 *fill*         0x0000000008004364        0xc 
 .text._fstat_r
                0x0000000008004370       0x1c /tmp/BPRL.elf.FE4VjG.ltrans0.ltrans.o
                0x0000000008004370                _fstat_r
 *fill*         0x000000000800438c        0x4 
 .text._isatty_r
                0x0000000008004390        0x4 /tmp/BPRL.elf.FE4VjG.ltrans0.ltrans.o
                0x0000000008004390                _isatty_r
 *fill*         0x0000000008004394        0xc 
 .text._getpid  0x00000000080043a0        0x4 /tmp/BPRL.elf.FE4VjG.ltrans0.ltrans.o
                0x00000000080043a0                _getpid
 *fill*         0x00000000080043a4        0xc 
 .text.trace_next.constprop.0
                0x00000000080043b0       0x3c /tmp/BPRL.elf.FE4VjG.ltrans0.ltrans.o
                0x00000000080043b0                trace_next.constprop.0
 *fill*         0x00000000080043ec        0x4 
 .text.Vector104
                0x00000000080043f0       0xa0 /tmp/BPRL.elf.FE4VjG.ltrans0.ltrans.o
                0x00000000080043f0                Vector104
 .text.VectorDC
                0x0000000008004490       0x84 /tmp/BPRL.elf.FE4VjG.ltrans0.ltrans.o
                0x0000000008004490                VectorDC
 *fill*         0x0000000008004514        0xc 
 .text.Vector15C
                0x0000000008004520       0x84 /tmp/BPRL.elf.FE4VjG.ltrans0.ltrans.o
                0x0000000008004520                Vector15C
 *fill*         0x00000000080045a4        0xc 
 .text.VectorB0
                0x00000000080045b0      0x194 /tmp/BPRL.elf.FE4VjG.ltrans0.ltrans.o
                0x00000000080045b0                VectorB0
 *fill*         0x0000000008004744        0xc 
 .text.Vector6C
                0x0000000008004750       0x98 /tmp/BPRL.elf.FE4VjG.ltrans0.ltrans.o
                0x0000000008004750                Vector6C
 *fill*         0x00000000080047e8        0x8 
 .text.Vector70
                0x00000000080047f0       0x9c /tmp/BPRL.elf.FE4VjG.ltrans0.ltrans.o
                0x00000000080047f0                Vector70
 *fill*         0x000000000800488c        0x4 
 .text.Vector74
                0x0000000008004890       0x9c /tmp/BPRL.elf.FE4VjG.ltrans0.ltrans.o
                0x0000000008004890                Vector74
 *fill*         0x000000000800492c        0x4 
 .text.Vector78
                0x0000000008004930       0x9c /tmp/BPRL.elf.FE4VjG.ltrans0.ltrans.o
                0x0000000008004930                Vector78
 *fill*         0x00000000080049cc        0x4 
 .text.Vector7C
                0x00000000080049d0       0x98 /tmp/BPRL.elf.FE4VjG.ltrans0.ltrans.o
                0x00000000080049d0                Vector7C
 *fill*         0x0000000008004a68        0x8 
 .text.Vector80
                0x0000000008004a70       0x9c /tmp/BPRL.elf.FE4VjG.ltrans0.ltrans.o
                0x0000000008004a70                Vector80
 *fill*         0x0000000008004b0c        0x4 
 .text.Vector84
                0x0000000008004b10       0x9c /tmp/BPRL.elf.FE4VjG.ltrans0.ltrans.o
                0x0000000008004b10                Vector84
 *fill*         0x0000000008004bac        0x4 
 .text.VectorFC
                0x0000000008004bb0       0x9c /tmp/BPRL.elf.FE4VjG.ltrans0.ltrans.o
                0x0000000008004bb0                VectorFC
 *fill*         0x0000000008004c4c        0x4 
 .text.Vector120
                0x0000000008004c50       0x98 /tmp/BPRL.elf.FE4VjG.ltrans0.ltrans.o
                0x0000000008004c50                Vector120
 *fill*         0x0000000008004ce8        0x8 
 .text.Vector124
                0x0000000008004cf0       0x9c /tmp/BPRL.elf.FE4VjG.ltrans0.ltrans.o
                0x0000000008004cf0                Vector124
 *fill*         0x0000000008004d8c        0x4 
 .text.Vector128
                0x0000000008004d90       0x9c /tmp/BPRL.elf.FE4VjG.ltrans0.ltrans.o
                0x0000000008004d90                Vector128
 *fill*         0x0000000008004e2c        0x4 
 .text.Vector12C
                0x0000000008004e30       0x9c /tmp/BPRL.elf.FE4VjG.ltrans0.ltrans.o
                0x0000000008004e30                Vector12C
 *fill*         0x0000000008004ecc        0x4 
 .text.Vector130
                0x0000000008004ed0       0x98 /tmp/BPRL.elf.FE4VjG.ltrans0.ltrans.o
                0x0000000008004ed0                Vector130
 *fill*         0x0000000008004f68        0x8 
 .text.Vector150
                0x0000000008004f70       0x9c /tmp/BPRL.elf.FE4VjG.ltrans0.ltrans.o
                0x0000000008004f70                Vector150
 *fill*         0x000000000800500c        0x4 
 .text.Vector154
                0x0000000008005010       0x9c /tmp/BPRL.elf.FE4VjG.ltrans0.ltrans.o
                0x0000000008005010                Vector154
 *fill*         0x00000000080050ac        0x4 
 .text.Vector158
                0x00000000080050b0       0x9c /tmp/BPRL.elf.FE4VjG.ltrans0.ltrans.o
                0x00000000080050b0                Vector158
 *fill*         0x000000000800514c        0x4 
 .text.Vector1D4
                0x0000000008005150      0x560 /tmp/BPRL.elf.FE4VjG.ltrans0.ltrans.o
                0x0000000008005150                Vector1D4
 .text.VectorCC
                0x00000000080056b0       0x94 /tmp/BPRL.elf.FE4VjG.ltrans0.ltrans.o
                0x00000000080056b0                VectorCC
 *fill*         0x0000000008005744        0xc 
 .text.Vector190
                0x0000000008005750       0x94 /tmp/BPRL.elf.FE4VjG.ltrans0.ltrans.o
                0x0000000008005750                Vector190
 *fill*         0x00000000080057e4        0xc 
 .text.chSysHalt
                0x00000000080057f0       0x34 /tmp/BPRL.elf.FE4VjG.ltrans0.ltrans.o
 *fill*         0x0000000008005824        0xc 
 .text.spi_lld_serve_dma_rx_interrupt
                0x0000000008005830       0xd0 /tmp/BPRL.elf.FE4VjG.ltrans0.ltrans.o
 .text.spi_lld_serve_dma_tx_interrupt
                0x0000000008005900       0x14 /tmp/BPRL.elf.FE4VjG.ltrans0.ltrans.o
 *fill*         0x0000000008005914        0xc 
 .text._exit    0x0000000008005920        0xc /tmp/BPRL.elf.FE4VjG.ltrans0.ltrans.o
                0x0000000008005920                _exit
 *fill*         0x000000000800592c        0x4 
 .text._kill    0x0000000008005930        0xc /tmp/BPRL.elf.FE4VjG.ltrans0.ltrans.o
                0x0000000008005930                _kill
 *fill*         0x000000000800593c        0x4 
 .text.__sch_ready_ahead.lto_priv.0
                0x0000000008005940       0x50 /tmp/BPRL.elf.FE4VjG.ltrans0.ltrans.o
                0x0000000008005940                __sch_ready_ahead.lto_priv.0
 .text.__sch_reschedule_ahead
                0x0000000008005990       0x5c /tmp/BPRL.elf.FE4VjG.ltrans0.ltrans.o
                0x0000000008005990                chSchDoPreemption
 *fill*         0x00000000080059ec        0x4 
 .text.chMtxUnlock
                0x00000000080059f0       0x70 /tmp/BPRL.elf.FE4VjG.ltrans0.ltrans.o
                0x00000000080059f0                chMtxUnlock
 .text.__sch_wakeup
                0x0000000008005a60       0x94 /tmp/BPRL.elf.FE4VjG.ltrans0.ltrans.o
 *fill*         0x0000000008005af4        0xc 
 .text.chSchGoSleepS
                0x0000000008005b00       0x58 /tmp/BPRL.elf.FE4VjG.ltrans0.ltrans.o
 *fill*         0x0000000008005b58        0x8 
 .text.chSchGoSleepTimeoutS
                0x0000000008005b60      0x164 /tmp/BPRL.elf.FE4VjG.ltrans0.ltrans.o
 *fill*         0x0000000008005cc4        0xc 
 .text.iqReadTimeout
                0x0000000008005cd0       0xf4 /tmp/BPRL.elf.FE4VjG.ltrans0.ltrans.o
 *fill*         0x0000000008005dc4        0xc 
 .text._read    0x0000000008005dd0        0xc /tmp/BPRL.elf.FE4VjG.ltrans0.ltrans.o
 *fill*         0x0000000008005ddc        0x4 
 .text._readt   0x0000000008005de0        0x8 /tmp/BPRL.elf.FE4VjG.ltrans0.ltrans.o
 *fill*         0x0000000008005de8        0x8 
 .text.iqGetTimeout
                0x0000000008005df0       0x6c /tmp/BPRL.elf.FE4VjG.ltrans0.ltrans.o
 *fill*         0x0000000008005e5c        0x4 
 .text._get     0x0000000008005e60        0xc /tmp/BPRL.elf.FE4VjG.ltrans0.ltrans.o
 *fill*         0x0000000008005e6c        0x4 
 .text._gett    0x0000000008005e70        0x8 /tmp/BPRL.elf.FE4VjG.ltrans0.ltrans.o
 *fill*         0x0000000008005e78        0x8 
 .text.oqPutTimeout
                0x0000000008005e80       0x78 /tmp/BPRL.elf.FE4VjG.ltrans0.ltrans.o
 *fill*         0x0000000008005ef8        0x8 
 .text._put     0x0000000008005f00        0xc /tmp/BPRL.elf.FE4VjG.ltrans0.ltrans.o
 *fill*         0x0000000008005f0c        0x4 
 .text._putt    0x0000000008005f10        0x8 /tmp/BPRL.elf.FE4VjG.ltrans0.ltrans.o
 *fill*         0x0000000008005f18        0x8 
 .text.oqWriteTimeout
                0x0000000008005f20       0xf4 /tmp/BPRL.elf.FE4VjG.ltrans0.ltrans.o
 *fill*         0x0000000008006014        0xc 
 .text._write   0x0000000008006020        0xc /tmp/BPRL.elf.FE4VjG.ltrans0.ltrans.o
 *fill*         0x000000000800602c        0x4 
 .text._writet  0x0000000008006030        0x8 /tmp/BPRL.elf.FE4VjG.ltrans0.ltrans.o
 *fill*         0x0000000008006038        0x8 
 .text.chThdSleep
                0x0000000008006040       0x18 /tmp/BPRL.elf.FE4VjG.ltrans0.ltrans.o
                0x0000000008006040                chThdSleep
 *fill*         0x0000000008006058        0x8 
 .text._sdc_wait_for_transfer_state
                0x0000000008006060       0x6c /tmp/BPRL.elf.FE4VjG.ltrans0.ltrans.o
 *fill*         0x00000000080060cc        0x4 
 .text.sdcDisconnect
                0x00000000080060d0       0x3c /tmp/BPRL.elf.FE4VjG.ltrans0.ltrans.o
 *fill*         0x000000000800610c        0x4 
 .text.startup.main
                0x0000000008006110      0xbd0 /tmp/BPRL.elf.FE4VjG.ltrans0.ltrans.o
                0x0000000008006110                main
 .text._ZL9CANThreadPv
                0x0000000008006ce0      0x184 /tmp/BPRL.elf.FE4VjG.ltrans0.ltrans.o
 *fill*         0x0000000008006e64        0xc 
 .text._ZL9I2CThreadPv
                0x0000000008006e70       0x48 /tmp/BPRL.elf.FE4VjG.ltrans0.ltrans.o
 *fill*         0x0000000008006eb8        0x8 
 .text._ZL15HeartbeatThreadPv
                0x0000000008006ec0       0x58 /tmp/BPRL.elf.FE4VjG.ltrans0.ltrans.o
 *fill*         0x0000000008006f18        0x8 
 .text.sdc_lld_wait_transaction_end
                0x0000000008006f20       0x84 /tmp/BPRL.elf.FE4VjG.ltrans0.ltrans.o
 *fill*         0x0000000008006fa4        0xc 
 .text.sdc_lld_read_special
                0x0000000008006fb0       0xb4 /tmp/BPRL.elf.FE4VjG.ltrans0.ltrans.o
 *fill*         0x0000000008007064        0xc 
 .text.sdcConnect
                0x0000000008007070      0x4e8 /tmp/BPRL.elf.FE4VjG.ltrans0.ltrans.o
 *fill*         0x0000000008007558        0x8 
 .text.sdc_lld_read_aligned
                0x0000000008007560      0x17c /tmp/BPRL.elf.FE4VjG.ltrans0.ltrans.o
 *fill*         0x00000000080076dc        0x4 
 .text.sdcRead  0x00000000080076e0       0x78 /tmp/BPRL.elf.FE4VjG.ltrans0.ltrans.o
 *fill*         0x0000000008007758        0x8 
 .text.sdc_lld_write_aligned
                0x0000000008007760      0x17c /tmp/BPRL.elf.FE4VjG.ltrans0.ltrans.o
 *fill*         0x00000000080078dc        0x4 
 .text.sdcWrite
                0x00000000080078e0       0x70 /tmp/BPRL.elf.FE4VjG.ltrans0.ltrans.o
 .text.spiExchange
                0x0000000008007950       0x84 /tmp/BPRL.elf.FE4VjG.ltrans0.ltrans.o
                0x0000000008007950                spiExchange
 *fill*         0x00000000080079d4        0xc 
 .text.chThdExit
                0x00000000080079e0       0x58 /tmp/BPRL.elf.FE4VjG.ltrans0.ltrans.o
                0x00000000080079e0                chThdExit
 *fill*         0x0000000008007a38        0x8 
 .text.chMtxLock
                0x0000000008007a40       0xd4 /tmp/BPRL.elf.FE4VjG.ltrans0.ltrans.o
                0x0000000008007a40                chMtxLock
 *fill*         0x0000000008007b14        0xc 
 .text._ZL14StateEstThreadPv
                0x0000000008007b20     0x1278 /tmp/BPRL.elf.FE4VjG.ltrans0.ltrans.o
 *fill*         0x0000000008008d98        0x8 
 .text._ZL13ControlThreadPv
                0x0000000008008da0      0x414 /tmp/BPRL.elf.FE4VjG.ltrans0.ltrans.o
 *fill*         0x00000000080091b4        0xc 
 .text._ZL11RadioThreadPv
                0x00000000080091c0      0x280 /tmp/BPRL.elf.FE4VjG.ltrans0.ltrans.o
 .text._ZL9LogThreadPv
                0x0000000008009440      0xb40 /tmp/BPRL.elf.FE4VjG.ltrans0.ltrans.o
 .text._ZL11imx5_can_cbRK10CANRxFramePv
                0x0000000008009f80      0x154 /tmp/BPRL.elf.FE4VjG.ltrans0.ltrans.o
 *fill*         0x000000000800a0d4        0xc 
 .text.VectorAC
                0x000000000800a0e0      0x2c0 /tmp/BPRL.elf.FE4VjG.ltrans0.ltrans.o
                0x000000000800a0e0                VectorAC
 .text.spiSend.constprop.0
                0x000000000800a3a0       0x88 /tmp/BPRL.elf.FE4VjG.ltrans0.ltrans.o
 *fill*         0x000000000800a428        0x8 
 .text._ZN8ICM209488set_bankEh
                0x000000000800a430       0xa0 /tmp/BPRL.elf.FE4VjG.ltrans0.ltrans.o
                0x000000000800a430                ICM20948::set_bank(unsigned char)
 .text._ZN8ICM209484readEPfS0_.part.0
                0x000000000800a4d0      0x164 /tmp/BPRL.elf.FE4VjG.ltrans0.ltrans.o
 *fill*         0x000000000800a634        0xc 
 .text._ZN8ICM209489reg_writeEhh
                0x000000000800a640       0x6c /tmp/BPRL.elf.FE4VjG.ltrans0.ltrans.o
                0x000000000800a640                ICM20948::reg_write(unsigned char, unsigned char)
 *fill*         0x000000000800a6ac        0x4 
 .text._ZN8ICM206029reg_writeEhh.constprop.0
                0x000000000800a6b0       0x70 /tmp/BPRL.elf.FE4VjG.ltrans0.ltrans.o
 .text._ZL9SPIThreadPv
                0x000000000800a720      0x388 /tmp/BPRL.elf.FE4VjG.ltrans0.ltrans.o
 *fill*         0x000000000800aaa8        0x8 
 .text.chThdDequeueAllI.constprop.0
                0x000000000800aab0       0x64 /tmp/BPRL.elf.FE4VjG.ltrans0.ltrans.o
 *fill*         0x000000000800ab14        0xc 
 .text.Vector8C
                0x000000000800ab20      0x12c /tmp/BPRL.elf.FE4VjG.ltrans0.ltrans.o
                0x000000000800ab20                Vector8C
 *fill*         0x000000000800ac4c        0x4 
 .text._ZN8ICM209484initEP14hal_spi_driverPK14hal_spi_configS4_.isra.0
                0x000000000800ac50      0x114 /tmp/BPRL.elf.FE4VjG.ltrans1.ltrans.o
                0x000000000800ac50                ICM20948::init(hal_spi_driver*, hal_spi_config const*, hal_spi_config const*) [clone .isra.0]
 *fill*         0x000000000800ad64        0xc 
 .text.get_fat.isra.0
                0x000000000800ad70       0xc0 /tmp/BPRL.elf.FE4VjG.ltrans1.ltrans.o
                0x000000000800ad70                get_fat.isra.0
 .text.remove_chain.constprop.0.isra.0
                0x000000000800ae30       0x6c /tmp/BPRL.elf.FE4VjG.ltrans1.ltrans.o
                0x000000000800ae30                remove_chain.constprop.0.isra.0
 *fill*         0x000000000800ae9c        0x4 
 .text.create_chain.isra.0
                0x000000000800aea0      0x100 /tmp/BPRL.elf.FE4VjG.ltrans1.ltrans.o
                0x000000000800aea0                create_chain.isra.0
 .text.sync_fs.isra.0
                0x000000000800afa0       0xb0 /tmp/BPRL.elf.FE4VjG.ltrans1.ltrans.o
                0x000000000800afa0                sync_fs.isra.0
 .text.__sch_ready_behind.isra.0
                0x000000000800b050       0x4c /tmp/BPRL.elf.FE4VjG.ltrans1.ltrans.o
                0x000000000800b050                __sch_ready_behind.isra.0
 *fill*         0x000000000800b09c        0x4 
 .text.chThdCreateStatic.isra.0
                0x000000000800b0a0       0xc0 /tmp/BPRL.elf.FE4VjG.ltrans1.ltrans.o
                0x000000000800b0a0                chThdCreateStatic.isra.0
 .text.otg_disable_ep.isra.0
                0x000000000800b160       0x58 /tmp/BPRL.elf.FE4VjG.ltrans1.ltrans.o
                0x000000000800b160                otg_disable_ep.isra.0
 *fill*         0x000000000800b1b8        0x8 
 .text.startup._sub_I_65535_0.0
                0x000000000800b1c0      0x1e0 /tmp/BPRL.elf.FE4VjG.ltrans1.ltrans.o
 .text.cosf     0x000000000800b3a0      0x1bc /opt/gcc-arm-none-eabi-10-2020-q4-major/bin/../lib/gcc/arm-none-eabi/10.2.1/../../../../arm-none-eabi/lib/thumb/v7e-m+dp/hard/libm.a(lib_a-cosf.o)
                0x000000000800b3a0                cosf
 .text.with_errnof
                0x000000000800b55c       0x18 /opt/gcc-arm-none-eabi-10-2020-q4-major/bin/../lib/gcc/arm-none-eabi/10.2.1/../../../../arm-none-eabi/lib/thumb/v7e-m+dp/hard/libm.a(lib_a-math_errf.o)
 .text.__math_invalidf
                0x000000000800b574       0x20 /opt/gcc-arm-none-eabi-10-2020-q4-major/bin/../lib/gcc/arm-none-eabi/10.2.1/../../../../arm-none-eabi/lib/thumb/v7e-m+dp/hard/libm.a(lib_a-math_errf.o)
                0x000000000800b574                __math_invalidf
 .text.asinf    0x000000000800b594       0x68 /opt/gcc-arm-none-eabi-10-2020-q4-major/bin/../lib/gcc/arm-none-eabi/10.2.1/../../../../arm-none-eabi/lib/thumb/v7e-m+dp/hard/libm.a(lib_a-wf_asin.o)
                0x000000000800b594                asinf
 .text.atan2f   0x000000000800b5fc        0x4 /opt/gcc-arm-none-eabi-10-2020-q4-major/bin/../lib/gcc/arm-none-eabi/10.2.1/../../../../arm-none-eabi/lib/thumb/v7e-m+dp/hard/libm.a(lib_a-wf_atan2.o)
                0x000000000800b5fc                atan2f
 .text.sqrtf    0x000000000800b600       0x50 /opt/gcc-arm-none-eabi-10-2020-q4-major/bin/../lib/gcc/arm-none-eabi/10.2.1/../../../../arm-none-eabi/lib/thumb/v7e-m+dp/hard/libm.a(lib_a-wf_sqrt.o)
                0x000000000800b600                sqrtf
 .text.__ieee754_asinf
                0x000000000800b650      0x20c /opt/gcc-arm-none-eabi-10-2020-q4-major/bin/../lib/gcc/arm-none-eabi/10.2.1/../../../../arm-none-eabi/lib/thumb/v7e-m+dp/hard/libm.a(lib_a-ef_asin.o)
                0x000000000800b650                __ieee754_asinf
 .text.__ieee754_atan2f
                0x000000000800b85c      0x14c /opt/gcc-arm-none-eabi-10-2020-q4-major/bin/../lib/gcc/arm-none-eabi/10.2.1/../../../../arm-none-eabi/lib/thumb/v7e-m+dp/hard/libm.a(lib_a-ef_atan2.o)
                0x000000000800b85c                __ieee754_atan2f
 .text.__ieee754_sqrtf
                0x000000000800b9a8        0x8 /opt/gcc-arm-none-eabi-10-2020-q4-major/bin/../lib/gcc/arm-none-eabi/10.2.1/../../../../arm-none-eabi/lib/thumb/v7e-m+dp/hard/libm.a(lib_a-ef_sqrt.o)
                0x000000000800b9a8                __ieee754_sqrtf
 .text.atanf    0x000000000800b9b0      0x1b0 /opt/gcc-arm-none-eabi-10-2020-q4-major/bin/../lib/gcc/arm-none-eabi/10.2.1/../../../../arm-none-eabi/lib/thumb/v7e-m+dp/hard/libm.a(lib_a-sf_atan.o)
                0x000000000800b9b0                atanf
 .text.fabsf    0x000000000800bb60       0x10 /opt/gcc-arm-none-eabi-10-2020-q4-major/bin/../lib/gcc/arm-none-eabi/10.2.1/../../../../arm-none-eabi/lib/thumb/v7e-m+dp/hard/libm.a(lib_a-sf_fabs.o)
                0x000000000800bb60                fabsf
 .text.nanf     0x000000000800bb70        0xc /opt/gcc-arm-none-eabi-10-2020-q4-major/bin/../lib/gcc/arm-none-eabi/10.2.1/../../../../arm-none-eabi/lib/thumb/v7e-m+dp/hard/libm.a(lib_a-sf_nan.o)
                0x000000000800bb70                nanf
 .text.__errno  0x000000000800bb7c        0xc /opt/gcc-arm-none-eabi-10-2020-q4-major/bin/../lib/gcc/arm-none-eabi/10.2.1/../../../../arm-none-eabi/lib/thumb/v7e-m+dp/hard/libg.a(lib_a-errno.o)
                0x000000000800bb7c                __errno
 .text.abort    0x000000000800bb88       0x10 /opt/gcc-arm-none-eabi-10-2020-q4-major/bin/../lib/gcc/arm-none-eabi/10.2.1/../../../../arm-none-eabi/lib/thumb/v7e-m+dp/hard/libg.a(lib_a-abort.o)
                0x000000000800bb88                abort
 .text.memcmp   0x000000000800bb98       0x64 /opt/gcc-arm-none-eabi-10-2020-q4-major/bin/../lib/gcc/arm-none-eabi/10.2.1/../../../../arm-none-eabi/lib/thumb/v7e-m+dp/hard/libg.a(lib_a-memcmp.o)
                0x000000000800bb98                memcmp
 .text.memset   0x000000000800bbfc       0xa4 /opt/gcc-arm-none-eabi-10-2020-q4-major/bin/../lib/gcc/arm-none-eabi/10.2.1/../../../../arm-none-eabi/lib/thumb/v7e-m+dp/hard/libg.a(lib_a-memset.o)
                0x000000000800bbfc                memset
 .text.raise    0x000000000800bca0       0x5c /opt/gcc-arm-none-eabi-10-2020-q4-major/bin/../lib/gcc/arm-none-eabi/10.2.1/../../../../arm-none-eabi/lib/thumb/v7e-m+dp/hard/libg.a(lib_a-signal.o)
                0x000000000800bca0                raise
 .text._kill_r  0x000000000800bcfc       0x2c /opt/gcc-arm-none-eabi-10-2020-q4-major/bin/../lib/gcc/arm-none-eabi/10.2.1/../../../../arm-none-eabi/lib/thumb/v7e-m+dp/hard/libg.a(lib_a-signalr.o)
                0x000000000800bcfc                _kill_r
 .text._getpid_r
                0x000000000800bd28        0x4 /opt/gcc-arm-none-eabi-10-2020-q4-major/bin/../lib/gcc/arm-none-eabi/10.2.1/../../../../arm-none-eabi/lib/thumb/v7e-m+dp/hard/libg.a(lib_a-signalr.o)
                0x000000000800bd28                _getpid_r
 .text.snprintf
                0x000000000800bd2c       0x88 /opt/gcc-arm-none-eabi-10-2020-q4-major/bin/../lib/gcc/arm-none-eabi/10.2.1/../../../../arm-none-eabi/lib/thumb/v7e-m+dp/hard/libg.a(lib_a-snprintf.o)
                0x000000000800bd2c                snprintf
 .text.strchr   0x000000000800bdb4       0xcc /opt/gcc-arm-none-eabi-10-2020-q4-major/bin/../lib/gcc/arm-none-eabi/10.2.1/../../../../arm-none-eabi/lib/thumb/v7e-m+dp/hard/libg.a(lib_a-strchr.o)
                0x000000000800bdb4                strchr
 .text.strncpy  0x000000000800be80       0x64 /opt/gcc-arm-none-eabi-10-2020-q4-major/bin/../lib/gcc/arm-none-eabi/10.2.1/../../../../arm-none-eabi/lib/thumb/v7e-m+dp/hard/libg.a(lib_a-strncpy.o)
                0x000000000800be80                strncpy
 *fill*         0x000000000800bee4        0x4 
 .text._svfprintf_r
                0x000000000800bee8     0x1950 /opt/gcc-arm-none-eabi-10-2020-q4-major/bin/../lib/gcc/arm-none-eabi/10.2.1/../../../../arm-none-eabi/lib/thumb/v7e-m+dp/hard/libg.a(lib_a-svfprintf.o)
                0x000000000800bee8                _svfprintf_r
 .text.quorem   0x000000000800d838      0x128 /opt/gcc-arm-none-eabi-10-2020-q4-major/bin/../lib/gcc/arm-none-eabi/10.2.1/../../../../arm-none-eabi/lib/thumb/v7e-m+dp/hard/libg.a(lib_a-dtoa.o)
 .text._dtoa_r  0x000000000800d960      0xcd8 /opt/gcc-arm-none-eabi-10-2020-q4-major/bin/../lib/gcc/arm-none-eabi/10.2.1/../../../../arm-none-eabi/lib/thumb/v7e-m+dp/hard/libg.a(lib_a-dtoa.o)
                0x000000000800d960                _dtoa_r
 .text._malloc_trim_r
                0x000000000800e638       0xa0 /opt/gcc-arm-none-eabi-10-2020-q4-major/bin/../lib/gcc/arm-none-eabi/10.2.1/../../../../arm-none-eabi/lib/thumb/v7e-m+dp/hard/libg.a(lib_a-freer.o)
                0x000000000800e638                _malloc_trim_r
 .text._free_r  0x000000000800e6d8      0x20c /opt/gcc-arm-none-eabi-10-2020-q4-major/bin/../lib/gcc/arm-none-eabi/10.2.1/../../../../arm-none-eabi/lib/thumb/v7e-m+dp/hard/libg.a(lib_a-freer.o)
                0x000000000800e6d8                _free_r
 .text._localeconv_r
                0x000000000800e8e4        0x8 /opt/gcc-arm-none-eabi-10-2020-q4-major/bin/../lib/gcc/arm-none-eabi/10.2.1/../../../../arm-none-eabi/lib/thumb/v7e-m+dp/hard/libg.a(lib_a-localeconv.o)
                0x000000000800e8e4                _localeconv_r
 .text._malloc_r
                0x000000000800e8ec      0x560 /opt/gcc-arm-none-eabi-10-2020-q4-major/bin/../lib/gcc/arm-none-eabi/10.2.1/../../../../arm-none-eabi/lib/thumb/v7e-m+dp/hard/libg.a(lib_a-mallocr.o)
                0x000000000800e8ec                _malloc_r
 .text.__malloc_lock
                0x000000000800ee4c        0xc /opt/gcc-arm-none-eabi-10-2020-q4-major/bin/../lib/gcc/arm-none-eabi/10.2.1/../../../../arm-none-eabi/lib/thumb/v7e-m+dp/hard/libg.a(lib_a-mlock.o)
                0x000000000800ee4c                __malloc_lock
 .text.__malloc_unlock
                0x000000000800ee58        0xc /opt/gcc-arm-none-eabi-10-2020-q4-major/bin/../lib/gcc/arm-none-eabi/10.2.1/../../../../arm-none-eabi/lib/thumb/v7e-m+dp/hard/libg.a(lib_a-mlock.o)
                0x000000000800ee58                __malloc_unlock
 .text._Balloc  0x000000000800ee64       0x4c /opt/gcc-arm-none-eabi-10-2020-q4-major/bin/../lib/gcc/arm-none-eabi/10.2.1/../../../../arm-none-eabi/lib/thumb/v7e-m+dp/hard/libg.a(lib_a-mprec.o)
                0x000000000800ee64                _Balloc
 .text._Bfree   0x000000000800eeb0       0x14 /opt/gcc-arm-none-eabi-10-2020-q4-major/bin/../lib/gcc/arm-none-eabi/10.2.1/../../../../arm-none-eabi/lib/thumb/v7e-m+dp/hard/libg.a(lib_a-mprec.o)
                0x000000000800eeb0                _Bfree
 .text.__multadd
                0x000000000800eec4       0xa8 /opt/gcc-arm-none-eabi-10-2020-q4-major/bin/../lib/gcc/arm-none-eabi/10.2.1/../../../../arm-none-eabi/lib/thumb/v7e-m+dp/hard/libg.a(lib_a-mprec.o)
                0x000000000800eec4                __multadd
 .text.__hi0bits
                0x000000000800ef6c       0x40 /opt/gcc-arm-none-eabi-10-2020-q4-major/bin/../lib/gcc/arm-none-eabi/10.2.1/../../../../arm-none-eabi/lib/thumb/v7e-m+dp/hard/libg.a(lib_a-mprec.o)
                0x000000000800ef6c                __hi0bits
 .text.__lo0bits
                0x000000000800efac       0x60 /opt/gcc-arm-none-eabi-10-2020-q4-major/bin/../lib/gcc/arm-none-eabi/10.2.1/../../../../arm-none-eabi/lib/thumb/v7e-m+dp/hard/libg.a(lib_a-mprec.o)
                0x000000000800efac                __lo0bits
 .text.__i2b    0x000000000800f00c       0x5c /opt/gcc-arm-none-eabi-10-2020-q4-major/bin/../lib/gcc/arm-none-eabi/10.2.1/../../../../arm-none-eabi/lib/thumb/v7e-m+dp/hard/libg.a(lib_a-mprec.o)
                0x000000000800f00c                __i2b
 .text.__multiply
                0x000000000800f068      0x158 /opt/gcc-arm-none-eabi-10-2020-q4-major/bin/../lib/gcc/arm-none-eabi/10.2.1/../../../../arm-none-eabi/lib/thumb/v7e-m+dp/hard/libg.a(lib_a-mprec.o)
                0x000000000800f068                __multiply
 .text.__pow5mult
                0x000000000800f1c0       0xc0 /opt/gcc-arm-none-eabi-10-2020-q4-major/bin/../lib/gcc/arm-none-eabi/10.2.1/../../../../arm-none-eabi/lib/thumb/v7e-m+dp/hard/libg.a(lib_a-mprec.o)
                0x000000000800f1c0                __pow5mult
 .text.__lshift
                0x000000000800f280       0xf0 /opt/gcc-arm-none-eabi-10-2020-q4-major/bin/../lib/gcc/arm-none-eabi/10.2.1/../../../../arm-none-eabi/lib/thumb/v7e-m+dp/hard/libg.a(lib_a-mprec.o)
                0x000000000800f280                __lshift
 .text.__mcmp   0x000000000800f370       0x44 /opt/gcc-arm-none-eabi-10-2020-q4-major/bin/../lib/gcc/arm-none-eabi/10.2.1/../../../../arm-none-eabi/lib/thumb/v7e-m+dp/hard/libg.a(lib_a-mprec.o)
                0x000000000800f370                __mcmp
 .text.__mdiff  0x000000000800f3b4      0x14c /opt/gcc-arm-none-eabi-10-2020-q4-major/bin/../lib/gcc/arm-none-eabi/10.2.1/../../../../arm-none-eabi/lib/thumb/v7e-m+dp/hard/libg.a(lib_a-mprec.o)
                0x000000000800f3b4                __mdiff
 .text.__d2b    0x000000000800f500       0xd0 /opt/gcc-arm-none-eabi-10-2020-q4-major/bin/../lib/gcc/arm-none-eabi/10.2.1/../../../../arm-none-eabi/lib/thumb/v7e-m+dp/hard/libg.a(lib_a-mprec.o)
                0x000000000800f500                __d2b
 .text.frexp    0x000000000800f5d0       0x78 /opt/gcc-arm-none-eabi-10-2020-q4-major/bin/../lib/gcc/arm-none-eabi/10.2.1/../../../../arm-none-eabi/lib/thumb/v7e-m+dp/hard/libg.a(lib_a-s_frexp.o)
                0x000000000800f5d0                frexp
 .text.__ssprint_r
                0x000000000800f648       0xf8 /opt/gcc-arm-none-eabi-10-2020-q4-major/bin/../lib/gcc/arm-none-eabi/10.2.1/../../../../arm-none-eabi/lib/thumb/v7e-m+dp/hard/libg.a(lib_a-svfiprintf.o)
                0x000000000800f648                __ssprint_r
 .text.__assert_func
                0x000000000800f740       0x40 /opt/gcc-arm-none-eabi-10-2020-q4-major/bin/../lib/gcc/arm-none-eabi/10.2.1/../../../../arm-none-eabi/lib/thumb/v7e-m+dp/hard/libg.a(lib_a-assert.o)
                0x000000000800f740                __assert_func
 .text._calloc_r
                0x000000000800f780       0x60 /opt/gcc-arm-none-eabi-10-2020-q4-major/bin/../lib/gcc/arm-none-eabi/10.2.1/../../../../arm-none-eabi/lib/thumb/v7e-m+dp/hard/libg.a(lib_a-callocr.o)
                0x000000000800f780                _calloc_r
 .text.fiprintf
                0x000000000800f7e0       0x28 /opt/gcc-arm-none-eabi-10-2020-q4-major/bin/../lib/gcc/arm-none-eabi/10.2.1/../../../../arm-none-eabi/lib/thumb/v7e-m+dp/hard/libg.a(lib_a-fiprintf.o)
                0x000000000800f7e0                fiprintf
 .text.__locale_mb_cur_max
                0x000000000800f808        0xc /opt/gcc-arm-none-eabi-10-2020-q4-major/bin/../lib/gcc/arm-none-eabi/10.2.1/../../../../arm-none-eabi/lib/thumb/v7e-m+dp/hard/libg.a(lib_a-locale.o)
                0x000000000800f808                __locale_mb_cur_max
 .text.__retarget_lock_init_recursive
                0x000000000800f814        0x4 /opt/gcc-arm-none-eabi-10-2020-q4-major/bin/../lib/gcc/arm-none-eabi/10.2.1/../../../../arm-none-eabi/lib/thumb/v7e-m+dp/hard/libg.a(lib_a-lock.o)
                0x000000000800f814                __retarget_lock_init_recursive
 .text.__retarget_lock_close_recursive
                0x000000000800f818        0x4 /opt/gcc-arm-none-eabi-10-2020-q4-major/bin/../lib/gcc/arm-none-eabi/10.2.1/../../../../arm-none-eabi/lib/thumb/v7e-m+dp/hard/libg.a(lib_a-lock.o)
                0x000000000800f818                __retarget_lock_close_recursive
 .text.__retarget_lock_acquire_recursive
                0x000000000800f81c        0x4 /opt/gcc-arm-none-eabi-10-2020-q4-major/bin/../lib/gcc/arm-none-eabi/10.2.1/../../../../arm-none-eabi/lib/thumb/v7e-m+dp/hard/libg.a(lib_a-lock.o)
                0x000000000800f81c                __retarget_lock_acquire_recursive
 .text.__retarget_lock_release_recursive
                0x000000000800f820        0x4 /opt/gcc-arm-none-eabi-10-2020-q4-major/bin/../lib/gcc/arm-none-eabi/10.2.1/../../../../arm-none-eabi/lib/thumb/v7e-m+dp/hard/libg.a(lib_a-lock.o)
                0x000000000800f820                __retarget_lock_release_recursive
 .text.__ascii_mbtowc
                0x000000000800f824       0x2c /opt/gcc-arm-none-eabi-10-2020-q4-major/bin/../lib/gcc/arm-none-eabi/10.2.1/../../../../arm-none-eabi/lib/thumb/v7e-m+dp/hard/libg.a(lib_a-mbtowc_r.o)
                0x000000000800f824                __ascii_mbtowc
 .text.memmove  0x000000000800f850       0xf8 /opt/gcc-arm-none-eabi-10-2020-q4-major/bin/../lib/gcc/arm-none-eabi/10.2.1/../../../../arm-none-eabi/lib/thumb/v7e-m+dp/hard/libg.a(lib_a-memmove.o)
                0x000000000800f850                memmove
 .text._realloc_r
                0x000000000800f948      0x3d8 /opt/gcc-arm-none-eabi-10-2020-q4-major/bin/../lib/gcc/arm-none-eabi/10.2.1/../../../../arm-none-eabi/lib/thumb/v7e-m+dp/hard/libg.a(lib_a-reallocr.o)
                0x000000000800f948                _realloc_r
 .text.__sprint_r.part.0
                0x000000000800fd20       0x78 /opt/gcc-arm-none-eabi-10-2020-q4-major/bin/../lib/gcc/arm-none-eabi/10.2.1/../../../../arm-none-eabi/lib/thumb/v7e-m+dp/hard/libg.a(lib_a-vfiprintf.o)
 .text._vfiprintf_r
                0x000000000800fd98      0xdf4 /opt/gcc-arm-none-eabi-10-2020-q4-major/bin/../lib/gcc/arm-none-eabi/10.2.1/../../../../arm-none-eabi/lib/thumb/v7e-m+dp/hard/libg.a(lib_a-vfiprintf.o)
                0x000000000800fd98                _vfiprintf_r
 .text.__sbprintf
                0x0000000008010b8c       0x80 /opt/gcc-arm-none-eabi-10-2020-q4-major/bin/../lib/gcc/arm-none-eabi/10.2.1/../../../../arm-none-eabi/lib/thumb/v7e-m+dp/hard/libg.a(lib_a-vfiprintf.o)
 .text.__ascii_wctomb
                0x0000000008010c0c       0x1c /opt/gcc-arm-none-eabi-10-2020-q4-major/bin/../lib/gcc/arm-none-eabi/10.2.1/../../../../arm-none-eabi/lib/thumb/v7e-m+dp/hard/libg.a(lib_a-wctomb_r.o)
                0x0000000008010c0c                __ascii_wctomb
 .text.__swsetup_r
                0x0000000008010c28       0xd4 /opt/gcc-arm-none-eabi-10-2020-q4-major/bin/../lib/gcc/arm-none-eabi/10.2.1/../../../../arm-none-eabi/lib/thumb/v7e-m+dp/hard/libg.a(lib_a-wsetup.o)
                0x0000000008010c28                __swsetup_r
 .text.__sflush_r
                0x0000000008010cfc      0x130 /opt/gcc-arm-none-eabi-10-2020-q4-major/bin/../lib/gcc/arm-none-eabi/10.2.1/../../../../arm-none-eabi/lib/thumb/v7e-m+dp/hard/libg.a(lib_a-fflush.o)
                0x0000000008010cfc                __sflush_r
 .text._fflush_r
                0x0000000008010e2c       0x5c /opt/gcc-arm-none-eabi-10-2020-q4-major/bin/../lib/gcc/arm-none-eabi/10.2.1/../../../../arm-none-eabi/lib/thumb/v7e-m+dp/hard/libg.a(lib_a-fflush.o)
                0x0000000008010e2c                _fflush_r
 .text._cleanup_r
                0x0000000008010e88        0xc /opt/gcc-arm-none-eabi-10-2020-q4-major/bin/../lib/gcc/arm-none-eabi/10.2.1/../../../../arm-none-eabi/lib/thumb/v7e-m+dp/hard/libg.a(lib_a-findfp.o)
                0x0000000008010e88                _cleanup_r
 .text.__sinit  0x0000000008010e94      0x10c /opt/gcc-arm-none-eabi-10-2020-q4-major/bin/../lib/gcc/arm-none-eabi/10.2.1/../../../../arm-none-eabi/lib/thumb/v7e-m+dp/hard/libg.a(lib_a-findfp.o)
                0x0000000008010e94                __sinit
 .text.__sfp_lock_acquire
                0x0000000008010fa0        0xc /opt/gcc-arm-none-eabi-10-2020-q4-major/bin/../lib/gcc/arm-none-eabi/10.2.1/../../../../arm-none-eabi/lib/thumb/v7e-m+dp/hard/libg.a(lib_a-findfp.o)
                0x0000000008010fa0                __sfp_lock_acquire
 .text.__sfp_lock_release
                0x0000000008010fac        0xc /opt/gcc-arm-none-eabi-10-2020-q4-major/bin/../lib/gcc/arm-none-eabi/10.2.1/../../../../arm-none-eabi/lib/thumb/v7e-m+dp/hard/libg.a(lib_a-findfp.o)
                0x0000000008010fac                __sfp_lock_release
 .text.__fputwc
                0x0000000008010fb8       0xa8 /opt/gcc-arm-none-eabi-10-2020-q4-major/bin/../lib/gcc/arm-none-eabi/10.2.1/../../../../arm-none-eabi/lib/thumb/v7e-m+dp/hard/libg.a(lib_a-fputwc.o)
                0x0000000008010fb8                __fputwc
 .text._fputwc_r
                0x0000000008011060       0x68 /opt/gcc-arm-none-eabi-10-2020-q4-major/bin/../lib/gcc/arm-none-eabi/10.2.1/../../../../arm-none-eabi/lib/thumb/v7e-m+dp/hard/libg.a(lib_a-fputwc.o)
                0x0000000008011060                _fputwc_r
 .text.__sfvwrite_r
                0x00000000080110c8      0x2f0 /opt/gcc-arm-none-eabi-10-2020-q4-major/bin/../lib/gcc/arm-none-eabi/10.2.1/../../../../arm-none-eabi/lib/thumb/v7e-m+dp/hard/libg.a(lib_a-fvwrite.o)
                0x00000000080110c8                __sfvwrite_r
 .text._fwalk_reent
                0x00000000080113b8       0x48 /opt/gcc-arm-none-eabi-10-2020-q4-major/bin/../lib/gcc/arm-none-eabi/10.2.1/../../../../arm-none-eabi/lib/thumb/v7e-m+dp/hard/libg.a(lib_a-fwalk.o)
                0x00000000080113b8                _fwalk_reent
 .text.__smakebuf_r
                0x0000000008011400       0xe0 /opt/gcc-arm-none-eabi-10-2020-q4-major/bin/../lib/gcc/arm-none-eabi/10.2.1/../../../../arm-none-eabi/lib/thumb/v7e-m+dp/hard/libg.a(lib_a-makebuf.o)
                0x0000000008011400                __smakebuf_r
 .text.__sread  0x00000000080114e0       0x24 /opt/gcc-arm-none-eabi-10-2020-q4-major/bin/../lib/gcc/arm-none-eabi/10.2.1/../../../../arm-none-eabi/lib/thumb/v7e-m+dp/hard/libg.a(lib_a-stdio.o)
                0x00000000080114e0                __sread
 .text.__swrite
                0x0000000008011504       0x40 /opt/gcc-arm-none-eabi-10-2020-q4-major/bin/../lib/gcc/arm-none-eabi/10.2.1/../../../../arm-none-eabi/lib/thumb/v7e-m+dp/hard/libg.a(lib_a-stdio.o)
                0x0000000008011504                __swrite
 .text.__sseek  0x0000000008011544       0x20 /opt/gcc-arm-none-eabi-10-2020-q4-major/bin/../lib/gcc/arm-none-eabi/10.2.1/../../../../arm-none-eabi/lib/thumb/v7e-m+dp/hard/libg.a(lib_a-stdio.o)
                0x0000000008011544                __sseek
 .text.__sclose
                0x0000000008011564        0x8 /opt/gcc-arm-none-eabi-10-2020-q4-major/bin/../lib/gcc/arm-none-eabi/10.2.1/../../../../arm-none-eabi/lib/thumb/v7e-m+dp/hard/libg.a(lib_a-stdio.o)
                0x0000000008011564                __sclose
 .text.__swbuf_r
                0x000000000801156c       0xb0 /opt/gcc-arm-none-eabi-10-2020-q4-major/bin/../lib/gcc/arm-none-eabi/10.2.1/../../../../arm-none-eabi/lib/thumb/v7e-m+dp/hard/libg.a(lib_a-wbuf.o)
                0x000000000801156c                __swbuf_r
 .text._wcrtomb_r
                0x000000000801161c       0x3c /opt/gcc-arm-none-eabi-10-2020-q4-major/bin/../lib/gcc/arm-none-eabi/10.2.1/../../../../arm-none-eabi/lib/thumb/v7e-m+dp/hard/libg.a(lib_a-wcrtomb.o)
                0x000000000801161c                _wcrtomb_r
 .text._fclose_r
                0x0000000008011658       0xcc /opt/gcc-arm-none-eabi-10-2020-q4-major/bin/../lib/gcc/arm-none-eabi/10.2.1/../../../../arm-none-eabi/lib/thumb/v7e-m+dp/hard/libg.a(lib_a-fclose.o)
                0x0000000008011658                _fclose_r
 *(.glue_7t)
 .glue_7t       0x0000000008011724        0x0 linker stubs
 *(.glue_7)
 .glue_7        0x0000000008011724        0x0 linker stubs
 *(.gcc*)
                0x0000000008011724                __text_end__ = .

.vfp11_veneer   0x0000000008011724        0x0
 .vfp11_veneer  0x0000000008011724        0x0 linker stubs

.v4_bx          0x0000000008011724        0x0
 .v4_bx         0x0000000008011724        0x0 linker stubs

.iplt           0x0000000008011724        0x0
 .iplt          0x0000000008011724        0x0 build/obj/crt0_v7m.o

.rodata         0x0000000008011728      0xc24
                0x0000000008011728                __rodata_base__ = .
 *(.rodata)
 *(.rodata.*)
 .rodata.follow_path.str1.4
                0x0000000008011728        0xf /tmp/BPRL.elf.FE4VjG.ltrans0.ltrans.o
 *fill*         0x0000000008011737        0x1 
 .rodata.check_fs.str1.4
                0x0000000008011738        0x9 /tmp/BPRL.elf.FE4VjG.ltrans0.ltrans.o
 *fill*         0x0000000008011741        0x3 
 .rodata.spi_lld_serve_dma_rx_interrupt.str1.4
                0x0000000008011744        0xc /tmp/BPRL.elf.FE4VjG.ltrans0.ltrans.o
 .rodata._exit.str1.4
                0x0000000008011750        0x5 /tmp/BPRL.elf.FE4VjG.ltrans0.ltrans.o
 *fill*         0x0000000008011755        0x3 
 .rodata._kill.str1.4
                0x0000000008011758        0x5 /tmp/BPRL.elf.FE4VjG.ltrans0.ltrans.o
 *fill*         0x000000000801175d        0x3 
 .rodata.main.str1.4
                0x0000000008011760        0x5 /tmp/BPRL.elf.FE4VjG.ltrans0.ltrans.o
 *fill*         0x0000000008011765        0x3 
 .rodata._ZL9CANThreadPv.str1.4
                0x0000000008011768        0x4 /tmp/BPRL.elf.FE4VjG.ltrans0.ltrans.o
 .rodata._ZL9I2CThreadPv.str1.4
                0x000000000801176c        0x4 /tmp/BPRL.elf.FE4VjG.ltrans0.ltrans.o
 .rodata._ZL15HeartbeatThreadPv.str1.4
                0x0000000008011770        0xa /tmp/BPRL.elf.FE4VjG.ltrans0.ltrans.o
 *fill*         0x000000000801177a        0x2 
 .rodata._ZL14StateEstThreadPv.str1.4
                0x000000000801177c        0x4 /tmp/BPRL.elf.FE4VjG.ltrans0.ltrans.o
 .rodata._ZL13ControlThreadPv.str1.4
                0x0000000008011780        0x5 /tmp/BPRL.elf.FE4VjG.ltrans0.ltrans.o
 *fill*         0x0000000008011785        0x3 
 .rodata._ZL11RadioThreadPv.str1.4
                0x0000000008011788        0x6 /tmp/BPRL.elf.FE4VjG.ltrans0.ltrans.o
 *fill*         0x000000000801178e        0x2 
 .rodata._ZL9LogThreadPv.str1.4
                0x0000000008011790       0xf5 /tmp/BPRL.elf.FE4VjG.ltrans0.ltrans.o
 *fill*         0x0000000008011885        0x3 
 .rodata.VectorAC.str1.4
                0x0000000008011888        0x9 /tmp/BPRL.elf.FE4VjG.ltrans0.ltrans.o
 *fill*         0x0000000008011891        0x3 
 .rodata._ZL9SPIThreadPv.str1.4
                0x0000000008011894        0x4 /tmp/BPRL.elf.FE4VjG.ltrans0.ltrans.o
 .rodata.str1.4
                0x0000000008011898        0x3 /tmp/BPRL.elf.FE4VjG.ltrans0.ltrans.o
 *fill*         0x000000000801189b        0x1 
 .rodata.ExCvt  0x000000000801189c       0x80 /tmp/BPRL.elf.FE4VjG.ltrans0.ltrans.o
 .rodata._ZL10kGcrDecode
                0x000000000801191c       0x20 /tmp/BPRL.elf.FE4VjG.ltrans0.ltrans.o
 .rodata._ZL7can_cfg
                0x000000000801193c       0x14 /tmp/BPRL.elf.FE4VjG.ltrans0.ltrans.o
 .rodata._ZL7sdc_cfg
                0x0000000008011950        0x8 /tmp/BPRL.elf.FE4VjG.ltrans0.ltrans.o
 .rodata._ZL8crsf_cfg
                0x0000000008011958       0x18 /tmp/BPRL.elf.FE4VjG.ltrans0.ltrans.o
 .rodata._ZL9imu1_fast
                0x0000000008011970       0x20 /tmp/BPRL.elf.FE4VjG.ltrans0.ltrans.o
 .rodata._ZL9imu1_init
                0x0000000008011990       0x20 /tmp/BPRL.elf.FE4VjG.ltrans0.ltrans.o
 .rodata._ZL9imu2_fast
                0x00000000080119b0       0x20 /tmp/BPRL.elf.FE4VjG.ltrans0.ltrans.o
 .rodata._ZL9imu2_init
                0x00000000080119d0       0x20 /tmp/BPRL.elf.FE4VjG.ltrans0.ltrans.o
 .rodata._ZL9imu3_fast
                0x00000000080119f0       0x20 /tmp/BPRL.elf.FE4VjG.ltrans0.ltrans.o
 .rodata._ZL9imu3_init
                0x0000000008011a10       0x20 /tmp/BPRL.elf.FE4VjG.ltrans0.ltrans.o
 .rodata._ZZ4mainE6kRates
                0x0000000008011a30       0x24 /tmp/BPRL.elf.FE4VjG.ltrans0.ltrans.o
 .rodata.__func__.0.lto_priv.0
                0x0000000008011a54        0x9 /tmp/BPRL.elf.FE4VjG.ltrans0.ltrans.o
 *fill*         0x0000000008011a5d        0x3 
 .rodata.__func__.0.lto_priv.1
                0x0000000008011a60        0xa /tmp/BPRL.elf.FE4VjG.ltrans0.ltrans.o
 *fill*         0x0000000008011a6a        0x2 
 .rodata.__func__.0.lto_priv.2
                0x0000000008011a6c        0xa /tmp/BPRL.elf.FE4VjG.ltrans0.ltrans.o
 *fill*         0x0000000008011a76        0x2 
 .rodata.__func__.0.lto_priv.3
                0x0000000008011a78        0xa /tmp/BPRL.elf.FE4VjG.ltrans0.ltrans.o
 *fill*         0x0000000008011a82        0x2 
 .rodata.__func__.1.lto_priv.0
                0x0000000008011a84        0xa /tmp/BPRL.elf.FE4VjG.ltrans0.ltrans.o
 *fill*         0x0000000008011a8e        0x2 
 .rodata.__func__.1.lto_priv.1
                0x0000000008011a90        0xa /tmp/BPRL.elf.FE4VjG.ltrans0.ltrans.o
 *fill*         0x0000000008011a9a        0x2 
 .rodata.__func__.1.lto_priv.2
                0x0000000008011a9c        0x9 /tmp/BPRL.elf.FE4VjG.ltrans0.ltrans.o
 *fill*         0x0000000008011aa5        0x3 
 .rodata.__func__.10
                0x0000000008011aa8        0x9 /tmp/BPRL.elf.FE4VjG.ltrans0.ltrans.o
 *fill*         0x0000000008011ab1        0x3 
 .rodata.__func__.11
                0x0000000008011ab4        0x9 /tmp/BPRL.elf.FE4VjG.ltrans0.ltrans.o
 *fill*         0x0000000008011abd        0x3 
 .rodata.__func__.12
                0x0000000008011ac0        0x9 /tmp/BPRL.elf.FE4VjG.ltrans0.ltrans.o
 *fill*         0x0000000008011ac9        0x3 
 .rodata.__func__.13
                0x0000000008011acc        0x9 /tmp/BPRL.elf.FE4VjG.ltrans0.ltrans.o
 *fill*         0x0000000008011ad5        0x3 
 .rodata.__func__.14
                0x0000000008011ad8        0x9 /tmp/BPRL.elf.FE4VjG.ltrans0.ltrans.o
 *fill*         0x0000000008011ae1        0x3 
 .rodata.__func__.15
                0x0000000008011ae4        0x9 /tmp/BPRL.elf.FE4VjG.ltrans0.ltrans.o
 *fill*         0x0000000008011aed        0x3 
 .rodata.__func__.2.lto_priv.0
                0x0000000008011af0        0x9 /tmp/BPRL.elf.FE4VjG.ltrans0.ltrans.o
 *fill*         0x0000000008011af9        0x3 
 .rodata.__func__.2.lto_priv.1
                0x0000000008011afc        0xa /tmp/BPRL.elf.FE4VjG.ltrans0.ltrans.o
 *fill*         0x0000000008011b06        0x2 
 .rodata.__func__.3.lto_priv.0
                0x0000000008011b08        0xa /tmp/BPRL.elf.FE4VjG.ltrans0.ltrans.o
 *fill*         0x0000000008011b12        0x2 
 .rodata.__func__.3.lto_priv.1
                0x0000000008011b14        0xa /tmp/BPRL.elf.FE4VjG.ltrans0.ltrans.o
 *fill*         0x0000000008011b1e        0x2 
 .rodata.__func__.4.lto_priv.0
                0x0000000008011b20        0x9 /tmp/BPRL.elf.FE4VjG.ltrans0.ltrans.o
 *fill*         0x0000000008011b29        0x3 
 .rodata.__func__.4.lto_priv.1
                0x0000000008011b2c        0xa /tmp/BPRL.elf.FE4VjG.ltrans0.ltrans.o
 *fill*         0x0000000008011b36        0x2 
 .rodata.__func__.5
                0x0000000008011b38        0xa /tmp/BPRL.elf.FE4VjG.ltrans0.ltrans.o
 *fill*         0x0000000008011b42        0x2 
 .rodata.__func__.6
                0x0000000008011b44        0xa /tmp/BPRL.elf.FE4VjG.ltrans0.ltrans.o
 *fill*         0x0000000008011b4e        0x2 
 .rodata.__func__.7
                0x0000000008011b50        0xa /tmp/BPRL.elf.FE4VjG.ltrans0.ltrans.o
 *fill*         0x0000000008011b5a        0x2 
 .rodata.__func__.8
                0x0000000008011b5c        0x9 /tmp/BPRL.elf.FE4VjG.ltrans0.ltrans.o
 *fill*         0x0000000008011b65        0x3 
 .rodata.__func__.9
                0x0000000008011b68        0x9 /tmp/BPRL.elf.FE4VjG.ltrans0.ltrans.o
 *fill*         0x0000000008011b71        0x3 
 .rodata._stm32_dma_streams
                0x0000000008011b74      0x100 /tmp/BPRL.elf.FE4VjG.ltrans0.ltrans.o
 .rodata.active_status
                0x0000000008011c74        0x2 /tmp/BPRL.elf.FE4VjG.ltrans0.ltrans.o
 *fill*         0x0000000008011c76        0x2 
 .rodata.ch_core0_cfg
                0x0000000008011c78       0x14 /tmp/BPRL.elf.FE4VjG.ltrans0.ltrans.o
 .rodata.ch_debug
                0x0000000008011c8c       0x2c /tmp/BPRL.elf.FE4VjG.ltrans0.ltrans.o
 .rodata.dlc_to_bytes
                0x0000000008011cb8       0x10 /tmp/BPRL.elf.FE4VjG.ltrans0.ltrans.o
 .rodata.ep0config
                0x0000000008011cc8       0x24 /tmp/BPRL.elf.FE4VjG.ltrans0.ltrans.o
 .rodata.fsparams
                0x0000000008011cec        0xc /tmp/BPRL.elf.FE4VjG.ltrans0.ltrans.o
 .rodata.halted_status
                0x0000000008011cf8        0x2 /tmp/BPRL.elf.FE4VjG.ltrans0.ltrans.o
 *fill*         0x0000000008011cfa        0x2 
 .rodata.ram_areas
                0x0000000008011cfc       0x80 /tmp/BPRL.elf.FE4VjG.ltrans0.ltrans.o
 .rodata.sdc_vmt
                0x0000000008011d7c       0x24 /tmp/BPRL.elf.FE4VjG.ltrans0.ltrans.o
 .rodata.vmt    0x0000000008011da0       0x28 /tmp/BPRL.elf.FE4VjG.ltrans0.ltrans.o
 .rodata.zero_status
                0x0000000008011dc8        0x2 /tmp/BPRL.elf.FE4VjG.ltrans0.ltrans.o
 *fill*         0x0000000008011dca        0x2 
 .rodata.chThdCreateStatic.isra.0.str1.4
                0x0000000008011dcc        0x7 /tmp/BPRL.elf.FE4VjG.ltrans1.ltrans.o
 *fill*         0x0000000008011dd3        0x1 
 .rodata.__inv_pio4
                0x0000000008011dd4       0x60 /opt/gcc-arm-none-eabi-10-2020-q4-major/bin/../lib/gcc/arm-none-eabi/10.2.1/../../../../arm-none-eabi/lib/thumb/v7e-m+dp/hard/libm.a(lib_a-sincosf_data.o)
                0x0000000008011dd4                __inv_pio4
 *fill*         0x0000000008011e34        0x4 
 .rodata.__sincosf_table
                0x0000000008011e38       0xe0 /opt/gcc-arm-none-eabi-10-2020-q4-major/bin/../lib/gcc/arm-none-eabi/10.2.1/../../../../arm-none-eabi/lib/thumb/v7e-m+dp/hard/libm.a(lib_a-sincosf_data.o)
                0x0000000008011e38                __sincosf_table
 .rodata.asinf.str1.4
                0x0000000008011f18        0x0 /opt/gcc-arm-none-eabi-10-2020-q4-major/bin/../lib/gcc/arm-none-eabi/10.2.1/../../../../arm-none-eabi/lib/thumb/v7e-m+dp/hard/libm.a(lib_a-wf_asin.o)
                                          0x1 (size before relaxing)
 .rodata.CSWTCH.8
                0x0000000008011f18        0xc /opt/gcc-arm-none-eabi-10-2020-q4-major/bin/../lib/gcc/arm-none-eabi/10.2.1/../../../../arm-none-eabi/lib/thumb/v7e-m+dp/hard/libm.a(lib_a-ef_atan2.o)
 .rodata.CSWTCH.9
                0x0000000008011f24        0xc /opt/gcc-arm-none-eabi-10-2020-q4-major/bin/../lib/gcc/arm-none-eabi/10.2.1/../../../../arm-none-eabi/lib/thumb/v7e-m+dp/hard/libm.a(lib_a-ef_atan2.o)
 .rodata.atanhi
                0x0000000008011f30       0x10 /opt/gcc-arm-none-eabi-10-2020-q4-major/bin/../lib/gcc/arm-none-eabi/10.2.1/../../../../arm-none-eabi/lib/thumb/v7e-m+dp/hard/libm.a(lib_a-sf_atan.o)
 .rodata.atanlo
                0x0000000008011f40       0x10 /opt/gcc-arm-none-eabi-10-2020-q4-major/bin/../lib/gcc/arm-none-eabi/10.2.1/../../../../arm-none-eabi/lib/thumb/v7e-m+dp/hard/libm.a(lib_a-sf_atan.o)
 .rodata._ctype_
                0x0000000008011f50      0x101 /opt/gcc-arm-none-eabi-10-2020-q4-major/bin/../lib/gcc/arm-none-eabi/10.2.1/../../../../arm-none-eabi/lib/thumb/v7e-m+dp/hard/libg.a(lib_a-ctype_.o)
                0x0000000008011f50                _ctype_
 *fill*         0x0000000008012051        0x3 
 .rodata._svfprintf_r.str1.4
                0x0000000008012054       0x42 /opt/gcc-arm-none-eabi-10-2020-q4-major/bin/../lib/gcc/arm-none-eabi/10.2.1/../../../../arm-none-eabi/lib/thumb/v7e-m+dp/hard/libg.a(lib_a-svfprintf.o)
 *fill*         0x0000000008012096        0x2 
 .rodata.blanks.1
                0x0000000008012098       0x10 /opt/gcc-arm-none-eabi-10-2020-q4-major/bin/../lib/gcc/arm-none-eabi/10.2.1/../../../../arm-none-eabi/lib/thumb/v7e-m+dp/hard/libg.a(lib_a-svfprintf.o)
 .rodata.zeroes.0
                0x00000000080120a8       0x10 /opt/gcc-arm-none-eabi-10-2020-q4-major/bin/../lib/gcc/arm-none-eabi/10.2.1/../../../../arm-none-eabi/lib/thumb/v7e-m+dp/hard/libg.a(lib_a-svfprintf.o)
 .rodata._dtoa_r.str1.4
                0x00000000080120b8       0xa1 /opt/gcc-arm-none-eabi-10-2020-q4-major/bin/../lib/gcc/arm-none-eabi/10.2.1/../../../../arm-none-eabi/lib/thumb/v7e-m+dp/hard/libg.a(lib_a-dtoa.o)
                                         0xa5 (size before relaxing)
 *fill*         0x0000000008012159        0x3 
 .rodata.__multadd.str1.4
                0x000000000801215c       0x7e /opt/gcc-arm-none-eabi-10-2020-q4-major/bin/../lib/gcc/arm-none-eabi/10.2.1/../../../../arm-none-eabi/lib/thumb/v7e-m+dp/hard/libg.a(lib_a-mprec.o)
                                         0x92 (size before relaxing)
 *fill*         0x00000000080121da        0x6 
 .rodata.__mprec_bigtens
                0x00000000080121e0       0x28 /opt/gcc-arm-none-eabi-10-2020-q4-major/bin/../lib/gcc/arm-none-eabi/10.2.1/../../../../arm-none-eabi/lib/thumb/v7e-m+dp/hard/libg.a(lib_a-mprec.o)
                0x00000000080121e0                __mprec_bigtens
 .rodata.__mprec_tens
                0x0000000008012208       0xc8 /opt/gcc-arm-none-eabi-10-2020-q4-major/bin/../lib/gcc/arm-none-eabi/10.2.1/../../../../arm-none-eabi/lib/thumb/v7e-m+dp/hard/libg.a(lib_a-mprec.o)
                0x0000000008012208                __mprec_tens
 .rodata.p05.0  0x00000000080122d0        0xc /opt/gcc-arm-none-eabi-10-2020-q4-major/bin/../lib/gcc/arm-none-eabi/10.2.1/../../../../arm-none-eabi/lib/thumb/v7e-m+dp/hard/libg.a(lib_a-mprec.o)
 .rodata.__assert_func.str1.4
                0x00000000080122dc       0x3f /opt/gcc-arm-none-eabi-10-2020-q4-major/bin/../lib/gcc/arm-none-eabi/10.2.1/../../../../arm-none-eabi/lib/thumb/v7e-m+dp/hard/libg.a(lib_a-assert.o)
                                         0x43 (size before relaxing)
 *fill*         0x000000000801231b        0x1 
 .rodata._setlocale_r.str1.4
                0x000000000801231c        0xa /opt/gcc-arm-none-eabi-10-2020-q4-major/bin/../lib/gcc/arm-none-eabi/10.2.1/../../../../arm-none-eabi/lib/thumb/v7e-m+dp/hard/libg.a(lib_a-locale.o)
                                          0xd (size before relaxing)
 *fill*         0x0000000008012326        0x2 
 .rodata.str1.4
                0x0000000008012328        0x2 /opt/gcc-arm-none-eabi-10-2020-q4-major/bin/../lib/gcc/arm-none-eabi/10.2.1/../../../../arm-none-eabi/lib/thumb/v7e-m+dp/hard/libg.a(lib_a-locale.o)
 .rodata._vfiprintf_r.str1.4
                0x000000000801232a       0x2f /opt/gcc-arm-none-eabi-10-2020-q4-major/bin/../lib/gcc/arm-none-eabi/10.2.1/../../../../arm-none-eabi/lib/thumb/v7e-m+dp/hard/libg.a(lib_a-vfiprintf.o)
 *fill*         0x000000000801232a        0x2 
 .rodata.blanks.1
                0x000000000801232c       0x10 /opt/gcc-arm-none-eabi-10-2020-q4-major/bin/../lib/gcc/arm-none-eabi/10.2.1/../../../../arm-none-eabi/lib/thumb/v7e-m+dp/hard/libg.a(lib_a-vfiprintf.o)
 .rodata.zeroes.0
                0x000000000801233c       0x10 /opt/gcc-arm-none-eabi-10-2020-q4-major/bin/../lib/gcc/arm-none-eabi/10.2.1/../../../../arm-none-eabi/lib/thumb/v7e-m+dp/hard/libg.a(lib_a-vfiprintf.o)
                0x000000000801234c                . = ALIGN (0x4)
                0x000000000801234c                __rodata_end__ = .

.ARM.extab      0x000000000801234c       0x24
 *(.ARM.extab* .gnu.linkonce.armextab.*)
 .ARM.extab.text._ZL11RadioThreadPv
                0x000000000801234c        0xc /tmp/BPRL.elf.FE4VjG.ltrans0.ltrans.o
 .ARM.extab     0x0000000008012358       0x18 /opt/gcc-arm-none-eabi-10-2020-q4-major/bin/../lib/gcc/arm-none-eabi/10.2.1/thumb/v7e-m+dp/hard/libgcc.a(pr-support.o)

.ARM.exidx      0x0000000008012370       0xd8
                0x0000000008012370                __exidx_base__ = .
                0x0000000008012370                __exidx_start = .
 *(.ARM.exidx* .gnu.linkonce.armexidx.*)
 .ARM.exidx.text._Z20quat_to_rot_body2nedRK4QuatPA3_f
                0x0000000008012428        0x0 /tmp/BPRL.elf.FE4VjG.ltrans0.ltrans.o
                                          0x8 (size before relaxing)
 .ARM.exidx.text._ZN3PID6updateEf
                0x0000000008012428        0x0 /tmp/BPRL.elf.FE4VjG.ltrans0.ltrans.o
                                          0x8 (size before relaxing)
 .ARM.exidx.text._ZL16switch_to_outputv
                0x0000000008012428        0x0 /tmp/BPRL.elf.FE4VjG.ltrans0.ltrans.o
                                          0x8 (size before relaxing)
 .ARM.exidx.text.sdc_lld_is_card_inserted
                0x0000000008012428        0x0 /tmp/BPRL.elf.FE4VjG.ltrans0.ltrans.o
                                          0x8 (size before relaxing)
 .ARM.exidx.text.sdc_lld_is_write_protected
                0x0000000008012428        0x0 /tmp/BPRL.elf.FE4VjG.ltrans0.ltrans.o
                                          0x8 (size before relaxing)
 .ARM.exidx.text._Z17bprl_can_registermPFvRK10CANRxFramePvES2_.constprop.0
                0x0000000008012428        0x0 /tmp/BPRL.elf.FE4VjG.ltrans0.ltrans.o
                                          0x8 (size before relaxing)
 .ARM.exidx.text._ZN6Logger10ring_writeEPKvj.constprop.0
                0x0000000008012428        0x0 /tmp/BPRL.elf.FE4VjG.ltrans0.ltrans.o
                                          0x8 (size before relaxing)
 .ARM.exidx.text._ZN3EKF7_updateEiPA16_KfPS0_S3_
                0x0000000008012428        0x0 /tmp/BPRL.elf.FE4VjG.ltrans0.ltrans.o
                                          0x8 (size before relaxing)
 .ARM.exidx.text._ZL12dshot_dma_tcPvm
                0x0000000008012428        0x0 /tmp/BPRL.elf.FE4VjG.ltrans0.ltrans.o
                                          0x8 (size before relaxing)
 .ARM.exidx.text._ZN3EKF15_normalize_quatEv
                0x0000000008012428        0x0 /tmp/BPRL.elf.FE4VjG.ltrans0.ltrans.o
                                          0x8 (size before relaxing)
 .ARM.exidx.text._Z13quat_to_eulerRK4QuatRfS2_S2_
                0x0000000008012428        0x0 /tmp/BPRL.elf.FE4VjG.ltrans0.ltrans.o
                                          0x8 (size before relaxing)
 .ARM.exidx.text.startup.main
                0x0000000008012428        0x0 /tmp/BPRL.elf.FE4VjG.ltrans0.ltrans.o
                                          0x8 (size before relaxing)
 .ARM.exidx.text._ZL9CANThreadPv
                0x0000000008012428        0x8 /tmp/BPRL.elf.FE4VjG.ltrans0.ltrans.o
 .ARM.exidx.text._ZL9I2CThreadPv
                0x0000000008012430        0x8 /tmp/BPRL.elf.FE4VjG.ltrans0.ltrans.o
 .ARM.exidx.text._ZL15HeartbeatThreadPv
                0x0000000008012438        0x0 /tmp/BPRL.elf.FE4VjG.ltrans0.ltrans.o
                                          0x8 (size before relaxing)
 .ARM.exidx.text._ZL14StateEstThreadPv
                0x0000000008012438        0x0 /tmp/BPRL.elf.FE4VjG.ltrans0.ltrans.o
                                          0x8 (size before relaxing)
 .ARM.exidx.text._ZL13ControlThreadPv
                0x0000000008012438        0x0 /tmp/BPRL.elf.FE4VjG.ltrans0.ltrans.o
                                          0x8 (size before relaxing)
 .ARM.exidx.text._ZL11RadioThreadPv
                0x0000000008012438        0x8 /tmp/BPRL.elf.FE4VjG.ltrans0.ltrans.o
 .ARM.exidx.text._ZL9LogThreadPv
                0x0000000008012440        0x8 /tmp/BPRL.elf.FE4VjG.ltrans0.ltrans.o
 .ARM.exidx.text._ZL11imx5_can_cbRK10CANRxFramePv
                0x0000000008012448        0x0 /tmp/BPRL.elf.FE4VjG.ltrans0.ltrans.o
                                          0x8 (size before relaxing)
 .ARM.exidx.text.VectorAC
                0x0000000008012448        0x0 /tmp/BPRL.elf.FE4VjG.ltrans0.ltrans.o
                                          0x8 (size before relaxing)
 .ARM.exidx.text._ZN8ICM209488set_bankEh
                0x0000000008012448        0x0 /tmp/BPRL.elf.FE4VjG.ltrans0.ltrans.o
                                          0x8 (size before relaxing)
 .ARM.exidx.text._ZN8ICM209484readEPfS0_.part.0
                0x0000000008012448        0x0 /tmp/BPRL.elf.FE4VjG.ltrans0.ltrans.o
                                          0x8 (size before relaxing)
 .ARM.exidx.text._ZN8ICM209489reg_writeEhh
                0x0000000008012448        0x0 /tmp/BPRL.elf.FE4VjG.ltrans0.ltrans.o
                                          0x8 (size before relaxing)
 .ARM.exidx.text._ZN8ICM206029reg_writeEhh.constprop.0
                0x0000000008012448        0x0 /tmp/BPRL.elf.FE4VjG.ltrans0.ltrans.o
                                          0x8 (size before relaxing)
 .ARM.exidx.text._ZL9SPIThreadPv
                0x0000000008012448        0x0 /tmp/BPRL.elf.FE4VjG.ltrans0.ltrans.o
                                          0x8 (size before relaxing)
 .ARM.exidx.text._ZN8ICM209484initEP14hal_spi_driverPK14hal_spi_configS4_.isra.0
                0x0000000008012448        0x0 /tmp/BPRL.elf.FE4VjG.ltrans1.ltrans.o
                                          0x8 (size before relaxing)
 .ARM.exidx.text.startup._sub_I_65535_0.0
                0x0000000008012448        0x0 /tmp/BPRL.elf.FE4VjG.ltrans1.ltrans.o
                                          0x8 (size before relaxing)
 .ARM.exidx     0x0000000008012370        0x8 /opt/gcc-arm-none-eabi-10-2020-q4-major/bin/../lib/gcc/arm-none-eabi/10.2.1/thumb/v7e-m+dp/hard/libgcc.a(_udivmoddi4.o)
 .ARM.exidx     0x0000000008012378       0x78 /opt/gcc-arm-none-eabi-10-2020-q4-major/bin/../lib/gcc/arm-none-eabi/10.2.1/thumb/v7e-m+dp/hard/libgcc.a(unwind-arm.o)
                                         0xd8 (size before relaxing)
 .ARM.exidx     0x00000000080123f0       0x38 /opt/gcc-arm-none-eabi-10-2020-q4-major/bin/../lib/gcc/arm-none-eabi/10.2.1/thumb/v7e-m+dp/hard/libgcc.a(pr-support.o)
                0x0000000008012448                __exidx_end__ = .
                0x0000000008012448                __exidx_end = .

.rel.dyn        0x0000000008012448        0x0
 .rel.iplt      0x0000000008012448        0x0 build/obj/crt0_v7m.o

.eh_frame_hdr
 *(.eh_frame_hdr)

.eh_frame
 *(.eh_frame)

.data           0x0000000024000000      0x9ec load address 0x0000000008012448
                [!provide]                        PROVIDE (_textdata = LOADADDR (.data))
                [!provide]                        PROVIDE (_data = .)
                0x0000000008012448                __textdata_base__ = LOADADDR (.data)
                0x0000000024000000                __data_base__ = .
 *(.data)
 *(.data.*)
 .data.can_imu_mtx
                0x0000000024000000       0x10 /tmp/BPRL.elf.FE4VjG.ltrans0.ltrans.o
 .data.imu_mtx  0x0000000024000010       0x10 /tmp/BPRL.elf.FE4VjG.ltrans0.ltrans.o
 .data.mocap_mtx
                0x0000000024000020       0x10 /tmp/BPRL.elf.FE4VjG.ltrans0.ltrans.o
 .data.state_mtx
                0x0000000024000030       0x10 /tmp/BPRL.elf.FE4VjG.ltrans0.ltrans.o
 .data.__fdlib_version
                0x0000000024000040        0x1 /opt/gcc-arm-none-eabi-10-2020-q4-major/bin/../lib/gcc/arm-none-eabi/10.2.1/../../../../arm-none-eabi/lib/thumb/v7e-m+dp/hard/libm.a(lib_a-s_lib_ver.o)
                0x0000000024000040                __fdlib_version
 *fill*         0x0000000024000041        0x3 
 .data._impure_ptr
                0x0000000024000044        0x4 /opt/gcc-arm-none-eabi-10-2020-q4-major/bin/../lib/gcc/arm-none-eabi/10.2.1/../../../../arm-none-eabi/lib/thumb/v7e-m+dp/hard/libg.a(lib_a-impure.o)
                0x0000000024000044                _impure_ptr
 .data.impure_data
                0x0000000024000048      0x428 /opt/gcc-arm-none-eabi-10-2020-q4-major/bin/../lib/gcc/arm-none-eabi/10.2.1/../../../../arm-none-eabi/lib/thumb/v7e-m+dp/hard/libg.a(lib_a-impure.o)
 .data.__malloc_av_
                0x0000000024000470      0x408 /opt/gcc-arm-none-eabi-10-2020-q4-major/bin/../lib/gcc/arm-none-eabi/10.2.1/../../../../arm-none-eabi/lib/thumb/v7e-m+dp/hard/libg.a(lib_a-mallocr.o)
                0x0000000024000470                __malloc_av_
 .data.__malloc_sbrk_base
                0x0000000024000878        0x4 /opt/gcc-arm-none-eabi-10-2020-q4-major/bin/../lib/gcc/arm-none-eabi/10.2.1/../../../../arm-none-eabi/lib/thumb/v7e-m+dp/hard/libg.a(lib_a-mallocr.o)
                0x0000000024000878                __malloc_sbrk_base
 .data.__malloc_trim_threshold
                0x000000002400087c        0x4 /opt/gcc-arm-none-eabi-10-2020-q4-major/bin/../lib/gcc/arm-none-eabi/10.2.1/../../../../arm-none-eabi/lib/thumb/v7e-m+dp/hard/libg.a(lib_a-mallocr.o)
                0x000000002400087c                __malloc_trim_threshold
 .data.__global_locale
                0x0000000024000880      0x16c /opt/gcc-arm-none-eabi-10-2020-q4-major/bin/../lib/gcc/arm-none-eabi/10.2.1/../../../../arm-none-eabi/lib/thumb/v7e-m+dp/hard/libg.a(lib_a-locale.o)
                0x0000000024000880                __global_locale
 *(.ramtext)
                0x00000000240009ec                . = ALIGN (0x4)
                [!provide]                        PROVIDE (_edata = .)
                0x00000000240009ec                __data_end__ = .

.igot.plt       0x00000000240009ec        0x0 load address 0x0000000008012e34
 .igot.plt      0x00000000240009ec        0x0 build/obj/crt0_v7m.o

.bss            0x0000000024000a00    0x13c34 load address 0x0000000008012e34
                0x0000000024000a00                __bss_base__ = .
 *(.bss)
 *(.bss.*)
 .bss.CAND1     0x0000000024000a00       0x34 /tmp/BPRL.elf.FE4VjG.ltrans0.ltrans.o
 .bss.FatFs     0x0000000024000a34        0x4 /tmp/BPRL.elf.FE4VjG.ltrans0.ltrans.o
 .bss.Fsid      0x0000000024000a38        0x2 /tmp/BPRL.elf.FE4VjG.ltrans0.ltrans.o
 *fill*         0x0000000024000a3a        0x2 
 .bss.SD3       0x0000000024000a3c       0x64 /tmp/BPRL.elf.FE4VjG.ltrans0.ltrans.o
 .bss.SD6       0x0000000024000aa0       0x64 /tmp/BPRL.elf.FE4VjG.ltrans0.ltrans.o
 .bss.SDCD1     0x0000000024000b04       0x54 /tmp/BPRL.elf.FE4VjG.ltrans0.ltrans.o
 .bss.SPID1     0x0000000024000b58       0x30 /tmp/BPRL.elf.FE4VjG.ltrans0.ltrans.o
 .bss.SPID4     0x0000000024000b88       0x30 /tmp/BPRL.elf.FE4VjG.ltrans0.ltrans.o
 .bss.USBD1     0x0000000024000bb8       0x9c /tmp/BPRL.elf.FE4VjG.ltrans0.ltrans.o
 .bss._ZL10s_edge_idx
                0x0000000024000c54        0x4 /tmp/BPRL.elf.FE4VjG.ltrans0.ltrans.o
 .bss._ZL10waStateEst
                0x0000000024000c58     0x19c0 /tmp/BPRL.elf.FE4VjG.ltrans0.ltrans.o
 .bss._ZL11s_telem_mtx
                0x0000000024002618       0x10 /tmp/BPRL.elf.FE4VjG.ltrans0.ltrans.o
 .bss._ZL11waHeartbeat
                0x0000000024002628      0x5c0 /tmp/BPRL.elf.FE4VjG.ltrans0.ltrans.o
 .bss._ZL15num_can_devices
                0x0000000024002be8        0x4 /tmp/BPRL.elf.FE4VjG.ltrans0.ltrans.o
 *fill*         0x0000000024002bec        0x4 
 .bss._ZL5waCAN
                0x0000000024002bf0      0x9c0 /tmp/BPRL.elf.FE4VjG.ltrans0.ltrans.o
 .bss._ZL5waI2C
                0x00000000240035b0      0x5c0 /tmp/BPRL.elf.FE4VjG.ltrans0.ltrans.o
 .bss._ZL5waLog
                0x0000000024003b70     0x21c0 /tmp/BPRL.elf.FE4VjG.ltrans0.ltrans.o
 .bss._ZL5waSPI
                0x0000000024005d30      0x9c0 /tmp/BPRL.elf.FE4VjG.ltrans0.ltrans.o
 .bss._ZL6s_dma6
                0x00000000240066f0        0x4 /tmp/BPRL.elf.FE4VjG.ltrans0.ltrans.o
 .bss._ZL7s_edges
                0x00000000240066f4      0x150 /tmp/BPRL.elf.FE4VjG.ltrans0.ltrans.o
 .bss._ZL7s_telem
                0x0000000024006844       0x20 /tmp/BPRL.elf.FE4VjG.ltrans0.ltrans.o
 *fill*         0x0000000024006864        0x4 
 .bss._ZL7waRadio
                0x0000000024006868      0x5c0 /tmp/BPRL.elf.FE4VjG.ltrans0.ltrans.o
 .bss._ZL8att_ctrl.lto_priv.0
                0x0000000024006e28       0xc8 /tmp/BPRL.elf.FE4VjG.ltrans0.ltrans.o
                0x0000000024006e28                _ZL8att_ctrl.lto_priv.0
 .bss._ZL9can_table
                0x0000000024006ef0       0x60 /tmp/BPRL.elf.FE4VjG.ltrans0.ltrans.o
 .bss._ZL9s_dma_buf
                0x0000000024006f50      0x110 /tmp/BPRL.elf.FE4VjG.ltrans0.ltrans.o
 .bss._ZL9state_mgr.lto_priv.0
                0x0000000024007060     0x3d28 /tmp/BPRL.elf.FE4VjG.ltrans0.ltrans.o
                0x0000000024007060                _ZL9state_mgr.lto_priv.0
 .bss._ZL9waControl
                0x000000002400ad88      0x9c0 /tmp/BPRL.elf.FE4VjG.ltrans0.ltrans.o
 .bss.canclk    0x000000002400b748        0x4 /tmp/BPRL.elf.FE4VjG.ltrans0.ltrans.o
 *fill*         0x000000002400b74c        0x4 
 .bss.ch0       0x000000002400b750      0x890 /tmp/BPRL.elf.FE4VjG.ltrans0.ltrans.o
                0x000000002400b750                ch0
 .bss.ch_c0_idle_thread_wa
                0x000000002400bfe0      0x200 /tmp/BPRL.elf.FE4VjG.ltrans0.ltrans.o
 .bss.ch_factory
                0x000000002400c1e0       0x48 /tmp/BPRL.elf.FE4VjG.ltrans0.ltrans.o
 .bss.ch_memcore
                0x000000002400c228        0x8 /tmp/BPRL.elf.FE4VjG.ltrans0.ltrans.o
 .bss.ch_system
                0x000000002400c230        0xc /tmp/BPRL.elf.FE4VjG.ltrans0.ltrans.o
 .bss.default_heap
                0x000000002400c23c       0x1c /tmp/BPRL.elf.FE4VjG.ltrans0.ltrans.o
 .bss.dma       0x000000002400c258       0x84 /tmp/BPRL.elf.FE4VjG.ltrans0.ltrans.o
 .bss.dummyrx   0x000000002400c2dc        0x4 /tmp/BPRL.elf.FE4VjG.ltrans0.ltrans.o
 .bss.ep0_state
                0x000000002400c2e0       0x10 /tmp/BPRL.elf.FE4VjG.ltrans0.ltrans.o
 .bss.ep0setup_buffer
                0x000000002400c2f0        0x8 /tmp/BPRL.elf.FE4VjG.ltrans0.ltrans.o
 .bss.g_armed   0x000000002400c2f8        0x1 /tmp/BPRL.elf.FE4VjG.ltrans0.ltrans.o
 *fill*         0x000000002400c2f9        0x3 
 .bss.g_can_imu
                0x000000002400c2fc       0x30 /tmp/BPRL.elf.FE4VjG.ltrans0.ltrans.o
 .bss.g_crsf    0x000000002400c32c       0x66 /tmp/BPRL.elf.FE4VjG.ltrans0.ltrans.o
 *fill*         0x000000002400c392        0x2 
 .bss.g_euler   0x000000002400c394        0xc /tmp/BPRL.elf.FE4VjG.ltrans0.ltrans.o
 .bss.g_imu     0x000000002400c3a0       0x54 /tmp/BPRL.elf.FE4VjG.ltrans0.ltrans.o
 .bss.g_input   0x000000002400c3f4       0x10 /tmp/BPRL.elf.FE4VjG.ltrans0.ltrans.o
 .bss.g_mocap   0x000000002400c404       0x1c /tmp/BPRL.elf.FE4VjG.ltrans0.ltrans.o
 .bss.g_state   0x000000002400c420       0x4c /tmp/BPRL.elf.FE4VjG.ltrans0.ltrans.o
 *fill*         0x000000002400c46c       0x14 
 .bss.imu1      0x000000002400c480       0x60 /tmp/BPRL.elf.FE4VjG.ltrans0.ltrans.o
                0x000000002400c480                imu1
 .bss.imu2      0x000000002400c4e0       0x60 /tmp/BPRL.elf.FE4VjG.ltrans0.ltrans.o
                0x000000002400c4e0                imu2
 .bss.imu3      0x000000002400c540       0x60 /tmp/BPRL.elf.FE4VjG.ltrans0.ltrans.o
                0x000000002400c540                imu3
 .bss.logger    0x000000002400c5a0     0x8010 /tmp/BPRL.elf.FE4VjG.ltrans0.ltrans.o
                0x000000002400c5a0                logger
 .bss.sd_in_buf3
                0x00000000240145b0       0x10 /tmp/BPRL.elf.FE4VjG.ltrans0.ltrans.o
 .bss.sd_in_buf6
                0x00000000240145c0       0x10 /tmp/BPRL.elf.FE4VjG.ltrans0.ltrans.o
 .bss.sd_out_buf3
                0x00000000240145d0       0x10 /tmp/BPRL.elf.FE4VjG.ltrans0.ltrans.o
 .bss.sd_out_buf6
                0x00000000240145e0       0x10 /tmp/BPRL.elf.FE4VjG.ltrans0.ltrans.o
 .bss.__malloc_current_mallinfo
                0x00000000240145f0       0x28 /opt/gcc-arm-none-eabi-10-2020-q4-major/bin/../lib/gcc/arm-none-eabi/10.2.1/../../../../arm-none-eabi/lib/thumb/v7e-m+dp/hard/libg.a(lib_a-mallocr.o)
                0x00000000240145f0                __malloc_current_mallinfo
 .bss.__malloc_max_sbrked_mem
                0x0000000024014618        0x4 /opt/gcc-arm-none-eabi-10-2020-q4-major/bin/../lib/gcc/arm-none-eabi/10.2.1/../../../../arm-none-eabi/lib/thumb/v7e-m+dp/hard/libg.a(lib_a-mallocr.o)
                0x0000000024014618                __malloc_max_sbrked_mem
 .bss.__malloc_max_total_mem
                0x000000002401461c        0x4 /opt/gcc-arm-none-eabi-10-2020-q4-major/bin/../lib/gcc/arm-none-eabi/10.2.1/../../../../arm-none-eabi/lib/thumb/v7e-m+dp/hard/libg.a(lib_a-mallocr.o)
                0x000000002401461c                __malloc_max_total_mem
 .bss.__malloc_top_pad
                0x0000000024014620        0x4 /opt/gcc-arm-none-eabi-10-2020-q4-major/bin/../lib/gcc/arm-none-eabi/10.2.1/../../../../arm-none-eabi/lib/thumb/v7e-m+dp/hard/libg.a(lib_a-mallocr.o)
                0x0000000024014620                __malloc_top_pad
 .bss.errno     0x0000000024014624        0x4 /opt/gcc-arm-none-eabi-10-2020-q4-major/bin/../lib/gcc/arm-none-eabi/10.2.1/../../../../arm-none-eabi/lib/thumb/v7e-m+dp/hard/libg.a(lib_a-reent.o)
                0x0000000024014624                errno
 .bss.__lock___malloc_recursive_mutex
                0x0000000024014628        0x1 /opt/gcc-arm-none-eabi-10-2020-q4-major/bin/../lib/gcc/arm-none-eabi/10.2.1/../../../../arm-none-eabi/lib/thumb/v7e-m+dp/hard/libg.a(lib_a-lock.o)
                0x0000000024014628                __lock___malloc_recursive_mutex
 *fill*         0x0000000024014629        0x3 
 .bss.__lock___sfp_recursive_mutex
                0x000000002401462c        0x1 /opt/gcc-arm-none-eabi-10-2020-q4-major/bin/../lib/gcc/arm-none-eabi/10.2.1/../../../../arm-none-eabi/lib/thumb/v7e-m+dp/hard/libg.a(lib_a-lock.o)
                0x000000002401462c                __lock___sfp_recursive_mutex
 *fill*         0x000000002401462d        0x3 
 .bss.__lock___sinit_recursive_mutex
                0x0000000024014630        0x1 /opt/gcc-arm-none-eabi-10-2020-q4-major/bin/../lib/gcc/arm-none-eabi/10.2.1/../../../../arm-none-eabi/lib/thumb/v7e-m+dp/hard/libg.a(lib_a-lock.o)
                0x0000000024014630                __lock___sinit_recursive_mutex
 *(COMMON)
                0x0000000024014634                . = ALIGN (0x4)
 *fill*         0x0000000024014631        0x3 
                0x0000000024014634                __bss_end__ = .
                [!provide]                        PROVIDE (end = .)
                0x0000000024000000                __ram0_base__ = ORIGIN (ram0)
                0x0000000000080000                __ram0_size__ = LENGTH (ram0)
                0x0000000024080000                __ram0_end__ = (__ram0_base__ + __ram0_size__)
                0x0000000030000000                __ram1_base__ = ORIGIN (ram1)
                0x0000000000040000                __ram1_size__ = LENGTH (ram1)
                0x0000000030040000                __ram1_end__ = (__ram1_base__ + __ram1_size__)
                0x0000000030000000                __ram2_base__ = ORIGIN (ram2)
                0x0000000000048000                __ram2_size__ = LENGTH (ram2)
                0x0000000030048000                __ram2_end__ = (__ram2_base__ + __ram2_size__)
                0x0000000030040000                __ram3_base__ = ORIGIN (ram3)
                0x0000000000008000                __ram3_size__ = LENGTH (ram3)
                0x0000000030048000                __ram3_end__ = (__ram3_base__ + __ram3_size__)
                0x0000000038000000                __ram4_base__ = ORIGIN (ram4)
                0x0000000000010000                __ram4_size__ = LENGTH (ram4)
                0x0000000038010000                __ram4_end__ = (__ram4_base__ + __ram4_size__)
                0x0000000020000000                __ram5_base__ = ORIGIN (ram5)
                0x0000000000020000                __ram5_size__ = LENGTH (ram5)
                0x0000000020020000                __ram5_end__ = (__ram5_base__ + __ram5_size__)
                0x0000000000000000                __ram6_base__ = ORIGIN (ram6)
                0x0000000000010000                __ram6_size__ = LENGTH (ram6)
                0x0000000000010000                __ram6_end__ = (__ram6_base__ + __ram6_size__)
                0x0000000038800000                __ram7_base__ = ORIGIN (ram7)
                0x0000000000001000                __ram7_size__ = LENGTH (ram7)
                0x0000000038801000                __ram7_end__ = (__ram7_base__ + __ram7_size__)
                0x0000000008000000                __flash0_base__ = ORIGIN (flash0)
                0x0000000000200000                __flash0_size__ = LENGTH (flash0)
                0x0000000008200000                __flash0_end__ = (__flash0_base__ + __flash0_size__)
                0x0000000008000000                __flash1_base__ = ORIGIN (flash1)
                0x0000000000100000                __flash1_size__ = LENGTH (flash1)
                0x0000000008100000                __flash1_end__ = (__flash1_base__ + __flash1_size__)
                0x0000000008100000                __flash2_base__ = ORIGIN (flash2)
                0x0000000000100000                __flash2_size__ = LENGTH (flash2)
                0x0000000008200000                __flash2_end__ = (__flash2_base__ + __flash2_size__)
                0x0000000000000000                __flash3_base__ = ORIGIN (flash3)
                0x0000000000000000                __flash3_size__ = LENGTH (flash3)
                0x0000000000000000                __flash3_end__ = (__flash3_base__ + __flash3_size__)
                0x0000000000000000                __flash4_base__ = ORIGIN (flash4)
                0x0000000000000000                __flash4_size__ = LENGTH (flash4)
                0x0000000000000000                __flash4_end__ = (__flash4_base__ + __flash4_size__)
                0x0000000000000000                __flash5_base__ = ORIGIN (flash5)
                0x0000000000000000                __flash5_size__ = LENGTH (flash5)
                0x0000000000000000                __flash5_end__ = (__flash5_base__ + __flash5_size__)
                0x0000000000000000                __flash6_base__ = ORIGIN (flash6)
                0x0000000000000000                __flash6_size__ = LENGTH (flash6)
                0x0000000000000000                __flash6_end__ = (__flash6_base__ + __flash6_size__)
                0x0000000000000000                __flash7_base__ = ORIGIN (flash7)
                0x0000000000000000                __flash7_size__ = LENGTH (flash7)
                0x0000000000000000                __flash7_end__ = (__flash7_base__ + __flash7_size__)

.ram0_init      0x0000000024014634        0x0 load address 0x0000000008012e34
                0x0000000008012e34                __ram0_init_text__ = LOADADDR (.ram0_init)
                0x0000000024014634                __ram0_init__ = .
 *(.ram0_init)
 *(.ram0_init.*)
                0x0000000024014634                . = ALIGN (0x4)

.ram0           0x0000000024014634        0x0 load address 0x0000000008012e34
                0x0000000024014634                __ram0_clear__ = .
 *(.ram0_clear)
 *(.ram0_clear.*)
                0x0000000024014634                . = ALIGN (0x4)
                0x0000000024014634                __ram0_noinit__ = .
 *(.ram0)
 *(.ram0.*)
                0x0000000024014634                . = ALIGN (0x4)
                0x0000000024014634                __ram0_free__ = .

.ram1_init      0x0000000030000000        0x0 load address 0x0000000008012e34
                0x0000000008012e34                __ram1_init_text__ = LOADADDR (.ram1_init)
                0x0000000030000000                __ram1_init__ = .
 *(.ram1_init)
 *(.ram1_init.*)
                0x0000000030000000                . = ALIGN (0x4)

.ram1           0x0000000030000000        0x0 load address 0x0000000008012e34
                0x0000000030000000                __ram1_clear__ = .
 *(.ram1_clear)
 *(.ram1_clear.*)
                0x0000000030000000                . = ALIGN (0x4)
                0x0000000030000000                __ram1_noinit__ = .
 *(.ram1)
 *(.ram1.*)
                0x0000000030000000                . = ALIGN (0x4)
                0x0000000030000000                __ram1_free__ = .

.ram2_init      0x0000000030000000        0x0 load address 0x0000000008012e34
                0x0000000008012e34                __ram2_init_text__ = LOADADDR (.ram2_init)
                0x0000000030000000                __ram2_init__ = .
 *(.ram2_init)
 *(.ram2_init.*)
                0x0000000030000000                . = ALIGN (0x4)

.ram2           0x0000000030000000        0x0 load address 0x0000000008012e34
                0x0000000030000000                __ram2_clear__ = .
 *(.ram2_clear)
 *(.ram2_clear.*)
                0x0000000030000000                . = ALIGN (0x4)
                0x0000000030000000                __ram2_noinit__ = .
 *(.ram2)
 *(.ram2.*)
                0x0000000030000000                . = ALIGN (0x4)
                0x0000000030000000                __ram2_free__ = .

.ram3_init      0x000000003004165c        0x0 load address 0x0000000008012e34
                0x0000000008012e34                __ram3_init_text__ = LOADADDR (.ram3_init)
                0x000000003004165c                __ram3_init__ = .
 *(.ram3_init)
 *(.ram3_init.*)
                0x000000003004165c                . = ALIGN (0x4)

.ram3           0x000000003004165c        0x0 load address 0x0000000008012e34
                0x000000003004165c                __ram3_clear__ = .
 *(.ram3_clear)
 *(.ram3_clear.*)
                0x000000003004165c                . = ALIGN (0x4)
                0x000000003004165c                __ram3_noinit__ = .
 *(.ram3)
 *(.ram3.*)
                0x000000003004165c                . = ALIGN (0x4)
                0x000000003004165c                __ram3_free__ = .

.ram4_init      0x0000000038000000        0x0 load address 0x0000000008012e34
                0x0000000008012e34                __ram4_init_text__ = LOADADDR (.ram4_init)
                0x0000000038000000                __ram4_init__ = .
 *(.ram4_init)
 *(.ram4_init.*)
                0x0000000038000000                . = ALIGN (0x4)

.ram4           0x0000000038000000        0x0 load address 0x0000000008012e34
                0x0000000038000000                __ram4_clear__ = .
 *(.ram4_clear)
 *(.ram4_clear.*)
                0x0000000038000000                . = ALIGN (0x4)
                0x0000000038000000                __ram4_noinit__ = .
 *(.ram4)
 *(.ram4.*)
                0x0000000038000000                . = ALIGN (0x4)
                0x0000000038000000                __ram4_free__ = .

.ram5_init      0x0000000020001000        0x0 load address 0x0000000008012e34
                0x0000000008012e34                __ram5_init_text__ = LOADADDR (.ram5_init)
                0x0000000020001000                __ram5_init__ = .
 *(.ram5_init)
 *(.ram5_init.*)
                0x0000000020001000                . = ALIGN (0x4)

.ram5           0x0000000020001000        0x0 load address 0x0000000008012e34
                0x0000000020001000                __ram5_clear__ = .
 *(.ram5_clear)
 *(.ram5_clear.*)
                0x0000000020001000                . = ALIGN (0x4)
                0x0000000020001000                __ram5_noinit__ = .
 *(.ram5)
 *(.ram5.*)
                0x0000000020001000                . = ALIGN (0x4)
                0x0000000020001000                __ram5_free__ = .

.ram6_init      0x0000000000000000        0x0 load address 0x0000000008012e34
                0x0000000008012e34                __ram6_init_text__ = LOADADDR (.ram6_init)
                0x0000000000000000                __ram6_init__ = .
 *(.ram6_init)
 *(.ram6_init.*)
                0x0000000000000000                . = ALIGN (0x4)

.ram6           0x0000000000000000        0x0 load address 0x0000000008012e34
                0x0000000000000000                __ram6_clear__ = .
 *(.ram6_clear)
 *(.ram6_clear.*)
                0x0000000000000000                . = ALIGN (0x4)
                0x0000000000000000                __ram6_noinit__ = .
 *(.ram6)
 *(.ram6.*)
                0x0000000000000000                . = ALIGN (0x4)
                0x0000000000000000                __ram6_free__ = .

.ram7_init      0x0000000038800000        0x0 load address 0x0000000008012e34
                0x0000000008012e34                __ram7_init_text__ = LOADADDR (.ram7_init)
                0x0000000038800000                __ram7_init__ = .
 *(.ram7_init)
 *(.ram7_init.*)
                0x0000000038800000                . = ALIGN (0x4)

.ram7           0x0000000038800000        0x0 load address 0x0000000008012e34
                0x0000000038800000                __ram7_clear__ = .
 *(.ram7_clear)
 *(.ram7_clear.*)
                0x0000000038800000                . = ALIGN (0x4)
                0x0000000038800000                __ram7_noinit__ = .
 *(.ram7)
 *(.ram7.*)
                0x0000000038800000                . = ALIGN (0x4)
                0x0000000038800000                __ram7_free__ = .

.flash0         0x0000000008012e34        0x0
                0x0000000008012e34                __flash0_init__ = .
 *(.flash0_init)
 *(.flash0_init.*)
                0x0000000008012e34                __flash0_free__ = .

.flash1         0x0000000008000000        0x0
                0x0000000008000000                __flash1_init__ = .
 *(.flash1_init)
 *(.flash1_init.*)
                0x0000000008000000                __flash1_free__ = .

.flash2         0x0000000008100000        0x0
                0x0000000008100000                __flash2_init__ = .
 *(.flash2_init)
 *(.flash2_init.*)
                0x0000000008100000                __flash2_free__ = .

.flash3         0x0000000000000000        0x0
                0x0000000000000000                __flash3_init__ = .
 *(.flash3_init)
 *(.flash3_init.*)
                0x0000000000000000                __flash3_free__ = .

.flash4         0x0000000000000000        0x0
                0x0000000000000000                __flash4_init__ = .
 *(.flash4_init)
 *(.flash4_init.*)
                0x0000000000000000                __flash4_free__ = .

.flash5         0x0000000000000000        0x0
                0x0000000000000000                __flash5_init__ = .
 *(.flash5_init)
 *(.flash5_init.*)
                0x0000000000000000                __flash5_free__ = .

.flash6         0x0000000000000000        0x0
                0x0000000000000000                __flash6_init__ = .
 *(.flash6_init)
 *(.flash6_init.*)
                0x0000000000000000                __flash6_free__ = .

.flash7         0x0000000000000000        0x0
                0x0000000000000000                __flash7_init__ = .
 *(.flash7_init)
 *(.flash7_init.*)
                0x0000000000000000                __flash7_free__ = .

.heap           0x0000000024014634    0x6b9cc
                0x0000000024014638                . = ALIGN (0x8)
 *fill*         0x0000000024014634        0x4 
                0x0000000024014638                __heap_base__ = .
                0x0000000024080000                . = (ORIGIN (HEAP_RAM) + LENGTH (HEAP_RAM))
 *fill*         0x0000000024014638    0x6b9c8 
                0x0000000024080000                __heap_end__ = .
                0x0000000000000800                __process_stack_size__ = 0x800
                0x0000000000000800                __main_stack_size__ = 0x800
LOAD /opt/gcc-arm-none-eabi-10-2020-q4-major/bin/../lib/gcc/arm-none-eabi/10.2.1/../../../../arm-none-eabi/lib/thumb/v7e-m+dp/hard/libm.a
START GROUP
LOAD /opt/gcc-arm-none-eabi-10-2020-q4-major/bin/../lib/gcc/arm-none-eabi/10.2.1/thumb/v7e-m+dp/hard/libgcc.a
LOAD /opt/gcc-arm-none-eabi-10-2020-q4-major/bin/../lib/gcc/arm-none-eabi/10.2.1/../../../../arm-none-eabi/lib/thumb/v7e-m+dp/hard/libg.a
LOAD /opt/gcc-arm-none-eabi-10-2020-q4-major/bin/../lib/gcc/arm-none-eabi/10.2.1/../../../../arm-none-eabi/lib/thumb/v7e-m+dp/hard/libc.a
END GROUP
OUTPUT(build/BPRL.elf elf32-littlearm)
LOAD linker stubs

.ARM.attributes
                0x0000000000000000       0x33
 .ARM.attributes
                0x0000000000000000       0x25 build/obj/crt0_v7m.o
 .ARM.attributes
                0x0000000000000025       0x23 build/obj/vectors.o
 .ARM.attributes
                0x0000000000000048       0x25 build/obj/chcoreasm.o
 .ARM.attributes
                0x000000000000006d       0x30 /tmp/BPRL.elf.FE4VjG.ltrans0.ltrans.o
 .ARM.attributes
                0x000000000000009d       0x30 /tmp/BPRL.elf.FE4VjG.ltrans1.ltrans.o
 .ARM.attributes
                0x00000000000000cd       0x32 /opt/gcc-arm-none-eabi-10-2020-q4-major/bin/../lib/gcc/arm-none-eabi/10.2.1/../../../../arm-none-eabi/lib/thumb/v7e-m+dp/hard/libm.a(lib_a-cosf.o)
 .ARM.attributes
                0x00000000000000ff       0x32 /opt/gcc-arm-none-eabi-10-2020-q4-major/bin/../lib/gcc/arm-none-eabi/10.2.1/../../../../arm-none-eabi/lib/thumb/v7e-m+dp/hard/libm.a(lib_a-math_errf.o)
 .ARM.attributes
                0x0000000000000131       0x30 /opt/gcc-arm-none-eabi-10-2020-q4-major/bin/../lib/gcc/arm-none-eabi/10.2.1/../../../../arm-none-eabi/lib/thumb/v7e-m+dp/hard/libm.a(lib_a-sincosf_data.o)
 .ARM.attributes
                0x0000000000000161       0x32 /opt/gcc-arm-none-eabi-10-2020-q4-major/bin/../lib/gcc/arm-none-eabi/10.2.1/../../../../arm-none-eabi/lib/thumb/v7e-m+dp/hard/libm.a(lib_a-wf_asin.o)
 .ARM.attributes
                0x0000000000000193       0x32 /opt/gcc-arm-none-eabi-10-2020-q4-major/bin/../lib/gcc/arm-none-eabi/10.2.1/../../../../arm-none-eabi/lib/thumb/v7e-m+dp/hard/libm.a(lib_a-wf_atan2.o)
 .ARM.attributes
                0x00000000000001c5       0x32 /opt/gcc-arm-none-eabi-10-2020-q4-major/bin/../lib/gcc/arm-none-eabi/10.2.1/../../../../arm-none-eabi/lib/thumb/v7e-m+dp/hard/libm.a(lib_a-wf_sqrt.o)
 .ARM.attributes
                0x00000000000001f7       0x32 /opt/gcc-arm-none-eabi-10-2020-q4-major/bin/../lib/gcc/arm-none-eabi/10.2.1/../../../../arm-none-eabi/lib/thumb/v7e-m+dp/hard/libm.a(lib_a-ef_asin.o)
 .ARM.attributes
                0x0000000000000229       0x32 /opt/gcc-arm-none-eabi-10-2020-q4-major/bin/../lib/gcc/arm-none-eabi/10.2.1/../../../../arm-none-eabi/lib/thumb/v7e-m+dp/hard/libm.a(lib_a-ef_atan2.o)
 .ARM.attributes
                0x000000000000025b       0x32 /opt/gcc-arm-none-eabi-10-2020-q4-major/bin/../lib/gcc/arm-none-eabi/10.2.1/../../../../arm-none-eabi/lib/thumb/v7e-m+dp/hard/libm.a(lib_a-ef_sqrt.o)
 .ARM.attributes
                0x000000000000028d       0x30 /opt/gcc-arm-none-eabi-10-2020-q4-major/bin/../lib/gcc/arm-none-eabi/10.2.1/../../../../arm-none-eabi/lib/thumb/v7e-m+dp/hard/libm.a(lib_a-s_lib_ver.o)
 .ARM.attributes
                0x00000000000002bd       0x32 /opt/gcc-arm-none-eabi-10-2020-q4-major/bin/../lib/gcc/arm-none-eabi/10.2.1/../../../../arm-none-eabi/lib/thumb/v7e-m+dp/hard/libm.a(lib_a-sf_atan.o)
 .ARM.attributes
                0x00000000000002ef       0x32 /opt/gcc-arm-none-eabi-10-2020-q4-major/bin/../lib/gcc/arm-none-eabi/10.2.1/../../../../arm-none-eabi/lib/thumb/v7e-m+dp/hard/libm.a(lib_a-sf_fabs.o)
 .ARM.attributes
                0x0000000000000321       0x32 /opt/gcc-arm-none-eabi-10-2020-q4-major/bin/../lib/gcc/arm-none-eabi/10.2.1/../../../../arm-none-eabi/lib/thumb/v7e-m+dp/hard/libm.a(lib_a-sf_nan.o)
 .ARM.attributes
                0x0000000000000353       0x1e /opt/gcc-arm-none-eabi-10-2020-q4-major/bin/../lib/gcc/arm-none-eabi/10.2.1/thumb/v7e-m+dp/hard/libgcc.a(_arm_addsubdf3.o)
 .ARM.attributes
                0x0000000000000371       0x1e /opt/gcc-arm-none-eabi-10-2020-q4-major/bin/../lib/gcc/arm-none-eabi/10.2.1/thumb/v7e-m+dp/hard/libgcc.a(_aeabi_uldivmod.o)
 .ARM.attributes
                0x000000000000038f       0x32 /opt/gcc-arm-none-eabi-10-2020-q4-major/bin/../lib/gcc/arm-none-eabi/10.2.1/thumb/v7e-m+dp/hard/libgcc.a(_udivmoddi4.o)
 .ARM.attributes
                0x00000000000003c1       0x32 /opt/gcc-arm-none-eabi-10-2020-q4-major/bin/../lib/gcc/arm-none-eabi/10.2.1/thumb/v7e-m+dp/hard/libgcc.a(unwind-arm.o)
 .ARM.attributes
                0x00000000000003f3       0x1e /opt/gcc-arm-none-eabi-10-2020-q4-major/bin/../lib/gcc/arm-none-eabi/10.2.1/thumb/v7e-m+dp/hard/libgcc.a(libunwind.o)
 .ARM.attributes
                0x0000000000000411       0x32 /opt/gcc-arm-none-eabi-10-2020-q4-major/bin/../lib/gcc/arm-none-eabi/10.2.1/thumb/v7e-m+dp/hard/libgcc.a(pr-support.o)
 .ARM.attributes
                0x0000000000000443       0x1e /opt/gcc-arm-none-eabi-10-2020-q4-major/bin/../lib/gcc/arm-none-eabi/10.2.1/thumb/v7e-m+dp/hard/libgcc.a(_dvmd_tls.o)
 .ARM.attributes
                0x0000000000000461       0x30 /opt/gcc-arm-none-eabi-10-2020-q4-major/bin/../lib/gcc/arm-none-eabi/10.2.1/../../../../arm-none-eabi/lib/thumb/v7e-m+dp/hard/libg.a(lib_a-ctype_.o)
 .ARM.attributes
                0x0000000000000491       0x32 /opt/gcc-arm-none-eabi-10-2020-q4-major/bin/../lib/gcc/arm-none-eabi/10.2.1/../../../../arm-none-eabi/lib/thumb/v7e-m+dp/hard/libg.a(lib_a-errno.o)
 .ARM.attributes
                0x00000000000004c3       0x30 /opt/gcc-arm-none-eabi-10-2020-q4-major/bin/../lib/gcc/arm-none-eabi/10.2.1/../../../../arm-none-eabi/lib/thumb/v7e-m+dp/hard/libg.a(lib_a-impure.o)
 .ARM.attributes
                0x00000000000004f3       0x32 /opt/gcc-arm-none-eabi-10-2020-q4-major/bin/../lib/gcc/arm-none-eabi/10.2.1/../../../../arm-none-eabi/lib/thumb/v7e-m+dp/hard/libg.a(lib_a-abort.o)
 .ARM.attributes
                0x0000000000000525       0x32 /opt/gcc-arm-none-eabi-10-2020-q4-major/bin/../lib/gcc/arm-none-eabi/10.2.1/../../../../arm-none-eabi/lib/thumb/v7e-m+dp/hard/libg.a(lib_a-memcmp.o)
 .ARM.attributes
                0x0000000000000557       0x1c /opt/gcc-arm-none-eabi-10-2020-q4-major/bin/../lib/gcc/arm-none-eabi/10.2.1/../../../../arm-none-eabi/lib/thumb/v7e-m+dp/hard/libg.a(lib_a-memcpy.o)
 .ARM.attributes
                0x0000000000000573       0x32 /opt/gcc-arm-none-eabi-10-2020-q4-major/bin/../lib/gcc/arm-none-eabi/10.2.1/../../../../arm-none-eabi/lib/thumb/v7e-m+dp/hard/libg.a(lib_a-memset.o)
 .ARM.attributes
                0x00000000000005a5       0x32 /opt/gcc-arm-none-eabi-10-2020-q4-major/bin/../lib/gcc/arm-none-eabi/10.2.1/../../../../arm-none-eabi/lib/thumb/v7e-m+dp/hard/libg.a(lib_a-signal.o)
 .ARM.attributes
                0x00000000000005d7       0x32 /opt/gcc-arm-none-eabi-10-2020-q4-major/bin/../lib/gcc/arm-none-eabi/10.2.1/../../../../arm-none-eabi/lib/thumb/v7e-m+dp/hard/libg.a(lib_a-signalr.o)
 .ARM.attributes
                0x0000000000000609       0x32 /opt/gcc-arm-none-eabi-10-2020-q4-major/bin/../lib/gcc/arm-none-eabi/10.2.1/../../../../arm-none-eabi/lib/thumb/v7e-m+dp/hard/libg.a(lib_a-snprintf.o)
 .ARM.attributes
                0x000000000000063b       0x32 /opt/gcc-arm-none-eabi-10-2020-q4-major/bin/../lib/gcc/arm-none-eabi/10.2.1/../../../../arm-none-eabi/lib/thumb/v7e-m+dp/hard/libg.a(lib_a-strchr.o)
 .ARM.attributes
                0x000000000000066d       0x32 /opt/gcc-arm-none-eabi-10-2020-q4-major/bin/../lib/gcc/arm-none-eabi/10.2.1/../../../../arm-none-eabi/lib/thumb/v7e-m+dp/hard/libg.a(lib_a-strncpy.o)
 .ARM.attributes
                0x000000000000069f       0x32 /opt/gcc-arm-none-eabi-10-2020-q4-major/bin/../lib/gcc/arm-none-eabi/10.2.1/../../../../arm-none-eabi/lib/thumb/v7e-m+dp/hard/libg.a(lib_a-svfprintf.o)
 .ARM.attributes
                0x00000000000006d1       0x32 /opt/gcc-arm-none-eabi-10-2020-q4-major/bin/../lib/gcc/arm-none-eabi/10.2.1/../../../../arm-none-eabi/lib/thumb/v7e-m+dp/hard/libg.a(lib_a-dtoa.o)
 .ARM.attributes
                0x0000000000000703       0x32 /opt/gcc-arm-none-eabi-10-2020-q4-major/bin/../lib/gcc/arm-none-eabi/10.2.1/../../../../arm-none-eabi/lib/thumb/v7e-m+dp/hard/libg.a(lib_a-freer.o)
 .ARM.attributes
                0x0000000000000735       0x32 /opt/gcc-arm-none-eabi-10-2020-q4-major/bin/../lib/gcc/arm-none-eabi/10.2.1/../../../../arm-none-eabi/lib/thumb/v7e-m+dp/hard/libg.a(lib_a-localeconv.o)
 .ARM.attributes
                0x0000000000000767       0x32 /opt/gcc-arm-none-eabi-10-2020-q4-major/bin/../lib/gcc/arm-none-eabi/10.2.1/../../../../arm-none-eabi/lib/thumb/v7e-m+dp/hard/libg.a(lib_a-mallocr.o)
 .ARM.attributes
                0x0000000000000799       0x1c /opt/gcc-arm-none-eabi-10-2020-q4-major/bin/../lib/gcc/arm-none-eabi/10.2.1/../../../../arm-none-eabi/lib/thumb/v7e-m+dp/hard/libg.a(lib_a-memchr.o)
 .ARM.attributes
                0x00000000000007b5       0x32 /opt/gcc-arm-none-eabi-10-2020-q4-major/bin/../lib/gcc/arm-none-eabi/10.2.1/../../../../arm-none-eabi/lib/thumb/v7e-m+dp/hard/libg.a(lib_a-mlock.o)
 .ARM.attributes
                0x00000000000007e7       0x32 /opt/gcc-arm-none-eabi-10-2020-q4-major/bin/../lib/gcc/arm-none-eabi/10.2.1/../../../../arm-none-eabi/lib/thumb/v7e-m+dp/hard/libg.a(lib_a-mprec.o)
 .ARM.attributes
                0x0000000000000819       0x32 /opt/gcc-arm-none-eabi-10-2020-q4-major/bin/../lib/gcc/arm-none-eabi/10.2.1/../../../../arm-none-eabi/lib/thumb/v7e-m+dp/hard/libg.a(lib_a-reent.o)
 .ARM.attributes
                0x000000000000084b       0x32 /opt/gcc-arm-none-eabi-10-2020-q4-major/bin/../lib/gcc/arm-none-eabi/10.2.1/../../../../arm-none-eabi/lib/thumb/v7e-m+dp/hard/libg.a(lib_a-s_frexp.o)
 .ARM.attributes
                0x000000000000087d       0x1c /opt/gcc-arm-none-eabi-10-2020-q4-major/bin/../lib/gcc/arm-none-eabi/10.2.1/../../../../arm-none-eabi/lib/thumb/v7e-m+dp/hard/libg.a(lib_a-strlen.o)
 .ARM.attributes
                0x0000000000000899       0x32 /opt/gcc-arm-none-eabi-10-2020-q4-major/bin/../lib/gcc/arm-none-eabi/10.2.1/../../../../arm-none-eabi/lib/thumb/v7e-m+dp/hard/libg.a(lib_a-svfiprintf.o)
 .ARM.attributes
                0x00000000000008cb       0x32 /opt/gcc-arm-none-eabi-10-2020-q4-major/bin/../lib/gcc/arm-none-eabi/10.2.1/../../../../arm-none-eabi/lib/thumb/v7e-m+dp/hard/libg.a(lib_a-assert.o)
 .ARM.attributes
                0x00000000000008fd       0x32 /opt/gcc-arm-none-eabi-10-2020-q4-major/bin/../lib/gcc/arm-none-eabi/10.2.1/../../../../arm-none-eabi/lib/thumb/v7e-m+dp/hard/libg.a(lib_a-callocr.o)
 .ARM.attributes
                0x000000000000092f       0x32 /opt/gcc-arm-none-eabi-10-2020-q4-major/bin/../lib/gcc/arm-none-eabi/10.2.1/../../../../arm-none-eabi/lib/thumb/v7e-m+dp/hard/libg.a(lib_a-fiprintf.o)
 .ARM.attributes
                0x0000000000000961       0x32 /opt/gcc-arm-none-eabi-10-2020-q4-major/bin/../lib/gcc/arm-none-eabi/10.2.1/../../../../arm-none-eabi/lib/thumb/v7e-m+dp/hard/libg.a(lib_a-locale.o)
 .ARM.attributes
                0x0000000000000993       0x32 /opt/gcc-arm-none-eabi-10-2020-q4-major/bin/../lib/gcc/arm-none-eabi/10.2.1/../../../../arm-none-eabi/lib/thumb/v7e-m+dp/hard/libg.a(lib_a-lock.o)
 .ARM.attributes
                0x00000000000009c5       0x32 /opt/gcc-arm-none-eabi-10-2020-q4-major/bin/../lib/gcc/arm-none-eabi/10.2.1/../../../../arm-none-eabi/lib/thumb/v7e-m+dp/hard/libg.a(lib_a-mbtowc_r.o)
 .ARM.attributes
                0x00000000000009f7       0x32 /opt/gcc-arm-none-eabi-10-2020-q4-major/bin/../lib/gcc/arm-none-eabi/10.2.1/../../../../arm-none-eabi/lib/thumb/v7e-m+dp/hard/libg.a(lib_a-memmove.o)
 .ARM.attributes
                0x0000000000000a29       0x32 /opt/gcc-arm-none-eabi-10-2020-q4-major/bin/../lib/gcc/arm-none-eabi/10.2.1/../../../../arm-none-eabi/lib/thumb/v7e-m+dp/hard/libg.a(lib_a-reallocr.o)
 .ARM.attributes
                0x0000000000000a5b       0x32 /opt/gcc-arm-none-eabi-10-2020-q4-major/bin/../lib/gcc/arm-none-eabi/10.2.1/../../../../arm-none-eabi/lib/thumb/v7e-m+dp/hard/libg.a(lib_a-vfiprintf.o)
 .ARM.attributes
                0x0000000000000a8d       0x32 /opt/gcc-arm-none-eabi-10-2020-q4-major/bin/../lib/gcc/arm-none-eabi/10.2.1/../../../../arm-none-eabi/lib/thumb/v7e-m+dp/hard/libg.a(lib_a-wctomb_r.o)
 .ARM.attributes
                0x0000000000000abf       0x32 /opt/gcc-arm-none-eabi-10-2020-q4-major/bin/../lib/gcc/arm-none-eabi/10.2.1/../../../../arm-none-eabi/lib/thumb/v7e-m+dp/hard/libg.a(lib_a-wsetup.o)
 .ARM.attributes
                0x0000000000000af1       0x32 /opt/gcc-arm-none-eabi-10-2020-q4-major/bin/../lib/gcc/arm-none-eabi/10.2.1/../../../../arm-none-eabi/lib/thumb/v7e-m+dp/hard/libg.a(lib_a-fflush.o)
 .ARM.attributes
                0x0000000000000b23       0x32 /opt/gcc-arm-none-eabi-10-2020-q4-major/bin/../lib/gcc/arm-none-eabi/10.2.1/../../../../arm-none-eabi/lib/thumb/v7e-m+dp/hard/libg.a(lib_a-findfp.o)
 .ARM.attributes
                0x0000000000000b55       0x32 /opt/gcc-arm-none-eabi-10-2020-q4-major/bin/../lib/gcc/arm-none-eabi/10.2.1/../../../../arm-none-eabi/lib/thumb/v7e-m+dp/hard/libg.a(lib_a-fputwc.o)
 .ARM.attributes
                0x0000000000000b87       0x32 /opt/gcc-arm-none-eabi-10-2020-q4-major/bin/../lib/gcc/arm-none-eabi/10.2.1/../../../../arm-none-eabi/lib/thumb/v7e-m+dp/hard/libg.a(lib_a-fvwrite.o)
 .ARM.attributes
                0x0000000000000bb9       0x32 /opt/gcc-arm-none-eabi-10-2020-q4-major/bin/../lib/gcc/arm-none-eabi/10.2.1/../../../../arm-none-eabi/lib/thumb/v7e-m+dp/hard/libg.a(lib_a-fwalk.o)
 .ARM.attributes
                0x0000000000000beb       0x32 /opt/gcc-arm-none-eabi-10-2020-q4-major/bin/../lib/gcc/arm-none-eabi/10.2.1/../../../../arm-none-eabi/lib/thumb/v7e-m+dp/hard/libg.a(lib_a-makebuf.o)
 .ARM.attributes
                0x0000000000000c1d       0x32 /opt/gcc-arm-none-eabi-10-2020-q4-major/bin/../lib/gcc/arm-none-eabi/10.2.1/../../../../arm-none-eabi/lib/thumb/v7e-m+dp/hard/libg.a(lib_a-stdio.o)
 .ARM.attributes
                0x0000000000000c4f       0x32 /opt/gcc-arm-none-eabi-10-2020-q4-major/bin/../lib/gcc/arm-none-eabi/10.2.1/../../../../arm-none-eabi/lib/thumb/v7e-m+dp/hard/libg.a(lib_a-wbuf.o)
 .ARM.attributes
                0x0000000000000c81       0x32 /opt/gcc-arm-none-eabi-10-2020-q4-major/bin/../lib/gcc/arm-none-eabi/10.2.1/../../../../arm-none-eabi/lib/thumb/v7e-m+dp/hard/libg.a(lib_a-wcrtomb.o)
 .ARM.attributes
                0x0000000000000cb3       0x32 /opt/gcc-arm-none-eabi-10-2020-q4-major/bin/../lib/gcc/arm-none-eabi/10.2.1/../../../../arm-none-eabi/lib/thumb/v7e-m+dp/hard/libg.a(lib_a-fclose.o)

.comment        0x0000000000000000       0x4d
 .comment       0x0000000000000000       0x4d /tmp/BPRL.elf.FE4VjG.ltrans0.ltrans.o
                                         0x4e (size before relaxing)
 .comment       0x000000000000004d       0x4e /tmp/BPRL.elf.FE4VjG.ltrans1.ltrans.o

.debug_line     0x0000000000000000    0x1ec35
 .debug_line    0x0000000000000000       0xe3 build/obj/crt0_v7m.o
 .debug_line    0x00000000000000e3       0x7a build/obj/vectors.o
 .debug_line    0x000000000000015d       0x8f build/obj/chcoreasm.o
 .debug_line    0x00000000000001ec    0x1359e /tmp/BPRL.elf.FE4VjG.ltrans0.ltrans.o
 .debug_line    0x000000000001378a      0x905 /tmp/BPRL.elf.FE4VjG.ltrans1.ltrans.o
 .debug_line    0x000000000001408f      0x162 /tmp/cc1AI8gk.debug.temp.o
 .debug_line    0x00000000000141f1       0x77 /tmp/cckiIMyo.debug.temp.o
 .debug_line    0x0000000000014268      0x1a5 /tmp/ccbdkTrP.debug.temp.o
 .debug_line    0x000000000001440d      0x2a4 /tmp/cc0Cj8E8.debug.temp.o
 .debug_line    0x00000000000146b1      0x191 /tmp/cc1hHXIF.debug.temp.o
 .debug_line    0x0000000000014842      0x34f /tmp/ccjdzKfz.debug.temp.o
 .debug_line    0x0000000000014b91      0x39c /tmp/ccn6xZbq.debug.temp.o
 .debug_line    0x0000000000014f2d      0x3b2 /tmp/ccfUCnJW.debug.temp.o
 .debug_line    0x00000000000152df      0x42c /tmp/ccShXzVe.debug.temp.o
 .debug_line    0x000000000001570b      0x2c4 /tmp/ccHtzOWh.debug.temp.o
 .debug_line    0x00000000000159cf      0x147 /tmp/cc3twoij.debug.temp.o
 .debug_line    0x0000000000015b16      0x785 /tmp/ccFIp4O1.debug.temp.o
 .debug_line    0x000000000001629b      0x219 /tmp/ccGfNtvL.debug.temp.o
 .debug_line    0x00000000000164b4      0x2cd /tmp/ccGhAOcz.debug.temp.o
 .debug_line    0x0000000000016781      0x3e9 /tmp/ccoABdJL.debug.temp.o
 .debug_line    0x0000000000016b6a      0x12b /tmp/ccVLgFnA.debug.temp.o
 .debug_line    0x0000000000016c95      0x359 /tmp/cc8KHu6o.debug.temp.o
 .debug_line    0x0000000000016fee      0x3d7 /tmp/ccxcVT2h.debug.temp.o
 .debug_line    0x00000000000173c5      0x48e /tmp/ccWqfuMc.debug.temp.o
 .debug_line    0x0000000000017853      0x2aa /tmp/ccXDelKO.debug.temp.o
 .debug_line    0x0000000000017afd      0x3d7 /tmp/ccyDIc7b.debug.temp.o
 .debug_line    0x0000000000017ed4      0x2eb /tmp/cc2aLvbc.debug.temp.o
 .debug_line    0x00000000000181bf      0x203 /tmp/cctFC6ic.debug.temp.o
 .debug_line    0x00000000000183c2      0x29d /tmp/ccSZMTci.debug.temp.o
 .debug_line    0x000000000001865f      0x28c /tmp/ccNe19st.debug.temp.o
 .debug_line    0x00000000000188eb      0x255 /tmp/ccqlIZIv.debug.temp.o
 .debug_line    0x0000000000018b40      0x274 /tmp/cc4sZw6e.debug.temp.o
 .debug_line    0x0000000000018db4      0x2f9 /tmp/ccyZJoui.debug.temp.o
 .debug_line    0x00000000000190ad      0x252 /tmp/ccBmOTdn.debug.temp.o
 .debug_line    0x00000000000192ff      0x2d1 /tmp/cczV1lYM.debug.temp.o
 .debug_line    0x00000000000195d0      0x265 /tmp/cc2JkTMX.debug.temp.o
 .debug_line    0x0000000000019835      0x26a /tmp/cccR94mW.debug.temp.o
 .debug_line    0x0000000000019a9f      0x231 /tmp/ccmBwYlf.debug.temp.o
 .debug_line    0x0000000000019cd0      0x29c /tmp/cc9pEMiJ.debug.temp.o
 .debug_line    0x0000000000019f6c      0x273 /tmp/cceUumu1.debug.temp.o
 .debug_line    0x000000000001a1df      0x2d5 /tmp/ccUjBBsu.debug.temp.o
 .debug_line    0x000000000001a4b4      0x270 /tmp/ccMZuXoC.debug.temp.o
 .debug_line    0x000000000001a724      0x365 /tmp/ccKhrB7B.debug.temp.o
 .debug_line    0x000000000001aa89      0x108 /tmp/ccyMIKzN.debug.temp.o
 .debug_line    0x000000000001ab91      0x137 /tmp/ccn9r2Hy.debug.temp.o
 .debug_line    0x000000000001acc8      0x193 /tmp/cczvTYYv.debug.temp.o
 .debug_line    0x000000000001ae5b      0x252 /tmp/ccsvxdtZ.debug.temp.o
 .debug_line    0x000000000001b0ad      0x6bf /tmp/cc1R7395.debug.temp.o
 .debug_line    0x000000000001b76c      0x296 /tmp/cca2FiSo.debug.temp.o
 .debug_line    0x000000000001ba02      0x2b4 /tmp/ccTEgzi9.debug.temp.o
 .debug_line    0x000000000001bcb6      0x2e4 /tmp/ccVtlQW8.debug.temp.o
 .debug_line    0x000000000001bf9a      0x2f9 /tmp/cckVIbWA.debug.temp.o
 .debug_line    0x000000000001c293      0x3eb /tmp/ccwo63eS.debug.temp.o
 .debug_line    0x000000000001c67e      0x239 /tmp/ccQl3QoJ.debug.temp.o
 .debug_line    0x000000000001c8b7      0x4e8 /tmp/ccW4cvUs.debug.temp.o
 .debug_line    0x000000000001cd9f      0x4e8 /tmp/ccrLOXrd.debug.temp.o
 .debug_line    0x000000000001d287      0x415 /tmp/ccUA5s9m.debug.temp.o
 .debug_line    0x000000000001d69c      0x400 /tmp/ccTUmnEl.debug.temp.o
 .debug_line    0x000000000001da9c      0x206 /tmp/cc4q1Zko.debug.temp.o
 .debug_line    0x000000000001dca2      0x44e /tmp/cc9t8zi9.debug.temp.o
 .debug_line    0x000000000001e0f0      0x214 /tmp/ccBpW6ak.debug.temp.o
 .debug_line    0x000000000001e304      0x45a /tmp/ccOKxzCx.debug.temp.o
 .debug_line    0x000000000001e75e      0x4d7 /tmp/ccV4PTbm.debug.temp.o

.debug_info     0x0000000000000000    0x55767
 .debug_info    0x0000000000000000       0x26 build/obj/crt0_v7m.o
 .debug_info    0x0000000000000026       0x26 build/obj/vectors.o
 .debug_info    0x000000000000004c       0x26 build/obj/chcoreasm.o
 .debug_info    0x0000000000000072    0x19fc0 /tmp/BPRL.elf.FE4VjG.ltrans0.ltrans.o
 .debug_info    0x000000000001a032      0xde9 /tmp/BPRL.elf.FE4VjG.ltrans1.ltrans.o
 .debug_info    0x000000000001ae1b      0x70d /tmp/cc1AI8gk.debug.temp.o
                0x000000000001ae1b                crt1.c.b6de2587
 .debug_info    0x000000000001b528       0x8a /tmp/cckiIMyo.debug.temp.o
                0x000000000001b528                hal.c.cb4d8c38
 .debug_info    0x000000000001b5b2      0x315 /tmp/ccbdkTrP.debug.temp.o
                0x000000000001b5b2                hal_st.c.0e4b3f24
 .debug_info    0x000000000001b8c7      0x807 /tmp/cc0Cj8E8.debug.temp.o
                0x000000000001b8c7                hal_queues.c.4ebce93a
 .debug_info    0x000000000001c0ce      0xbb8 /tmp/cc1hHXIF.debug.temp.o
                0x000000000001c0ce                hal_mmcsd.c.7423bf08
 .debug_info    0x000000000001cc86     0x1757 /tmp/ccjdzKfz.debug.temp.o
                0x000000000001cc86                hal_can.c.74b7e86c
 .debug_info    0x000000000001e3dd     0x16a7 /tmp/ccn6xZbq.debug.temp.o
                0x000000000001e3dd                hal_sdc.c.5b1ff59c
 .debug_info    0x000000000001fa84     0x13c5 /tmp/ccfUCnJW.debug.temp.o
                0x000000000001fa84                hal_serial.c.d1717de3
 .debug_info    0x0000000000020e49     0x13d1 /tmp/ccShXzVe.debug.temp.o
                0x0000000000020e49                hal_spi.c.c4625a1e
 .debug_info    0x000000000002221a     0x1151 /tmp/ccHtzOWh.debug.temp.o
                0x000000000002221a                hal_usb.c.2b0b62a6
 .debug_info    0x000000000002336b      0x68b /tmp/cc3twoij.debug.temp.o
                0x000000000002336b                nvic.c.ea6e8417
 .debug_info    0x00000000000239f6     0x1bcd /tmp/ccFIp4O1.debug.temp.o
                0x00000000000239f6                stm32_isr.c.bd0353dd
 .debug_info    0x00000000000255c3      0xe10 /tmp/ccGfNtvL.debug.temp.o
                0x00000000000255c3                hal_lld.c.bcdc0906
 .debug_info    0x00000000000263d3      0xb66 /tmp/ccGhAOcz.debug.temp.o
                0x00000000000263d3                stm32_dma.c.7e48d5ab
 .debug_info    0x0000000000026f39     0x1c8e /tmp/ccoABdJL.debug.temp.o
                0x0000000000026f39                hal_can_lld.c.1963d60f
 .debug_info    0x0000000000028bc7      0x267 /tmp/ccVLgFnA.debug.temp.o
                0x0000000000028bc7                hal_pal_lld.c.898bb531
 .debug_info    0x0000000000028e2e     0x17ba /tmp/cc8KHu6o.debug.temp.o
                0x0000000000028e2e                hal_usb_lld.c.ea7d1818
 .debug_info    0x000000000002a5e8     0x1b36 /tmp/ccxcVT2h.debug.temp.o
                0x000000000002a5e8                hal_sdc_lld.c.214897f0
 .debug_info    0x000000000002c11e     0x1761 /tmp/ccWqfuMc.debug.temp.o
                0x000000000002c11e                hal_spi_lld.c.d5a1ccbe
 .debug_info    0x000000000002d87f      0x776 /tmp/ccXDelKO.debug.temp.o
                0x000000000002d87f                hal_st_lld.c.a413bc5c
 .debug_info    0x000000000002dff5     0x161e /tmp/ccyDIc7b.debug.temp.o
                0x000000000002dff5                hal_serial_lld.c.267eaf65
 .debug_info    0x000000000002f613     0x1060 /tmp/cc2aLvbc.debug.temp.o
                0x000000000002f613                chsys.c.a8457516
 .debug_info    0x0000000000030673      0xa34 /tmp/cctFC6ic.debug.temp.o
                0x0000000000030673                chrfcu.c.5453f9e4
 .debug_info    0x00000000000310a7      0xe1b /tmp/ccSZMTci.debug.temp.o
                0x00000000000310a7                chtrace.c.43b8c317
 .debug_info    0x0000000000031ec2     0x1083 /tmp/ccNe19st.debug.temp.o
                0x0000000000031ec2                chvt.c.35b1c722
 .debug_info    0x0000000000032f45      0xf20 /tmp/ccqlIZIv.debug.temp.o
                0x0000000000032f45                chschd.c.d4205703
 .debug_info    0x0000000000033e65      0xe91 /tmp/cc4sZw6e.debug.temp.o
                0x0000000000033e65                chinstances.c.dc118fa3
 .debug_info    0x0000000000034cf6     0x12da /tmp/ccyZJoui.debug.temp.o
                0x0000000000034cf6                chthreads.c.4f84bb7c
 .debug_info    0x0000000000035fd0      0xd8f /tmp/ccBmOTdn.debug.temp.o
                0x0000000000035fd0                chtm.c.b664315d
 .debug_info    0x0000000000036d5f      0xe59 /tmp/cczV1lYM.debug.temp.o
                0x0000000000036d5f                chregistry.c.b0c0b795
 .debug_info    0x0000000000037bb8      0xdb8 /tmp/cc2JkTMX.debug.temp.o
                0x0000000000037bb8                chmtx.c.3b35cec8
 .debug_info    0x0000000000038970      0xfe7 /tmp/cccR94mW.debug.temp.o
                0x0000000000038970                chevents.c.179c7ce6
 .debug_info    0x0000000000039957      0x2f0 /tmp/ccmBwYlf.debug.temp.o
                0x0000000000039957                chmemcore.c.2ab28c69
 .debug_info    0x0000000000039c47      0xcd3 /tmp/cc9pEMiJ.debug.temp.o
                0x0000000000039c47                chmemheaps.c.93d579bb
 .debug_info    0x000000000003a91a      0x588 /tmp/cceUumu1.debug.temp.o
                0x000000000003a91a                chmempools.c.267e033c
 .debug_info    0x000000000003aea2     0x155c /tmp/ccUjBBsu.debug.temp.o
                0x000000000003aea2                chfactory.c.1e74b627
 .debug_info    0x000000000003c3fe     0x176b /tmp/ccMZuXoC.debug.temp.o
                0x000000000003c3fe                chcore.c.34948893
 .debug_info    0x000000000003db69     0x108c /tmp/ccKhrB7B.debug.temp.o
                0x000000000003db69                fatfs_diskio.c.f64c4156
 .debug_info    0x000000000003ebf5     0x1510 /tmp/ccyMIKzN.debug.temp.o
                0x000000000003ebf5                ff.c.431d87b5
 .debug_info    0x0000000000040105      0x1ad /tmp/ccn9r2Hy.debug.temp.o
                0x0000000000040105                board.c.704fa3b1
 .debug_info    0x00000000000402b2      0xd21 /tmp/cczvTYYv.debug.temp.o
                0x00000000000402b2                syscalls.c.60692434
 .debug_info    0x0000000000040fd3      0x670 /tmp/ccsvxdtZ.debug.temp.o
                0x0000000000040fd3                main.cpp.5cbdf12b
 .debug_info    0x0000000000041643     0x3659 /tmp/cc1R7395.debug.temp.o
                0x0000000000041643                threads.cpp.50a32757
 .debug_info    0x0000000000044c9c      0x7e7 /tmp/cca2FiSo.debug.temp.o
                0x0000000000044c9c                math.cpp.448bd258
 .debug_info    0x0000000000045483     0x11f9 /tmp/ccTEgzi9.debug.temp.o
                0x0000000000045483                EKF.cpp.fb5fcd46
 .debug_info    0x000000000004667c     0x12c3 /tmp/ccVtlQW8.debug.temp.o
                0x000000000004667c                StateManager.cpp.c65382d9
 .debug_info    0x000000000004793f      0x773 /tmp/cckVIbWA.debug.temp.o
                0x000000000004793f                PID.cpp.48159567
 .debug_info    0x00000000000480b2     0x1079 /tmp/ccwo63eS.debug.temp.o
                0x00000000000480b2                AttitudeController.cpp.ce555cba
 .debug_info    0x000000000004912b      0x608 /tmp/ccQl3QoJ.debug.temp.o
                0x000000000004912b                MotorMixer.cpp.2d364d9e
 .debug_info    0x0000000000049733     0x1882 /tmp/ccW4cvUs.debug.temp.o
                0x0000000000049733                ICM20948.cpp.139d4055
 .debug_info    0x000000000004afb5     0x17fc /tmp/ccrLOXrd.debug.temp.o
                0x000000000004afb5                ICM20602.cpp.35ce1fa1
 .debug_info    0x000000000004c7b1     0x1382 /tmp/ccUA5s9m.debug.temp.o
                0x000000000004c7b1                SPI.cpp.19eaa0ba
 .debug_info    0x000000000004db33     0x1804 /tmp/ccTUmnEl.debug.temp.o
                0x000000000004db33                CAN.cpp.d3b93d88
 .debug_info    0x000000000004f337      0x444 /tmp/cc4q1Zko.debug.temp.o
                0x000000000004f337                PWM.cpp.ebe5804e
 .debug_info    0x000000000004f77b     0x1c93 /tmp/cc9t8zi9.debug.temp.o
                0x000000000004f77b                DShot.cpp.99ca1f2b
 .debug_info    0x000000000005140e      0x5ff /tmp/ccBpW6ak.debug.temp.o
                0x000000000005140e                Radio.cpp.b59ada7a
 .debug_info    0x0000000000051a0d     0x15a7 /tmp/ccOKxzCx.debug.temp.o
                0x0000000000051a0d                CRSF.cpp.36e09165
 .debug_info    0x0000000000052fb4     0x27b3 /tmp/ccV4PTbm.debug.temp.o
                0x0000000000052fb4                Logger.cpp.aad05b9d

.debug_abbrev   0x0000000000000000     0x90eb
 .debug_abbrev  0x0000000000000000       0x14 build/obj/crt0_v7m.o
 .debug_abbrev  0x0000000000000014       0x14 build/obj/vectors.o
 .debug_abbrev  0x0000000000000028       0x14 build/obj/chcoreasm.o
 .debug_abbrev  0x000000000000003c      0x3e8 /tmp/BPRL.elf.FE4VjG.ltrans0.ltrans.o
 .debug_abbrev  0x0000000000000424      0x1ac /tmp/BPRL.elf.FE4VjG.ltrans1.ltrans.o
 .debug_abbrev  0x00000000000005d0      0x16c /tmp/cc1AI8gk.debug.temp.o
 .debug_abbrev  0x000000000000073c       0x46 /tmp/cckiIMyo.debug.temp.o
 .debug_abbrev  0x0000000000000782      0x13b /tmp/ccbdkTrP.debug.temp.o
 .debug_abbrev  0x00000000000008bd      0x1b5 /tmp/cc0Cj8E8.debug.temp.o
 .debug_abbrev  0x0000000000000a72      0x19d /tmp/cc1hHXIF.debug.temp.o
 .debug_abbrev  0x0000000000000c0f      0x2db /tmp/ccjdzKfz.debug.temp.o
 .debug_abbrev  0x0000000000000eea      0x2d6 /tmp/ccn6xZbq.debug.temp.o
 .debug_abbrev  0x00000000000011c0      0x2a8 /tmp/ccfUCnJW.debug.temp.o
 .debug_abbrev  0x0000000000001468      0x280 /tmp/ccShXzVe.debug.temp.o
 .debug_abbrev  0x00000000000016e8      0x258 /tmp/ccHtzOWh.debug.temp.o
 .debug_abbrev  0x0000000000001940      0x130 /tmp/cc3twoij.debug.temp.o
 .debug_abbrev  0x0000000000001a70      0x22f /tmp/ccFIp4O1.debug.temp.o
 .debug_abbrev  0x0000000000001c9f      0x19a /tmp/ccGfNtvL.debug.temp.o
 .debug_abbrev  0x0000000000001e39      0x1e9 /tmp/ccGhAOcz.debug.temp.o
 .debug_abbrev  0x0000000000002022      0x355 /tmp/ccoABdJL.debug.temp.o
 .debug_abbrev  0x0000000000002377       0xea /tmp/ccVLgFnA.debug.temp.o
 .debug_abbrev  0x0000000000002461      0x2dd /tmp/cc8KHu6o.debug.temp.o
 .debug_abbrev  0x000000000000273e      0x307 /tmp/ccxcVT2h.debug.temp.o
 .debug_abbrev  0x0000000000002a45      0x2d9 /tmp/ccWqfuMc.debug.temp.o
 .debug_abbrev  0x0000000000002d1e      0x156 /tmp/ccXDelKO.debug.temp.o
 .debug_abbrev  0x0000000000002e74      0x2bf /tmp/ccyDIc7b.debug.temp.o
 .debug_abbrev  0x0000000000003133      0x33b /tmp/cc2aLvbc.debug.temp.o
 .debug_abbrev  0x000000000000346e      0x1b3 /tmp/cctFC6ic.debug.temp.o
 .debug_abbrev  0x0000000000003621      0x267 /tmp/ccSZMTci.debug.temp.o
 .debug_abbrev  0x0000000000003888      0x2b5 /tmp/ccNe19st.debug.temp.o
 .debug_abbrev  0x0000000000003b3d      0x26a /tmp/ccqlIZIv.debug.temp.o
 .debug_abbrev  0x0000000000003da7      0x25e /tmp/cc4sZw6e.debug.temp.o
 .debug_abbrev  0x0000000000004005      0x2d0 /tmp/ccyZJoui.debug.temp.o
 .debug_abbrev  0x00000000000042d5      0x207 /tmp/ccBmOTdn.debug.temp.o
 .debug_abbrev  0x00000000000044dc      0x294 /tmp/cczV1lYM.debug.temp.o
 .debug_abbrev  0x0000000000004770      0x2b2 /tmp/cc2JkTMX.debug.temp.o
 .debug_abbrev  0x0000000000004a22      0x2a5 /tmp/cccR94mW.debug.temp.o
 .debug_abbrev  0x0000000000004cc7      0x154 /tmp/ccmBwYlf.debug.temp.o
 .debug_abbrev  0x0000000000004e1b      0x26f /tmp/cc9pEMiJ.debug.temp.o
 .debug_abbrev  0x000000000000508a      0x1b6 /tmp/cceUumu1.debug.temp.o
 .debug_abbrev  0x0000000000005240      0x284 /tmp/ccUjBBsu.debug.temp.o
 .debug_abbrev  0x00000000000054c4      0x293 /tmp/ccMZuXoC.debug.temp.o
 .debug_abbrev  0x0000000000005757      0x242 /tmp/ccKhrB7B.debug.temp.o
 .debug_abbrev  0x0000000000005999      0x190 /tmp/ccyMIKzN.debug.temp.o
 .debug_abbrev  0x0000000000005b29       0x9c /tmp/ccn9r2Hy.debug.temp.o
 .debug_abbrev  0x0000000000005bc5      0x225 /tmp/cczvTYYv.debug.temp.o
 .debug_abbrev  0x0000000000005dea      0x11c /tmp/ccsvxdtZ.debug.temp.o
 .debug_abbrev  0x0000000000005f06      0x6d1 /tmp/cc1R7395.debug.temp.o
 .debug_abbrev  0x00000000000065d7      0x14d /tmp/cca2FiSo.debug.temp.o
 .debug_abbrev  0x0000000000006724      0x313 /tmp/ccTEgzi9.debug.temp.o
 .debug_abbrev  0x0000000000006a37      0x36e /tmp/ccVtlQW8.debug.temp.o
 .debug_abbrev  0x0000000000006da5      0x205 /tmp/cckVIbWA.debug.temp.o
 .debug_abbrev  0x0000000000006faa      0x3fa /tmp/ccwo63eS.debug.temp.o
 .debug_abbrev  0x00000000000073a4      0x1ae /tmp/ccQl3QoJ.debug.temp.o
 .debug_abbrev  0x0000000000007552      0x387 /tmp/ccW4cvUs.debug.temp.o
 .debug_abbrev  0x00000000000078d9      0x387 /tmp/ccrLOXrd.debug.temp.o
 .debug_abbrev  0x0000000000007c60      0x300 /tmp/ccUA5s9m.debug.temp.o
 .debug_abbrev  0x0000000000007f60      0x334 /tmp/ccTUmnEl.debug.temp.o
 .debug_abbrev  0x0000000000008294       0xfa /tmp/cc4q1Zko.debug.temp.o
 .debug_abbrev  0x000000000000838e      0x367 /tmp/cc9t8zi9.debug.temp.o
 .debug_abbrev  0x00000000000086f5      0x1cd /tmp/ccBpW6ak.debug.temp.o
 .debug_abbrev  0x00000000000088c2      0x34d /tmp/ccOKxzCx.debug.temp.o
 .debug_abbrev  0x0000000000008c0f      0x4dc /tmp/ccV4PTbm.debug.temp.o

.debug_aranges  0x0000000000000000      0x550
 .debug_aranges
                0x0000000000000000       0x20 build/obj/crt0_v7m.o
 .debug_aranges
                0x0000000000000020       0x20 build/obj/vectors.o
 .debug_aranges
                0x0000000000000040       0x20 build/obj/chcoreasm.o
 .debug_aranges
                0x0000000000000060      0x498 /tmp/BPRL.elf.FE4VjG.ltrans0.ltrans.o
 .debug_aranges
                0x00000000000004f8       0x58 /tmp/BPRL.elf.FE4VjG.ltrans1.ltrans.o

.debug_str      0x0000000000000000     0x9432
 .debug_str     0x0000000000000000       0x70 build/obj/crt0_v7m.o
 .debug_str     0x0000000000000070       0x45 build/obj/vectors.o
                                         0x6f (size before relaxing)
 .debug_str     0x00000000000000b5       0x46 build/obj/chcoreasm.o
                                         0x70 (size before relaxing)
 .debug_str     0x00000000000000fb      0x345 /tmp/BPRL.elf.FE4VjG.ltrans0.ltrans.o
                                        0x389 (size before relaxing)
 .debug_str     0x0000000000000440       0x6f /tmp/BPRL.elf.FE4VjG.ltrans1.ltrans.o
                                        0x294 (size before relaxing)
 .debug_str     0x00000000000004af      0x58f /tmp/cc1AI8gk.debug.temp.o
                                        0x624 (size before relaxing)
 .debug_str     0x0000000000000a3e       0x48 /tmp/cckiIMyo.debug.temp.o
                                        0x1c7 (size before relaxing)
 .debug_str     0x0000000000000a86      0x143 /tmp/ccbdkTrP.debug.temp.o
                                        0x2e8 (size before relaxing)
 .debug_str     0x0000000000000bc9      0x28d /tmp/cc0Cj8E8.debug.temp.o
                                        0x47e (size before relaxing)
 .debug_str     0x0000000000000e56      0x436 /tmp/cc1hHXIF.debug.temp.o
                                        0x653 (size before relaxing)
 .debug_str     0x000000000000128c      0x66a /tmp/ccjdzKfz.debug.temp.o
                                        0xaa7 (size before relaxing)
 .debug_str     0x00000000000018f6      0x43c /tmp/ccn6xZbq.debug.temp.o
                                        0xc11 (size before relaxing)
 .debug_str     0x0000000000001d32      0x172 /tmp/ccfUCnJW.debug.temp.o
                                        0x96c (size before relaxing)
 .debug_str     0x0000000000001ea4      0x2cb /tmp/ccShXzVe.debug.temp.o
                                        0x9c6 (size before relaxing)
 .debug_str     0x000000000000216f      0x80f /tmp/ccHtzOWh.debug.temp.o
                                        0xafa (size before relaxing)
 .debug_str     0x000000000000297e       0xe2 /tmp/cc3twoij.debug.temp.o
                                        0x408 (size before relaxing)
 .debug_str     0x0000000000002a60      0x560 /tmp/ccFIp4O1.debug.temp.o
                                       0x118e (size before relaxing)
 .debug_str     0x0000000000002fc0      0x4c3 /tmp/ccGfNtvL.debug.temp.o
                                        0x826 (size before relaxing)
 .debug_str     0x0000000000003483      0x1b8 /tmp/ccGhAOcz.debug.temp.o
                                        0x68e (size before relaxing)
 .debug_str     0x000000000000363b      0x23a /tmp/ccoABdJL.debug.temp.o
                                        0xe0c (size before relaxing)
 .debug_str     0x0000000000003875       0x96 /tmp/ccVLgFnA.debug.temp.o
                                        0x2b9 (size before relaxing)
 .debug_str     0x000000000000390b      0x312 /tmp/cc8KHu6o.debug.temp.o
                                        0xe86 (size before relaxing)
 .debug_str     0x0000000000003c1d      0x309 /tmp/ccxcVT2h.debug.temp.o
                                        0xed0 (size before relaxing)
 .debug_str     0x0000000000003f26      0x1a4 /tmp/ccWqfuMc.debug.temp.o
                                        0xc95 (size before relaxing)
 .debug_str     0x00000000000040ca       0xcd /tmp/ccXDelKO.debug.temp.o
                                        0x589 (size before relaxing)
 .debug_str     0x0000000000004197       0xff /tmp/ccyDIc7b.debug.temp.o
                                        0xbe7 (size before relaxing)
 .debug_str     0x0000000000004296      0x30e /tmp/cc2aLvbc.debug.temp.o
                                        0x9fa (size before relaxing)
 .debug_str     0x00000000000045a4       0x55 /tmp/cctFC6ic.debug.temp.o
                                        0x625 (size before relaxing)
 .debug_str     0x00000000000045f9       0xec /tmp/ccSZMTci.debug.temp.o
                                        0x845 (size before relaxing)
 .debug_str     0x00000000000046e5      0x20a /tmp/ccNe19st.debug.temp.o
                                        0x8ba (size before relaxing)
 .debug_str     0x00000000000048ef      0x1b0 /tmp/ccqlIZIv.debug.temp.o
                                        0x84b (size before relaxing)
 .debug_str     0x0000000000004a9f      0x2a6 /tmp/cc4sZw6e.debug.temp.o
                                        0x970 (size before relaxing)
 .debug_str     0x0000000000004d45      0x273 /tmp/ccyZJoui.debug.temp.o
                                        0x96f (size before relaxing)
 .debug_str     0x0000000000004fb8       0x89 /tmp/ccBmOTdn.debug.temp.o
                                        0x81a (size before relaxing)
 .debug_str     0x0000000000005041       0xac /tmp/cczV1lYM.debug.temp.o
                                        0x918 (size before relaxing)
 .debug_str     0x00000000000050ed       0xd8 /tmp/cc2JkTMX.debug.temp.o
                                        0x756 (size before relaxing)
 .debug_str     0x00000000000051c5      0x1c4 /tmp/cccR94mW.debug.temp.o
                                        0x85c (size before relaxing)
 .debug_str     0x0000000000005389       0xd9 /tmp/ccmBwYlf.debug.temp.o
                                        0x2fe (size before relaxing)
 .debug_str     0x0000000000005462       0xf9 /tmp/cc9pEMiJ.debug.temp.o
                                        0x6fb (size before relaxing)
 .debug_str     0x000000000000555b      0x16c /tmp/cceUumu1.debug.temp.o
                                        0x412 (size before relaxing)
 .debug_str     0x00000000000056c7      0x4a0 /tmp/ccUjBBsu.debug.temp.o
                                        0xb5f (size before relaxing)
 .debug_str     0x0000000000005b67      0x970 /tmp/ccMZuXoC.debug.temp.o
                                       0x120b (size before relaxing)
 .debug_str     0x00000000000064d7       0xdd /tmp/ccKhrB7B.debug.temp.o
                                        0x93c (size before relaxing)
 .debug_str     0x00000000000065b4      0x488 /tmp/ccyMIKzN.debug.temp.o
                                        0x6f8 (size before relaxing)
 .debug_str     0x0000000000006a3c       0x2d /tmp/ccn9r2Hy.debug.temp.o
                                        0x236 (size before relaxing)
 .debug_str     0x0000000000006a69      0x4d3 /tmp/cczvTYYv.debug.temp.o
                                        0x753 (size before relaxing)
 .debug_str     0x0000000000006f3c      0x281 /tmp/ccsvxdtZ.debug.temp.o
                                        0x4d3 (size before relaxing)
 .debug_str     0x00000000000071bd      0xe88 /tmp/cc1R7395.debug.temp.o
                                       0x1d59 (size before relaxing)
 .debug_str     0x0000000000008045      0x1d7 /tmp/cca2FiSo.debug.temp.o
                                        0x64b (size before relaxing)
 .debug_str     0x000000000000821c      0x170 /tmp/ccTEgzi9.debug.temp.o
                                        0x87b (size before relaxing)
 .debug_str     0x000000000000838c       0x6c /tmp/ccVtlQW8.debug.temp.o
                                        0xa2f (size before relaxing)
 .debug_str     0x00000000000083f8       0x3b /tmp/cckVIbWA.debug.temp.o
                                        0x5a7 (size before relaxing)
 .debug_str     0x0000000000008433      0x57c /tmp/ccwo63eS.debug.temp.o
                                        0xc13 (size before relaxing)
 .debug_str     0x00000000000089af       0x2c /tmp/ccQl3QoJ.debug.temp.o
                                        0x531 (size before relaxing)
 .debug_str     0x00000000000089db      0x10e /tmp/ccW4cvUs.debug.temp.o
                                        0xc97 (size before relaxing)
 .debug_str     0x0000000000008ae9       0x8c /tmp/ccrLOXrd.debug.temp.o
                                        0xc4f (size before relaxing)
 .debug_str     0x0000000000008b75      0x108 /tmp/ccUA5s9m.debug.temp.o
                                        0xc01 (size before relaxing)
 .debug_str     0x0000000000008c7d       0xef /tmp/ccTUmnEl.debug.temp.o
                                        0xca6 (size before relaxing)
 .debug_str     0x0000000000008d6c       0x6e /tmp/cc4q1Zko.debug.temp.o
                                        0x47d (size before relaxing)
 .debug_str     0x0000000000008dda      0x1ef /tmp/cc9t8zi9.debug.temp.o
                                       0x1601 (size before relaxing)
 .debug_str     0x0000000000008fc9      0x205 /tmp/ccBpW6ak.debug.temp.o
                                        0x63d (size before relaxing)
 .debug_str     0x00000000000091ce       0x55 /tmp/ccOKxzCx.debug.temp.o
                                        0xc21 (size before relaxing)
 .debug_str     0x0000000000009223      0x20f /tmp/ccV4PTbm.debug.temp.o
                                       0x1526 (size before relaxing)

.debug_loc      0x0000000000000000    0x17ed0
 .debug_loc     0x0000000000000000    0x16f31 /tmp/BPRL.elf.FE4VjG.ltrans0.ltrans.o
 .debug_loc     0x0000000000016f31      0xf9f /tmp/BPRL.elf.FE4VjG.ltrans1.ltrans.o

.debug_ranges   0x0000000000000000     0xcce8
 .debug_ranges  0x0000000000000000     0xc9c8 /tmp/BPRL.elf.FE4VjG.ltrans0.ltrans.o
 .debug_ranges  0x000000000000c9c8      0x320 /tmp/BPRL.elf.FE4VjG.ltrans1.ltrans.o

.debug_frame    0x0000000000000000     0x2cc8
 .debug_frame   0x0000000000000000     0x11f4 /tmp/BPRL.elf.FE4VjG.ltrans0.ltrans.o
 .debug_frame   0x00000000000011f4      0x150 /tmp/BPRL.elf.FE4VjG.ltrans1.ltrans.o
 .debug_frame   0x0000000000001344       0x38 /opt/gcc-arm-none-eabi-10-2020-q4-major/bin/../lib/gcc/arm-none-eabi/10.2.1/../../../../arm-none-eabi/lib/thumb/v7e-m+dp/hard/libm.a(lib_a-cosf.o)
 .debug_frame   0x000000000000137c       0x90 /opt/gcc-arm-none-eabi-10-2020-q4-major/bin/../lib/gcc/arm-none-eabi/10.2.1/../../../../arm-none-eabi/lib/thumb/v7e-m+dp/hard/libm.a(lib_a-math_errf.o)
 .debug_frame   0x000000000000140c       0x48 /opt/gcc-arm-none-eabi-10-2020-q4-major/bin/../lib/gcc/arm-none-eabi/10.2.1/../../../../arm-none-eabi/lib/thumb/v7e-m+dp/hard/libm.a(lib_a-wf_asin.o)
 .debug_frame   0x0000000000001454       0x20 /opt/gcc-arm-none-eabi-10-2020-q4-major/bin/../lib/gcc/arm-none-eabi/10.2.1/../../../../arm-none-eabi/lib/thumb/v7e-m+dp/hard/libm.a(lib_a-wf_atan2.o)
 .debug_frame   0x0000000000001474       0x44 /opt/gcc-arm-none-eabi-10-2020-q4-major/bin/../lib/gcc/arm-none-eabi/10.2.1/../../../../arm-none-eabi/lib/thumb/v7e-m+dp/hard/libm.a(lib_a-wf_sqrt.o)
 .debug_frame   0x00000000000014b8       0x70 /opt/gcc-arm-none-eabi-10-2020-q4-major/bin/../lib/gcc/arm-none-eabi/10.2.1/../../../../arm-none-eabi/lib/thumb/v7e-m+dp/hard/libm.a(lib_a-ef_asin.o)
 .debug_frame   0x0000000000001528       0x44 /opt/gcc-arm-none-eabi-10-2020-q4-major/bin/../lib/gcc/arm-none-eabi/10.2.1/../../../../arm-none-eabi/lib/thumb/v7e-m+dp/hard/libm.a(lib_a-ef_atan2.o)
 .debug_frame   0x000000000000156c       0x20 /opt/gcc-arm-none-eabi-10-2020-q4-major/bin/../lib/gcc/arm-none-eabi/10.2.1/../../../../arm-none-eabi/lib/thumb/v7e-m+dp/hard/libm.a(lib_a-ef_sqrt.o)
 .debug_frame   0x000000000000158c       0x2c /opt/gcc-arm-none-eabi-10-2020-q4-major/bin/../lib/gcc/arm-none-eabi/10.2.1/../../../../arm-none-eabi/lib/thumb/v7e-m+dp/hard/libm.a(lib_a-sf_atan.o)
 .debug_frame   0x00000000000015b8       0x20 /opt/gcc-arm-none-eabi-10-2020-q4-major/bin/../lib/gcc/arm-none-eabi/10.2.1/../../../../arm-none-eabi/lib/thumb/v7e-m+dp/hard/libm.a(lib_a-sf_fabs.o)
 .debug_frame   0x00000000000015d8       0x20 /opt/gcc-arm-none-eabi-10-2020-q4-major/bin/../lib/gcc/arm-none-eabi/10.2.1/../../../../arm-none-eabi/lib/thumb/v7e-m+dp/hard/libm.a(lib_a-sf_nan.o)
 .debug_frame   0x00000000000015f8       0xac /opt/gcc-arm-none-eabi-10-2020-q4-major/bin/../lib/gcc/arm-none-eabi/10.2.1/thumb/v7e-m+dp/hard/libgcc.a(_arm_addsubdf3.o)
 .debug_frame   0x00000000000016a4       0x2c /opt/gcc-arm-none-eabi-10-2020-q4-major/bin/../lib/gcc/arm-none-eabi/10.2.1/thumb/v7e-m+dp/hard/libgcc.a(_aeabi_uldivmod.o)
 .debug_frame   0x00000000000016d0       0x34 /opt/gcc-arm-none-eabi-10-2020-q4-major/bin/../lib/gcc/arm-none-eabi/10.2.1/thumb/v7e-m+dp/hard/libgcc.a(_udivmoddi4.o)
 .debug_frame   0x0000000000001704      0x2d4 /opt/gcc-arm-none-eabi-10-2020-q4-major/bin/../lib/gcc/arm-none-eabi/10.2.1/thumb/v7e-m+dp/hard/libgcc.a(unwind-arm.o)
 .debug_frame   0x00000000000019d8      0x104 /opt/gcc-arm-none-eabi-10-2020-q4-major/bin/../lib/gcc/arm-none-eabi/10.2.1/thumb/v7e-m+dp/hard/libgcc.a(pr-support.o)
 .debug_frame   0x0000000000001adc       0x20 /opt/gcc-arm-none-eabi-10-2020-q4-major/bin/../lib/gcc/arm-none-eabi/10.2.1/../../../../arm-none-eabi/lib/thumb/v7e-m+dp/hard/libg.a(lib_a-errno.o)
 .debug_frame   0x0000000000001afc       0x28 /opt/gcc-arm-none-eabi-10-2020-q4-major/bin/../lib/gcc/arm-none-eabi/10.2.1/../../../../arm-none-eabi/lib/thumb/v7e-m+dp/hard/libg.a(lib_a-abort.o)
 .debug_frame   0x0000000000001b24       0x2c /opt/gcc-arm-none-eabi-10-2020-q4-major/bin/../lib/gcc/arm-none-eabi/10.2.1/../../../../arm-none-eabi/lib/thumb/v7e-m+dp/hard/libg.a(lib_a-memcmp.o)
 .debug_frame   0x0000000000001b50       0x2c /opt/gcc-arm-none-eabi-10-2020-q4-major/bin/../lib/gcc/arm-none-eabi/10.2.1/../../../../arm-none-eabi/lib/thumb/v7e-m+dp/hard/libg.a(lib_a-memset.o)
 .debug_frame   0x0000000000001b7c      0x114 /opt/gcc-arm-none-eabi-10-2020-q4-major/bin/../lib/gcc/arm-none-eabi/10.2.1/../../../../arm-none-eabi/lib/thumb/v7e-m+dp/hard/libg.a(lib_a-signal.o)
 .debug_frame   0x0000000000001c90       0x3c /opt/gcc-arm-none-eabi-10-2020-q4-major/bin/../lib/gcc/arm-none-eabi/10.2.1/../../../../arm-none-eabi/lib/thumb/v7e-m+dp/hard/libg.a(lib_a-signalr.o)
 .debug_frame   0x0000000000001ccc       0x94 /opt/gcc-arm-none-eabi-10-2020-q4-major/bin/../lib/gcc/arm-none-eabi/10.2.1/../../../../arm-none-eabi/lib/thumb/v7e-m+dp/hard/libg.a(lib_a-snprintf.o)
 .debug_frame   0x0000000000001d60       0x34 /opt/gcc-arm-none-eabi-10-2020-q4-major/bin/../lib/gcc/arm-none-eabi/10.2.1/../../../../arm-none-eabi/lib/thumb/v7e-m+dp/hard/libg.a(lib_a-strchr.o)
 .debug_frame   0x0000000000001d94       0x2c /opt/gcc-arm-none-eabi-10-2020-q4-major/bin/../lib/gcc/arm-none-eabi/10.2.1/../../../../arm-none-eabi/lib/thumb/v7e-m+dp/hard/libg.a(lib_a-strncpy.o)
 .debug_frame   0x0000000000001dc0       0x70 /opt/gcc-arm-none-eabi-10-2020-q4-major/bin/../lib/gcc/arm-none-eabi/10.2.1/../../../../arm-none-eabi/lib/thumb/v7e-m+dp/hard/libg.a(lib_a-svfprintf.o)
 .debug_frame   0x0000000000001e30       0xb0 /opt/gcc-arm-none-eabi-10-2020-q4-major/bin/../lib/gcc/arm-none-eabi/10.2.1/../../../../arm-none-eabi/lib/thumb/v7e-m+dp/hard/libg.a(lib_a-dtoa.o)
 .debug_frame   0x0000000000001ee0       0x8c /opt/gcc-arm-none-eabi-10-2020-q4-major/bin/../lib/gcc/arm-none-eabi/10.2.1/../../../../arm-none-eabi/lib/thumb/v7e-m+dp/hard/libg.a(lib_a-freer.o)
 .debug_frame   0x0000000000001f6c       0x40 /opt/gcc-arm-none-eabi-10-2020-q4-major/bin/../lib/gcc/arm-none-eabi/10.2.1/../../../../arm-none-eabi/lib/thumb/v7e-m+dp/hard/libg.a(lib_a-localeconv.o)
 .debug_frame   0x0000000000001fac       0x4c /opt/gcc-arm-none-eabi-10-2020-q4-major/bin/../lib/gcc/arm-none-eabi/10.2.1/../../../../arm-none-eabi/lib/thumb/v7e-m+dp/hard/libg.a(lib_a-mallocr.o)
 .debug_frame   0x0000000000001ff8       0x30 /opt/gcc-arm-none-eabi-10-2020-q4-major/bin/../lib/gcc/arm-none-eabi/10.2.1/../../../../arm-none-eabi/lib/thumb/v7e-m+dp/hard/libg.a(lib_a-mlock.o)
 .debug_frame   0x0000000000002028      0x274 /opt/gcc-arm-none-eabi-10-2020-q4-major/bin/../lib/gcc/arm-none-eabi/10.2.1/../../../../arm-none-eabi/lib/thumb/v7e-m+dp/hard/libg.a(lib_a-mprec.o)
 .debug_frame   0x000000000000229c       0x64 /opt/gcc-arm-none-eabi-10-2020-q4-major/bin/../lib/gcc/arm-none-eabi/10.2.1/../../../../arm-none-eabi/lib/thumb/v7e-m+dp/hard/libg.a(lib_a-reent.o)
 .debug_frame   0x0000000000002300       0x34 /opt/gcc-arm-none-eabi-10-2020-q4-major/bin/../lib/gcc/arm-none-eabi/10.2.1/../../../../arm-none-eabi/lib/thumb/v7e-m+dp/hard/libg.a(lib_a-s_frexp.o)
 .debug_frame   0x0000000000002334       0x88 /opt/gcc-arm-none-eabi-10-2020-q4-major/bin/../lib/gcc/arm-none-eabi/10.2.1/../../../../arm-none-eabi/lib/thumb/v7e-m+dp/hard/libg.a(lib_a-svfiprintf.o)
 .debug_frame   0x00000000000023bc       0x40 /opt/gcc-arm-none-eabi-10-2020-q4-major/bin/../lib/gcc/arm-none-eabi/10.2.1/../../../../arm-none-eabi/lib/thumb/v7e-m+dp/hard/libg.a(lib_a-assert.o)
 .debug_frame   0x00000000000023fc       0x28 /opt/gcc-arm-none-eabi-10-2020-q4-major/bin/../lib/gcc/arm-none-eabi/10.2.1/../../../../arm-none-eabi/lib/thumb/v7e-m+dp/hard/libg.a(lib_a-callocr.o)
 .debug_frame   0x0000000000002424       0x70 /opt/gcc-arm-none-eabi-10-2020-q4-major/bin/../lib/gcc/arm-none-eabi/10.2.1/../../../../arm-none-eabi/lib/thumb/v7e-m+dp/hard/libg.a(lib_a-fiprintf.o)
 .debug_frame   0x0000000000002494       0x68 /opt/gcc-arm-none-eabi-10-2020-q4-major/bin/../lib/gcc/arm-none-eabi/10.2.1/../../../../arm-none-eabi/lib/thumb/v7e-m+dp/hard/libg.a(lib_a-locale.o)
 .debug_frame   0x00000000000024fc       0xb0 /opt/gcc-arm-none-eabi-10-2020-q4-major/bin/../lib/gcc/arm-none-eabi/10.2.1/../../../../arm-none-eabi/lib/thumb/v7e-m+dp/hard/libg.a(lib_a-lock.o)
 .debug_frame   0x00000000000025ac       0x4c /opt/gcc-arm-none-eabi-10-2020-q4-major/bin/../lib/gcc/arm-none-eabi/10.2.1/../../../../arm-none-eabi/lib/thumb/v7e-m+dp/hard/libg.a(lib_a-mbtowc_r.o)
 .debug_frame   0x00000000000025f8       0x40 /opt/gcc-arm-none-eabi-10-2020-q4-major/bin/../lib/gcc/arm-none-eabi/10.2.1/../../../../arm-none-eabi/lib/thumb/v7e-m+dp/hard/libg.a(lib_a-memmove.o)
 .debug_frame   0x0000000000002638       0x48 /opt/gcc-arm-none-eabi-10-2020-q4-major/bin/../lib/gcc/arm-none-eabi/10.2.1/../../../../arm-none-eabi/lib/thumb/v7e-m+dp/hard/libg.a(lib_a-reallocr.o)
 .debug_frame   0x0000000000002680       0xf4 /opt/gcc-arm-none-eabi-10-2020-q4-major/bin/../lib/gcc/arm-none-eabi/10.2.1/../../../../arm-none-eabi/lib/thumb/v7e-m+dp/hard/libg.a(lib_a-vfiprintf.o)
 .debug_frame   0x0000000000002774       0x3c /opt/gcc-arm-none-eabi-10-2020-q4-major/bin/../lib/gcc/arm-none-eabi/10.2.1/../../../../arm-none-eabi/lib/thumb/v7e-m+dp/hard/libg.a(lib_a-wctomb_r.o)
 .debug_frame   0x00000000000027b0       0x2c /opt/gcc-arm-none-eabi-10-2020-q4-major/bin/../lib/gcc/arm-none-eabi/10.2.1/../../../../arm-none-eabi/lib/thumb/v7e-m+dp/hard/libg.a(lib_a-wsetup.o)
 .debug_frame   0x00000000000027dc       0x70 /opt/gcc-arm-none-eabi-10-2020-q4-major/bin/../lib/gcc/arm-none-eabi/10.2.1/../../../../arm-none-eabi/lib/thumb/v7e-m+dp/hard/libg.a(lib_a-fflush.o)
 .debug_frame   0x000000000000284c      0x154 /opt/gcc-arm-none-eabi-10-2020-q4-major/bin/../lib/gcc/arm-none-eabi/10.2.1/../../../../arm-none-eabi/lib/thumb/v7e-m+dp/hard/libg.a(lib_a-findfp.o)
 .debug_frame   0x00000000000029a0       0x8c /opt/gcc-arm-none-eabi-10-2020-q4-major/bin/../lib/gcc/arm-none-eabi/10.2.1/../../../../arm-none-eabi/lib/thumb/v7e-m+dp/hard/libg.a(lib_a-fputwc.o)
 .debug_frame   0x0000000000002a2c       0x64 /opt/gcc-arm-none-eabi-10-2020-q4-major/bin/../lib/gcc/arm-none-eabi/10.2.1/../../../../arm-none-eabi/lib/thumb/v7e-m+dp/hard/libg.a(lib_a-fvwrite.o)
 .debug_frame   0x0000000000002a90       0x54 /opt/gcc-arm-none-eabi-10-2020-q4-major/bin/../lib/gcc/arm-none-eabi/10.2.1/../../../../arm-none-eabi/lib/thumb/v7e-m+dp/hard/libg.a(lib_a-fwalk.o)
 .debug_frame   0x0000000000002ae4       0x70 /opt/gcc-arm-none-eabi-10-2020-q4-major/bin/../lib/gcc/arm-none-eabi/10.2.1/../../../../arm-none-eabi/lib/thumb/v7e-m+dp/hard/libg.a(lib_a-makebuf.o)
 .debug_frame   0x0000000000002b54       0x8c /opt/gcc-arm-none-eabi-10-2020-q4-major/bin/../lib/gcc/arm-none-eabi/10.2.1/../../../../arm-none-eabi/lib/thumb/v7e-m+dp/hard/libg.a(lib_a-stdio.o)
 .debug_frame   0x0000000000002be0       0x4c /opt/gcc-arm-none-eabi-10-2020-q4-major/bin/../lib/gcc/arm-none-eabi/10.2.1/../../../../arm-none-eabi/lib/thumb/v7e-m+dp/hard/libg.a(lib_a-wbuf.o)
 .debug_frame   0x0000000000002c2c       0x60 /opt/gcc-arm-none-eabi-10-2020-q4-major/bin/../lib/gcc/arm-none-eabi/10.2.1/../../../../arm-none-eabi/lib/thumb/v7e-m+dp/hard/libg.a(lib_a-wcrtomb.o)
 .debug_frame   0x0000000000002c8c       0x3c /opt/gcc-arm-none-eabi-10-2020-q4-major/bin/../lib/gcc/arm-none-eabi/10.2.1/../../../../arm-none-eabi/lib/thumb/v7e-m+dp/hard/libg.a(lib_a-fclose.o)

Cross Reference Table

Symbol                                            File
AttitudeController.cpp.ce555cba                   /tmp/ccwo63eS.debug.temp.o
                                                  /tmp/BPRL.elf.FE4VjG.ltrans0.ltrans.o
AttitudeController::AttitudeController()          build/obj/AttitudeController.o (symbol from plugin)
AttitudeController::AttitudeController()          build/obj/AttitudeController.o (symbol from plugin)
                                                  build/obj/threads.o (symbol from plugin)
AttitudeController::compute_throttle(float const*, float const*) const build/obj/AttitudeController.o (symbol from plugin)
                                                  build/obj/threads.o (symbol from plugin)
AttitudeController::reset_all()                   build/obj/AttitudeController.o (symbol from plugin)
                                                  build/obj/threads.o (symbol from plugin)
AttitudeController::update(float const*, float const*, float*) build/obj/AttitudeController.o (symbol from plugin)
                                                  build/obj/threads.o (symbol from plugin)
BusFault_Handler                                  build/obj/vectors.o
CAN.cpp.d3b93d88                                  /tmp/ccTUmnEl.debug.temp.o
                                                  /tmp/BPRL.elf.FE4VjG.ltrans0.ltrans.o
CAND1                                             build/obj/hal_can_lld.o (symbol from plugin)
                                                  build/obj/CAN.o (symbol from plugin)
                                                  build/obj/threads.o (symbol from plugin)
                                                  build/obj/stm32_isr.o (symbol from plugin)
CRSF.cpp.36e09165                                 /tmp/ccOKxzCx.debug.temp.o
                                                  /tmp/BPRL.elf.FE4VjG.ltrans0.ltrans.o
CrsfParser::channel(unsigned char) const          build/obj/CRSF.o (symbol from plugin)
                                                  build/obj/Radio.o (symbol from plugin)
CrsfParser::crc8_dvb_s2(unsigned char const*, unsigned char) build/obj/CRSF.o (symbol from plugin)
CrsfParser::init()                                build/obj/CRSF.o (symbol from plugin)
                                                  build/obj/Radio.o (symbol from plugin)
CrsfParser::unpack(unsigned char const*, unsigned short*) build/obj/CRSF.o (symbol from plugin)
CrsfParser::update()                              build/obj/CRSF.o (symbol from plugin)
                                                  build/obj/Radio.o (symbol from plugin)
DShot.cpp.99ca1f2b                                /tmp/cc9t8zi9.debug.temp.o
                                                  /tmp/BPRL.elf.FE4VjG.ltrans0.ltrans.o
DebugMon_Handler                                  build/obj/vectors.o
EKF.cpp.fb5fcd46                                  /tmp/ccTEgzi9.debug.temp.o
                                                  /tmp/BPRL.elf.FE4VjG.ltrans0.ltrans.o
EKF::EKF()                                        build/obj/EKF.o (symbol from plugin)
                                                  build/obj/StateManager.o (symbol from plugin)
EKF::EKF()                                        build/obj/EKF.o (symbol from plugin)
EKF::_build_F(float, float const*)                build/obj/EKF.o (symbol from plugin)
EKF::_get_quat() const                            build/obj/EKF.o (symbol from plugin)
EKF::_normalize_quat()                            build/obj/EKF.o (symbol from plugin)
EKF::_update(int, float const (*) [16], float const*, float const*) build/obj/EKF.o (symbol from plugin)
EKF::init(int)                                    build/obj/EKF.o (symbol from plugin)
                                                  build/obj/StateManager.o (symbol from plugin)
EKF::predict(float, float const*, float const*)   build/obj/EKF.o (symbol from plugin)
                                                  build/obj/StateManager.o (symbol from plugin)
EKF::update_gravity(float const*, float)          build/obj/EKF.o (symbol from plugin)
                                                  build/obj/StateManager.o (symbol from plugin)
EKF::update_ned_vel(float const*, float)          build/obj/EKF.o (symbol from plugin)
                                                  build/obj/StateManager.o (symbol from plugin)
EKF::update_position(float const*, float)         build/obj/EKF.o (symbol from plugin)
                                                  build/obj/StateManager.o (symbol from plugin)
EKF::update_quaternion(Quat const&, float)        build/obj/EKF.o (symbol from plugin)
                                                  build/obj/StateManager.o (symbol from plugin)
HardFault_Handler                                 build/obj/vectors.o
I2C.cpp.b9520375                                  /tmp/ccuSxD7o.debug.temp.o
ICM20602.cpp.35ce1fa1                             /tmp/ccrLOXrd.debug.temp.o
                                                  /tmp/BPRL.elf.FE4VjG.ltrans0.ltrans.o
ICM20602::burst_read(unsigned char, unsigned char*, unsigned int) build/obj/ICM20602.o (symbol from plugin)
ICM20602::init(hal_spi_driver*, hal_spi_config const*, hal_spi_config const*) build/obj/ICM20602.o (symbol from plugin)
                                                  build/obj/SPI.o (symbol from plugin)
ICM20602::read(float*, float*)                    build/obj/ICM20602.o (symbol from plugin)
                                                  build/obj/threads.o (symbol from plugin)
ICM20602::reg_read(unsigned char)                 build/obj/ICM20602.o (symbol from plugin)
ICM20602::reg_write(unsigned char, unsigned char) build/obj/ICM20602.o (symbol from plugin)
ICM20948.cpp.139d4055                             /tmp/ccW4cvUs.debug.temp.o
                                                  /tmp/BPRL.elf.FE4VjG.ltrans1.ltrans.o
                                                  /tmp/BPRL.elf.FE4VjG.ltrans0.ltrans.o
ICM20948::burst_read(unsigned char, unsigned char*, unsigned int) build/obj/ICM20948.o (symbol from plugin)
ICM20948::init(hal_spi_driver*, hal_spi_config const*, hal_spi_config const*) build/obj/ICM20948.o (symbol from plugin)
                                                  build/obj/SPI.o (symbol from plugin)
ICM20948::init(hal_spi_driver*, hal_spi_config const*, hal_spi_config const*) [clone .isra.0] /tmp/BPRL.elf.FE4VjG.ltrans1.ltrans.o
                                                  /tmp/BPRL.elf.FE4VjG.ltrans0.ltrans.o
ICM20948::read(float*, float*)                    build/obj/ICM20948.o (symbol from plugin)
                                                  build/obj/threads.o (symbol from plugin)
ICM20948::reg_read(unsigned char)                 build/obj/ICM20948.o (symbol from plugin)
ICM20948::reg_write(unsigned char, unsigned char) /tmp/BPRL.elf.FE4VjG.ltrans0.ltrans.o
                                                  build/obj/ICM20948.o (symbol from plugin)
                                                  /tmp/BPRL.elf.FE4VjG.ltrans1.ltrans.o
ICM20948::set_bank(unsigned char)                 /tmp/BPRL.elf.FE4VjG.ltrans0.ltrans.o
                                                  build/obj/ICM20948.o (symbol from plugin)
                                                  /tmp/BPRL.elf.FE4VjG.ltrans1.ltrans.o
Logger.cpp.aad05b9d                               /tmp/ccV4PTbm.debug.temp.o
                                                  /tmp/BPRL.elf.FE4VjG.ltrans0.ltrans.o
Logger::close()                                   build/obj/Logger.o (symbol from plugin)
Logger::find_next_log_index(char*, unsigned int)  build/obj/Logger.o (symbol from plugin)
Logger::flush()                                   build/obj/Logger.o (symbol from plugin)
                                                  build/obj/threads.o (symbol from plugin)
Logger::init()                                    build/obj/Logger.o (symbol from plugin)
                                                  build/obj/threads.o (symbol from plugin)
Logger::is_ready() const                          build/obj/Logger.o (symbol from plugin)
Logger::ring_read(void*, unsigned int)            build/obj/Logger.o (symbol from plugin)
Logger::ring_write(void const*, unsigned int)     build/obj/Logger.o (symbol from plugin)
                                                  build/obj/threads.o (symbol from plugin)
Logger::write_schema_header()                     build/obj/Logger.o (symbol from plugin)
MemManage_Handler                                 build/obj/vectors.o
MotorMixer.cpp.2d364d9e                           /tmp/ccQl3QoJ.debug.temp.o
                                                  /tmp/BPRL.elf.FE4VjG.ltrans0.ltrans.o
MotorMixer::should_disarm(float const*)           build/obj/MotorMixer.o (symbol from plugin)
MotorMixer::update(float const*, float, bool, float const*, long*) const build/obj/MotorMixer.o (symbol from plugin)
                                                  build/obj/threads.o (symbol from plugin)
NMI_Handler                                       build/obj/vectors.o
PID.cpp.48159567                                  /tmp/cckVIbWA.debug.temp.o
                                                  /tmp/BPRL.elf.FE4VjG.ltrans0.ltrans.o
PID::PID(float, float, float, float, float)       build/obj/PID.o (symbol from plugin)
PID::PID(float, float, float, float, float)       build/obj/PID.o (symbol from plugin)
                                                  build/obj/AttitudeController.o (symbol from plugin)
PID::now_us()                                     build/obj/PID.o (symbol from plugin)
PID::reset()                                      build/obj/PID.o (symbol from plugin)
                                                  build/obj/AttitudeController.o (symbol from plugin)
PID::set_gains(float, float, float)               build/obj/PID.o (symbol from plugin)
PID::update(float)                                build/obj/PID.o (symbol from plugin)
                                                  build/obj/AttitudeController.o (symbol from plugin)
PWM.cpp.ebe5804e                                  /tmp/cc4q1Zko.debug.temp.o
                                                  /tmp/BPRL.elf.FE4VjG.ltrans0.ltrans.o
PendSV_Handler                                    build/obj/vectors.o
Radio.cpp.b59ada7a                                /tmp/ccBpW6ak.debug.temp.o
                                                  /tmp/BPRL.elf.FE4VjG.ltrans0.ltrans.o
Reset_Handler                                     build/obj/vectors.o
SBUS.cpp.8908e639                                 /tmp/cci8urcI.debug.temp.o
SD3                                               build/obj/hal_serial_lld.o (symbol from plugin)
                                                  build/obj/CRSF.o (symbol from plugin)
                                                  build/obj/stm32_isr.o (symbol from plugin)
SD6                                               build/obj/hal_serial_lld.o (symbol from plugin)
                                                  build/obj/SBUS.o (symbol from plugin)
                                                  build/obj/stm32_isr.o (symbol from plugin)
SDCD1                                             build/obj/hal_sdc_lld.o (symbol from plugin)
                                                  build/obj/Logger.o (symbol from plugin)
                                                  build/obj/fatfs_diskio.o (symbol from plugin)
                                                  build/obj/stm32_isr.o (symbol from plugin)
SDU1                                              build/obj/usb_serial.o (symbol from plugin)
SPI.cpp.19eaa0ba                                  /tmp/ccUA5s9m.debug.temp.o
                                                  /tmp/BPRL.elf.FE4VjG.ltrans0.ltrans.o
SPID1                                             build/obj/hal_spi_lld.o (symbol from plugin)
                                                  build/obj/SPI.o (symbol from plugin)
SPID4                                             build/obj/hal_spi_lld.o (symbol from plugin)
                                                  build/obj/SPI.o (symbol from plugin)
SVC_Handler                                       /tmp/BPRL.elf.FE4VjG.ltrans0.ltrans.o
                                                  build/obj/chcore.o (symbol from plugin)
                                                  build/obj/vectors.o
SbusParser::channel(unsigned char) const          build/obj/SBUS.o (symbol from plugin)
SbusParser::init()                                build/obj/SBUS.o (symbol from plugin)
SbusParser::unpack(unsigned char const*, unsigned short*) build/obj/SBUS.o (symbol from plugin)
SbusParser::update()                              build/obj/SBUS.o (symbol from plugin)
SecureFault_Handler                               build/obj/vectors.o
StateManager.cpp.c65382d9                         /tmp/ccVtlQW8.debug.temp.o
                                                  /tmp/BPRL.elf.FE4VjG.ltrans0.ltrans.o
StateManager::StateManager()                      build/obj/StateManager.o (symbol from plugin)
                                                  build/obj/threads.o (symbol from plugin)
StateManager::StateManager()                      build/obj/StateManager.o (symbol from plugin)
StateManager::_select_primary() const             build/obj/StateManager.o (symbol from plugin)
StateManager::get_state(float*) const             build/obj/StateManager.o (symbol from plugin)
                                                  build/obj/threads.o (symbol from plugin)
StateManager::init()                              build/obj/StateManager.o (symbol from plugin)
                                                  build/obj/threads.o (symbol from plugin)
StateManager::pitch() const                       build/obj/StateManager.o (symbol from plugin)
                                                  build/obj/threads.o (symbol from plugin)
StateManager::roll() const                        build/obj/StateManager.o (symbol from plugin)
                                                  build/obj/threads.o (symbol from plugin)
StateManager::update(float, IMURaw const*, CANIMURaw const&, MocapRaw const&) build/obj/StateManager.o (symbol from plugin)
                                                  build/obj/threads.o (symbol from plugin)
StateManager::yaw() const                         build/obj/StateManager.o (symbol from plugin)
                                                  build/obj/threads.o (symbol from plugin)
SysTick_Handler                                   build/obj/vectors.o
SystemCoreClock                                   build/obj/hal_lld.o (symbol from plugin)
USBD1                                             build/obj/hal_usb_lld.o (symbol from plugin)
                                                  build/obj/usb_serial.o (symbol from plugin)
UsageFault_Handler                                build/obj/vectors.o
Vector100                                         build/obj/vectors.o
Vector104                                         /tmp/BPRL.elf.FE4VjG.ltrans0.ltrans.o
                                                  build/obj/stm32_isr.o (symbol from plugin)
                                                  build/obj/vectors.o
Vector108                                         build/obj/vectors.o
Vector10C                                         build/obj/vectors.o
Vector110                                         build/obj/vectors.o
Vector114                                         build/obj/vectors.o
Vector118                                         build/obj/vectors.o
Vector11C                                         build/obj/vectors.o
Vector120                                         /tmp/BPRL.elf.FE4VjG.ltrans0.ltrans.o
                                                  build/obj/stm32_dma.o (symbol from plugin)
                                                  build/obj/vectors.o
Vector124                                         /tmp/BPRL.elf.FE4VjG.ltrans0.ltrans.o
                                                  build/obj/stm32_dma.o (symbol from plugin)
                                                  build/obj/vectors.o
Vector128                                         /tmp/BPRL.elf.FE4VjG.ltrans0.ltrans.o
                                                  build/obj/stm32_dma.o (symbol from plugin)
                                                  build/obj/vectors.o
Vector12C                                         /tmp/BPRL.elf.FE4VjG.ltrans0.ltrans.o
                                                  build/obj/stm32_dma.o (symbol from plugin)
                                                  build/obj/vectors.o
Vector130                                         /tmp/BPRL.elf.FE4VjG.ltrans0.ltrans.o
                                                  build/obj/stm32_dma.o (symbol from plugin)
                                                  build/obj/vectors.o
Vector134                                         build/obj/vectors.o
Vector138                                         build/obj/vectors.o
Vector13C                                         build/obj/vectors.o
Vector140                                         build/obj/vectors.o
Vector144                                         build/obj/vectors.o
Vector148                                         build/obj/vectors.o
Vector14C                                         build/obj/vectors.o
Vector150                                         /tmp/BPRL.elf.FE4VjG.ltrans0.ltrans.o
                                                  build/obj/stm32_dma.o (symbol from plugin)
                                                  build/obj/vectors.o
Vector154                                         /tmp/BPRL.elf.FE4VjG.ltrans0.ltrans.o
                                                  build/obj/stm32_dma.o (symbol from plugin)
                                                  build/obj/vectors.o
Vector158                                         /tmp/BPRL.elf.FE4VjG.ltrans0.ltrans.o
                                                  build/obj/stm32_dma.o (symbol from plugin)
                                                  build/obj/vectors.o
Vector15C                                         /tmp/BPRL.elf.FE4VjG.ltrans0.ltrans.o
                                                  build/obj/stm32_isr.o (symbol from plugin)
                                                  build/obj/vectors.o
Vector160                                         build/obj/vectors.o
Vector164                                         build/obj/vectors.o
Vector168                                         build/obj/vectors.o
Vector16C                                         build/obj/vectors.o
Vector170                                         build/obj/vectors.o
Vector174                                         build/obj/vectors.o
Vector178                                         build/obj/vectors.o
Vector17C                                         build/obj/vectors.o
Vector180                                         build/obj/vectors.o
Vector184                                         build/obj/vectors.o
Vector188                                         build/obj/vectors.o
Vector18C                                         build/obj/vectors.o
Vector190                                         /tmp/BPRL.elf.FE4VjG.ltrans0.ltrans.o
                                                  build/obj/hal_spi_lld.o (symbol from plugin)
                                                  build/obj/vectors.o
Vector194                                         build/obj/vectors.o
Vector198                                         build/obj/vectors.o
Vector19C                                         build/obj/vectors.o
Vector1A0                                         build/obj/vectors.o
Vector1A4                                         build/obj/vectors.o
Vector1A8                                         build/obj/vectors.o
Vector1AC                                         build/obj/vectors.o
Vector1B0                                         build/obj/vectors.o
Vector1B4                                         build/obj/vectors.o
Vector1B8                                         build/obj/vectors.o
Vector1BC                                         build/obj/vectors.o
Vector1C0                                         build/obj/vectors.o
Vector1C4                                         build/obj/vectors.o
Vector1C8                                         build/obj/vectors.o
Vector1CC                                         build/obj/vectors.o
Vector1D0                                         build/obj/vectors.o
Vector1D4                                         /tmp/BPRL.elf.FE4VjG.ltrans0.ltrans.o
                                                  build/obj/hal_usb_lld.o (symbol from plugin)
                                                  build/obj/vectors.o
Vector1D8                                         build/obj/vectors.o
Vector1DC                                         build/obj/vectors.o
Vector1E0                                         build/obj/vectors.o
Vector1E4                                         build/obj/vectors.o
Vector1E8                                         build/obj/vectors.o
Vector1EC                                         build/obj/vectors.o
Vector1F0                                         build/obj/vectors.o
Vector1F4                                         build/obj/vectors.o
Vector1F8                                         build/obj/vectors.o
Vector1FC                                         build/obj/vectors.o
Vector20                                          build/obj/vectors.o
Vector200                                         build/obj/vectors.o
Vector204                                         build/obj/vectors.o
Vector208                                         build/obj/vectors.o
Vector20C                                         build/obj/vectors.o
Vector210                                         build/obj/vectors.o
Vector214                                         build/obj/vectors.o
Vector218                                         build/obj/vectors.o
Vector21C                                         build/obj/vectors.o
Vector220                                         build/obj/vectors.o
Vector224                                         build/obj/vectors.o
Vector228                                         build/obj/vectors.o
Vector22C                                         build/obj/vectors.o
Vector230                                         build/obj/vectors.o
Vector234                                         build/obj/vectors.o
Vector238                                         build/obj/vectors.o
Vector23C                                         build/obj/vectors.o
Vector24                                          build/obj/vectors.o
Vector240                                         build/obj/vectors.o
Vector244                                         build/obj/vectors.o
Vector248                                         build/obj/vectors.o
Vector24C                                         build/obj/vectors.o
Vector250                                         build/obj/vectors.o
Vector254                                         build/obj/vectors.o
Vector258                                         build/obj/vectors.o
Vector25C                                         build/obj/vectors.o
Vector260                                         build/obj/vectors.o
Vector264                                         build/obj/vectors.o
Vector268                                         build/obj/vectors.o
Vector26C                                         build/obj/vectors.o
Vector270                                         build/obj/vectors.o
Vector274                                         build/obj/vectors.o
Vector278                                         build/obj/vectors.o
Vector27C                                         build/obj/vectors.o
Vector28                                          build/obj/vectors.o
Vector280                                         build/obj/vectors.o
Vector284                                         build/obj/vectors.o
Vector288                                         build/obj/vectors.o
Vector28C                                         build/obj/vectors.o
Vector290                                         build/obj/vectors.o
Vector294                                         build/obj/vectors.o
Vector298                                         build/obj/vectors.o
Vector29C                                         build/obj/vectors.o
Vector2A0                                         build/obj/vectors.o
Vector2A4                                         build/obj/vectors.o
Vector2A8                                         build/obj/vectors.o
Vector2AC                                         build/obj/vectors.o
Vector2B0                                         build/obj/vectors.o
Vector2B4                                         build/obj/vectors.o
Vector2B8                                         build/obj/vectors.o
Vector2BC                                         build/obj/vectors.o
Vector2C0                                         build/obj/vectors.o
Vector2C4                                         build/obj/vectors.o
Vector2C8                                         build/obj/vectors.o
Vector2CC                                         build/obj/vectors.o
Vector2D0                                         build/obj/vectors.o
Vector2D4                                         build/obj/vectors.o
Vector2D8                                         build/obj/vectors.o
Vector2DC                                         build/obj/vectors.o
Vector34                                          build/obj/vectors.o
Vector40                                          build/obj/vectors.o
Vector44                                          build/obj/vectors.o
Vector48                                          build/obj/vectors.o
Vector4C                                          build/obj/vectors.o
Vector50                                          build/obj/vectors.o
Vector54                                          build/obj/vectors.o
Vector58                                          build/obj/vectors.o
Vector5C                                          build/obj/vectors.o
Vector60                                          build/obj/vectors.o
Vector64                                          build/obj/vectors.o
Vector68                                          build/obj/vectors.o
Vector6C                                          /tmp/BPRL.elf.FE4VjG.ltrans0.ltrans.o
                                                  build/obj/stm32_dma.o (symbol from plugin)
                                                  build/obj/vectors.o
Vector70                                          /tmp/BPRL.elf.FE4VjG.ltrans0.ltrans.o
                                                  build/obj/stm32_dma.o (symbol from plugin)
                                                  build/obj/vectors.o
Vector74                                          /tmp/BPRL.elf.FE4VjG.ltrans0.ltrans.o
                                                  build/obj/stm32_dma.o (symbol from plugin)
                                                  build/obj/vectors.o
Vector78                                          /tmp/BPRL.elf.FE4VjG.ltrans0.ltrans.o
                                                  build/obj/stm32_dma.o (symbol from plugin)
                                                  build/obj/vectors.o
Vector7C                                          /tmp/BPRL.elf.FE4VjG.ltrans0.ltrans.o
                                                  build/obj/stm32_dma.o (symbol from plugin)
                                                  build/obj/vectors.o
Vector80                                          /tmp/BPRL.elf.FE4VjG.ltrans0.ltrans.o
                                                  build/obj/stm32_dma.o (symbol from plugin)
                                                  build/obj/vectors.o
Vector84                                          /tmp/BPRL.elf.FE4VjG.ltrans0.ltrans.o
                                                  build/obj/stm32_dma.o (symbol from plugin)
                                                  build/obj/vectors.o
Vector88                                          build/obj/vectors.o
Vector8C                                          /tmp/BPRL.elf.FE4VjG.ltrans0.ltrans.o
                                                  build/obj/stm32_isr.o (symbol from plugin)
                                                  build/obj/vectors.o
Vector90                                          build/obj/vectors.o
Vector94                                          build/obj/vectors.o
Vector98                                          build/obj/vectors.o
Vector9C                                          build/obj/vectors.o
VectorA0                                          build/obj/vectors.o
VectorA4                                          build/obj/vectors.o
VectorA8                                          build/obj/vectors.o
VectorAC                                          /tmp/BPRL.elf.FE4VjG.ltrans0.ltrans.o
                                                  build/obj/DShot.o (symbol from plugin)
                                                  build/obj/vectors.o
VectorB0                                          /tmp/BPRL.elf.FE4VjG.ltrans0.ltrans.o
                                                  build/obj/stm32_isr.o (symbol from plugin)
                                                  build/obj/vectors.o
VectorB4                                          build/obj/vectors.o
VectorB8                                          build/obj/vectors.o
VectorBC                                          build/obj/vectors.o
VectorC0                                          build/obj/vectors.o
VectorC4                                          build/obj/vectors.o
VectorC8                                          build/obj/vectors.o
VectorCC                                          /tmp/BPRL.elf.FE4VjG.ltrans0.ltrans.o
                                                  build/obj/hal_spi_lld.o (symbol from plugin)
                                                  build/obj/vectors.o
VectorD0                                          build/obj/vectors.o
VectorD4                                          build/obj/vectors.o
VectorD8                                          build/obj/vectors.o
VectorDC                                          /tmp/BPRL.elf.FE4VjG.ltrans0.ltrans.o
                                                  build/obj/stm32_isr.o (symbol from plugin)
                                                  build/obj/vectors.o
VectorE0                                          build/obj/vectors.o
VectorE4                                          build/obj/vectors.o
VectorE8                                          build/obj/vectors.o
VectorEC                                          build/obj/vectors.o
VectorF0                                          build/obj/vectors.o
VectorF4                                          build/obj/vectors.o
VectorF8                                          build/obj/vectors.o
VectorFC                                          /tmp/BPRL.elf.FE4VjG.ltrans0.ltrans.o
                                                  build/obj/stm32_dma.o (symbol from plugin)
                                                  build/obj/vectors.o
_Balloc                                           /opt/gcc-arm-none-eabi-10-2020-q4-major/bin/../lib/gcc/arm-none-eabi/10.2.1/../../../../arm-none-eabi/lib/thumb/v7e-m+dp/hard/libg.a(lib_a-mprec.o)
                                                  /opt/gcc-arm-none-eabi-10-2020-q4-major/bin/../lib/gcc/arm-none-eabi/10.2.1/../../../../arm-none-eabi/lib/thumb/v7e-m+dp/hard/libg.a(lib_a-dtoa.o)
_Bfree                                            /opt/gcc-arm-none-eabi-10-2020-q4-major/bin/../lib/gcc/arm-none-eabi/10.2.1/../../../../arm-none-eabi/lib/thumb/v7e-m+dp/hard/libg.a(lib_a-mprec.o)
                                                  /opt/gcc-arm-none-eabi-10-2020-q4-major/bin/../lib/gcc/arm-none-eabi/10.2.1/../../../../arm-none-eabi/lib/thumb/v7e-m+dp/hard/libg.a(lib_a-dtoa.o)
_PathLocale                                       /opt/gcc-arm-none-eabi-10-2020-q4-major/bin/../lib/gcc/arm-none-eabi/10.2.1/../../../../arm-none-eabi/lib/thumb/v7e-m+dp/hard/libg.a(lib_a-locale.o)
_Unwind_Backtrace                                 /opt/gcc-arm-none-eabi-10-2020-q4-major/bin/../lib/gcc/arm-none-eabi/10.2.1/thumb/v7e-m+dp/hard/libgcc.a(libunwind.o)
_Unwind_Complete                                  /opt/gcc-arm-none-eabi-10-2020-q4-major/bin/../lib/gcc/arm-none-eabi/10.2.1/thumb/v7e-m+dp/hard/libgcc.a(unwind-arm.o)
_Unwind_DeleteException                           /opt/gcc-arm-none-eabi-10-2020-q4-major/bin/../lib/gcc/arm-none-eabi/10.2.1/thumb/v7e-m+dp/hard/libgcc.a(unwind-arm.o)
_Unwind_ForcedUnwind                              /opt/gcc-arm-none-eabi-10-2020-q4-major/bin/../lib/gcc/arm-none-eabi/10.2.1/thumb/v7e-m+dp/hard/libgcc.a(libunwind.o)
_Unwind_GetCFA                                    /opt/gcc-arm-none-eabi-10-2020-q4-major/bin/../lib/gcc/arm-none-eabi/10.2.1/thumb/v7e-m+dp/hard/libgcc.a(unwind-arm.o)
_Unwind_GetDataRelBase                            /opt/gcc-arm-none-eabi-10-2020-q4-major/bin/../lib/gcc/arm-none-eabi/10.2.1/thumb/v7e-m+dp/hard/libgcc.a(pr-support.o)
_Unwind_GetLanguageSpecificData                   /opt/gcc-arm-none-eabi-10-2020-q4-major/bin/../lib/gcc/arm-none-eabi/10.2.1/thumb/v7e-m+dp/hard/libgcc.a(pr-support.o)
_Unwind_GetRegionStart                            /opt/gcc-arm-none-eabi-10-2020-q4-major/bin/../lib/gcc/arm-none-eabi/10.2.1/thumb/v7e-m+dp/hard/libgcc.a(pr-support.o)
_Unwind_GetTextRelBase                            /opt/gcc-arm-none-eabi-10-2020-q4-major/bin/../lib/gcc/arm-none-eabi/10.2.1/thumb/v7e-m+dp/hard/libgcc.a(pr-support.o)
_Unwind_RaiseException                            /opt/gcc-arm-none-eabi-10-2020-q4-major/bin/../lib/gcc/arm-none-eabi/10.2.1/thumb/v7e-m+dp/hard/libgcc.a(libunwind.o)
_Unwind_Resume                                    /opt/gcc-arm-none-eabi-10-2020-q4-major/bin/../lib/gcc/arm-none-eabi/10.2.1/thumb/v7e-m+dp/hard/libgcc.a(libunwind.o)
_Unwind_Resume_or_Rethrow                         /opt/gcc-arm-none-eabi-10-2020-q4-major/bin/../lib/gcc/arm-none-eabi/10.2.1/thumb/v7e-m+dp/hard/libgcc.a(libunwind.o)
_Unwind_VRS_Get                                   /opt/gcc-arm-none-eabi-10-2020-q4-major/bin/../lib/gcc/arm-none-eabi/10.2.1/thumb/v7e-m+dp/hard/libgcc.a(unwind-arm.o)
                                                  /opt/gcc-arm-none-eabi-10-2020-q4-major/bin/../lib/gcc/arm-none-eabi/10.2.1/thumb/v7e-m+dp/hard/libgcc.a(pr-support.o)
_Unwind_VRS_Pop                                   /opt/gcc-arm-none-eabi-10-2020-q4-major/bin/../lib/gcc/arm-none-eabi/10.2.1/thumb/v7e-m+dp/hard/libgcc.a(unwind-arm.o)
                                                  /opt/gcc-arm-none-eabi-10-2020-q4-major/bin/../lib/gcc/arm-none-eabi/10.2.1/thumb/v7e-m+dp/hard/libgcc.a(pr-support.o)
_Unwind_VRS_Set                                   /opt/gcc-arm-none-eabi-10-2020-q4-major/bin/../lib/gcc/arm-none-eabi/10.2.1/thumb/v7e-m+dp/hard/libgcc.a(unwind-arm.o)
                                                  /opt/gcc-arm-none-eabi-10-2020-q4-major/bin/../lib/gcc/arm-none-eabi/10.2.1/thumb/v7e-m+dp/hard/libgcc.a(pr-support.o)
_ZL8att_ctrl.lto_priv.0                           /tmp/BPRL.elf.FE4VjG.ltrans0.ltrans.o
                                                  /tmp/BPRL.elf.FE4VjG.ltrans1.ltrans.o
_ZL9state_mgr.lto_priv.0                          /tmp/BPRL.elf.FE4VjG.ltrans0.ltrans.o
                                                  /tmp/BPRL.elf.FE4VjG.ltrans1.ltrans.o
___Unwind_Backtrace                               /opt/gcc-arm-none-eabi-10-2020-q4-major/bin/../lib/gcc/arm-none-eabi/10.2.1/thumb/v7e-m+dp/hard/libgcc.a(libunwind.o)
___Unwind_ForcedUnwind                            /opt/gcc-arm-none-eabi-10-2020-q4-major/bin/../lib/gcc/arm-none-eabi/10.2.1/thumb/v7e-m+dp/hard/libgcc.a(libunwind.o)
___Unwind_RaiseException                          /opt/gcc-arm-none-eabi-10-2020-q4-major/bin/../lib/gcc/arm-none-eabi/10.2.1/thumb/v7e-m+dp/hard/libgcc.a(libunwind.o)
___Unwind_Resume                                  /opt/gcc-arm-none-eabi-10-2020-q4-major/bin/../lib/gcc/arm-none-eabi/10.2.1/thumb/v7e-m+dp/hard/libgcc.a(libunwind.o)
___Unwind_Resume_or_Rethrow                       /opt/gcc-arm-none-eabi-10-2020-q4-major/bin/../lib/gcc/arm-none-eabi/10.2.1/thumb/v7e-m+dp/hard/libgcc.a(libunwind.o)
__adddf3                                          /opt/gcc-arm-none-eabi-10-2020-q4-major/bin/../lib/gcc/arm-none-eabi/10.2.1/thumb/v7e-m+dp/hard/libgcc.a(_arm_addsubdf3.o)
__aeabi_dadd                                      /opt/gcc-arm-none-eabi-10-2020-q4-major/bin/../lib/gcc/arm-none-eabi/10.2.1/thumb/v7e-m+dp/hard/libgcc.a(_arm_addsubdf3.o)
__aeabi_drsub                                     /opt/gcc-arm-none-eabi-10-2020-q4-major/bin/../lib/gcc/arm-none-eabi/10.2.1/thumb/v7e-m+dp/hard/libgcc.a(_arm_addsubdf3.o)
__aeabi_dsub                                      /opt/gcc-arm-none-eabi-10-2020-q4-major/bin/../lib/gcc/arm-none-eabi/10.2.1/thumb/v7e-m+dp/hard/libgcc.a(_arm_addsubdf3.o)
__aeabi_f2d                                       /opt/gcc-arm-none-eabi-10-2020-q4-major/bin/../lib/gcc/arm-none-eabi/10.2.1/thumb/v7e-m+dp/hard/libgcc.a(_arm_addsubdf3.o)
__aeabi_i2d                                       /opt/gcc-arm-none-eabi-10-2020-q4-major/bin/../lib/gcc/arm-none-eabi/10.2.1/thumb/v7e-m+dp/hard/libgcc.a(_arm_addsubdf3.o)
__aeabi_idiv0                                     /opt/gcc-arm-none-eabi-10-2020-q4-major/bin/../lib/gcc/arm-none-eabi/10.2.1/thumb/v7e-m+dp/hard/libgcc.a(_dvmd_tls.o)
__aeabi_l2d                                       /opt/gcc-arm-none-eabi-10-2020-q4-major/bin/../lib/gcc/arm-none-eabi/10.2.1/thumb/v7e-m+dp/hard/libgcc.a(_arm_addsubdf3.o)
                                                  /opt/gcc-arm-none-eabi-10-2020-q4-major/bin/../lib/gcc/arm-none-eabi/10.2.1/../../../../arm-none-eabi/lib/thumb/v7e-m+dp/hard/libm.a(lib_a-cosf.o)
__aeabi_ldiv0                                     /opt/gcc-arm-none-eabi-10-2020-q4-major/bin/../lib/gcc/arm-none-eabi/10.2.1/thumb/v7e-m+dp/hard/libgcc.a(_dvmd_tls.o)
                                                  /opt/gcc-arm-none-eabi-10-2020-q4-major/bin/../lib/gcc/arm-none-eabi/10.2.1/thumb/v7e-m+dp/hard/libgcc.a(_aeabi_uldivmod.o)
                                                  /opt/gcc-arm-none-eabi-10-2020-q4-major/bin/../lib/gcc/arm-none-eabi/10.2.1/thumb/v7e-m+dp/hard/libgcc.a(_aeabi_ldivmod.o)
__aeabi_ldivmod                                   /opt/gcc-arm-none-eabi-10-2020-q4-major/bin/../lib/gcc/arm-none-eabi/10.2.1/thumb/v7e-m+dp/hard/libgcc.a(_aeabi_ldivmod.o)
                                                  /tmp/BPRL.elf.FE4VjG.ltrans0.ltrans.o
__aeabi_ui2d                                      /opt/gcc-arm-none-eabi-10-2020-q4-major/bin/../lib/gcc/arm-none-eabi/10.2.1/thumb/v7e-m+dp/hard/libgcc.a(_arm_addsubdf3.o)
__aeabi_ul2d                                      /opt/gcc-arm-none-eabi-10-2020-q4-major/bin/../lib/gcc/arm-none-eabi/10.2.1/thumb/v7e-m+dp/hard/libgcc.a(_arm_addsubdf3.o)
__aeabi_uldivmod                                  /opt/gcc-arm-none-eabi-10-2020-q4-major/bin/../lib/gcc/arm-none-eabi/10.2.1/thumb/v7e-m+dp/hard/libgcc.a(_aeabi_uldivmod.o)
                                                  /opt/gcc-arm-none-eabi-10-2020-q4-major/bin/../lib/gcc/arm-none-eabi/10.2.1/../../../../arm-none-eabi/lib/thumb/v7e-m+dp/hard/libg.a(lib_a-vfiprintf.o)
                                                  /opt/gcc-arm-none-eabi-10-2020-q4-major/bin/../lib/gcc/arm-none-eabi/10.2.1/../../../../arm-none-eabi/lib/thumb/v7e-m+dp/hard/libg.a(lib_a-svfiprintf.o)
                                                  /opt/gcc-arm-none-eabi-10-2020-q4-major/bin/../lib/gcc/arm-none-eabi/10.2.1/../../../../arm-none-eabi/lib/thumb/v7e-m+dp/hard/libg.a(lib_a-svfprintf.o)
                                                  /tmp/BPRL.elf.FE4VjG.ltrans0.ltrans.o
__aeabi_unwind_cpp_pr0                            /opt/gcc-arm-none-eabi-10-2020-q4-major/bin/../lib/gcc/arm-none-eabi/10.2.1/thumb/v7e-m+dp/hard/libgcc.a(unwind-arm.o)
                                                  /opt/gcc-arm-none-eabi-10-2020-q4-major/bin/../lib/gcc/arm-none-eabi/10.2.1/thumb/v7e-m+dp/hard/libgcc.a(pr-support.o)
                                                  /tmp/BPRL.elf.FE4VjG.ltrans0.ltrans.o
__aeabi_unwind_cpp_pr1                            /opt/gcc-arm-none-eabi-10-2020-q4-major/bin/../lib/gcc/arm-none-eabi/10.2.1/thumb/v7e-m+dp/hard/libgcc.a(unwind-arm.o)
                                                  /opt/gcc-arm-none-eabi-10-2020-q4-major/bin/../lib/gcc/arm-none-eabi/10.2.1/thumb/v7e-m+dp/hard/libgcc.a(pr-support.o)
                                                  /tmp/BPRL.elf.FE4VjG.ltrans0.ltrans.o
__aeabi_unwind_cpp_pr2                            /opt/gcc-arm-none-eabi-10-2020-q4-major/bin/../lib/gcc/arm-none-eabi/10.2.1/thumb/v7e-m+dp/hard/libgcc.a(unwind-arm.o)
__any_on                                          /opt/gcc-arm-none-eabi-10-2020-q4-major/bin/../lib/gcc/arm-none-eabi/10.2.1/../../../../arm-none-eabi/lib/thumb/v7e-m+dp/hard/libg.a(lib_a-mprec.o)
__ascii_mbtowc                                    /opt/gcc-arm-none-eabi-10-2020-q4-major/bin/../lib/gcc/arm-none-eabi/10.2.1/../../../../arm-none-eabi/lib/thumb/v7e-m+dp/hard/libg.a(lib_a-mbtowc_r.o)
                                                  /opt/gcc-arm-none-eabi-10-2020-q4-major/bin/../lib/gcc/arm-none-eabi/10.2.1/../../../../arm-none-eabi/lib/thumb/v7e-m+dp/hard/libg.a(lib_a-locale.o)
__ascii_wctomb                                    /opt/gcc-arm-none-eabi-10-2020-q4-major/bin/../lib/gcc/arm-none-eabi/10.2.1/../../../../arm-none-eabi/lib/thumb/v7e-m+dp/hard/libg.a(lib_a-wctomb_r.o)
                                                  /opt/gcc-arm-none-eabi-10-2020-q4-major/bin/../lib/gcc/arm-none-eabi/10.2.1/../../../../arm-none-eabi/lib/thumb/v7e-m+dp/hard/libg.a(lib_a-locale.o)
__assert                                          /opt/gcc-arm-none-eabi-10-2020-q4-major/bin/../lib/gcc/arm-none-eabi/10.2.1/../../../../arm-none-eabi/lib/thumb/v7e-m+dp/hard/libg.a(lib_a-assert.o)
__assert_func                                     /opt/gcc-arm-none-eabi-10-2020-q4-major/bin/../lib/gcc/arm-none-eabi/10.2.1/../../../../arm-none-eabi/lib/thumb/v7e-m+dp/hard/libg.a(lib_a-assert.o)
                                                  /opt/gcc-arm-none-eabi-10-2020-q4-major/bin/../lib/gcc/arm-none-eabi/10.2.1/../../../../arm-none-eabi/lib/thumb/v7e-m+dp/hard/libg.a(lib_a-mprec.o)
                                                  /opt/gcc-arm-none-eabi-10-2020-q4-major/bin/../lib/gcc/arm-none-eabi/10.2.1/../../../../arm-none-eabi/lib/thumb/v7e-m+dp/hard/libg.a(lib_a-dtoa.o)
__b2d                                             /opt/gcc-arm-none-eabi-10-2020-q4-major/bin/../lib/gcc/arm-none-eabi/10.2.1/../../../../arm-none-eabi/lib/thumb/v7e-m+dp/hard/libg.a(lib_a-mprec.o)
__bss_base__                                      build/obj/crt0_v7m.o
__bss_end__                                       build/obj/crt0_v7m.o
__ch_delegate_fn0                                 build/obj/chdelegates.o (symbol from plugin)
__ch_delegate_fn1                                 build/obj/chdelegates.o (symbol from plugin)
__ch_delegate_fn2                                 build/obj/chdelegates.o (symbol from plugin)
__ch_delegate_fn3                                 build/obj/chdelegates.o (symbol from plugin)
__ch_delegate_fn4                                 build/obj/chdelegates.o (symbol from plugin)
__copybits                                        /opt/gcc-arm-none-eabi-10-2020-q4-major/bin/../lib/gcc/arm-none-eabi/10.2.1/../../../../arm-none-eabi/lib/thumb/v7e-m+dp/hard/libg.a(lib_a-mprec.o)
__core_init                                       build/obj/chmemcore.o (symbol from plugin)
                                                  build/obj/chsys.o (symbol from plugin)
__cpu_init                                        /tmp/BPRL.elf.FE4VjG.ltrans0.ltrans.o
                                                  build/obj/crt1.o (symbol from plugin)
                                                  build/obj/crt0_v7m.o
__cxa_begin_cleanup                               /opt/gcc-arm-none-eabi-10-2020-q4-major/bin/../lib/gcc/arm-none-eabi/10.2.1/thumb/v7e-m+dp/hard/libgcc.a(unwind-arm.o)
__cxa_call_unexpected                             /opt/gcc-arm-none-eabi-10-2020-q4-major/bin/../lib/gcc/arm-none-eabi/10.2.1/thumb/v7e-m+dp/hard/libgcc.a(unwind-arm.o)
__cxa_pure_virtual                                build/obj/syscalls.o (symbol from plugin)
__cxa_type_match                                  /opt/gcc-arm-none-eabi-10-2020-q4-major/bin/../lib/gcc/arm-none-eabi/10.2.1/thumb/v7e-m+dp/hard/libgcc.a(unwind-arm.o)
__d2b                                             /opt/gcc-arm-none-eabi-10-2020-q4-major/bin/../lib/gcc/arm-none-eabi/10.2.1/../../../../arm-none-eabi/lib/thumb/v7e-m+dp/hard/libg.a(lib_a-mprec.o)
                                                  /opt/gcc-arm-none-eabi-10-2020-q4-major/bin/../lib/gcc/arm-none-eabi/10.2.1/../../../../arm-none-eabi/lib/thumb/v7e-m+dp/hard/libg.a(lib_a-dtoa.o)
__data_base__                                     build/obj/crt0_v7m.o
__data_end__                                      build/obj/crt0_v7m.o
__default_exit                                    /tmp/BPRL.elf.FE4VjG.ltrans0.ltrans.o
                                                  build/obj/crt1.o (symbol from plugin)
                                                  build/obj/crt0_v7m.o
__early_init                                      /tmp/BPRL.elf.FE4VjG.ltrans0.ltrans.o
                                                  build/obj/crt1.o (symbol from plugin)
                                                  build/obj/crt0_v7m.o
__errno                                           /opt/gcc-arm-none-eabi-10-2020-q4-major/bin/../lib/gcc/arm-none-eabi/10.2.1/../../../../arm-none-eabi/lib/thumb/v7e-m+dp/hard/libg.a(lib_a-errno.o)
                                                  /opt/gcc-arm-none-eabi-10-2020-q4-major/bin/../lib/gcc/arm-none-eabi/10.2.1/../../../../arm-none-eabi/lib/thumb/v7e-m+dp/hard/libm.a(lib_a-wf_sqrt.o)
                                                  /opt/gcc-arm-none-eabi-10-2020-q4-major/bin/../lib/gcc/arm-none-eabi/10.2.1/../../../../arm-none-eabi/lib/thumb/v7e-m+dp/hard/libm.a(lib_a-wf_asin.o)
                                                  /opt/gcc-arm-none-eabi-10-2020-q4-major/bin/../lib/gcc/arm-none-eabi/10.2.1/../../../../arm-none-eabi/lib/thumb/v7e-m+dp/hard/libm.a(lib_a-math_errf.o)
__exidx_end                                       /opt/gcc-arm-none-eabi-10-2020-q4-major/bin/../lib/gcc/arm-none-eabi/10.2.1/thumb/v7e-m+dp/hard/libgcc.a(unwind-arm.o)
__exidx_start                                     /opt/gcc-arm-none-eabi-10-2020-q4-major/bin/../lib/gcc/arm-none-eabi/10.2.1/thumb/v7e-m+dp/hard/libgcc.a(unwind-arm.o)
__extendsfdf2                                     /opt/gcc-arm-none-eabi-10-2020-q4-major/bin/../lib/gcc/arm-none-eabi/10.2.1/thumb/v7e-m+dp/hard/libgcc.a(_arm_addsubdf3.o)
__factory_init                                    build/obj/chfactory.o (symbol from plugin)
                                                  build/obj/chsys.o (symbol from plugin)
__fdlib_version                                   /opt/gcc-arm-none-eabi-10-2020-q4-major/bin/../lib/gcc/arm-none-eabi/10.2.1/../../../../arm-none-eabi/lib/thumb/v7e-m+dp/hard/libm.a(lib_a-s_lib_ver.o)
                                                  /opt/gcc-arm-none-eabi-10-2020-q4-major/bin/../lib/gcc/arm-none-eabi/10.2.1/../../../../arm-none-eabi/lib/thumb/v7e-m+dp/hard/libm.a(lib_a-wf_sqrt.o)
                                                  /opt/gcc-arm-none-eabi-10-2020-q4-major/bin/../lib/gcc/arm-none-eabi/10.2.1/../../../../arm-none-eabi/lib/thumb/v7e-m+dp/hard/libm.a(lib_a-wf_asin.o)
__fini_array_base__                               build/obj/crt0_v7m.o
__fini_array_end__                                build/obj/crt0_v7m.o
__floatdidf                                       /opt/gcc-arm-none-eabi-10-2020-q4-major/bin/../lib/gcc/arm-none-eabi/10.2.1/thumb/v7e-m+dp/hard/libgcc.a(_arm_addsubdf3.o)
__floatsidf                                       /opt/gcc-arm-none-eabi-10-2020-q4-major/bin/../lib/gcc/arm-none-eabi/10.2.1/thumb/v7e-m+dp/hard/libgcc.a(_arm_addsubdf3.o)
__floatundidf                                     /opt/gcc-arm-none-eabi-10-2020-q4-major/bin/../lib/gcc/arm-none-eabi/10.2.1/thumb/v7e-m+dp/hard/libgcc.a(_arm_addsubdf3.o)
__floatunsidf                                     /opt/gcc-arm-none-eabi-10-2020-q4-major/bin/../lib/gcc/arm-none-eabi/10.2.1/thumb/v7e-m+dp/hard/libgcc.a(_arm_addsubdf3.o)
__fp_lock_all                                     /opt/gcc-arm-none-eabi-10-2020-q4-major/bin/../lib/gcc/arm-none-eabi/10.2.1/../../../../arm-none-eabi/lib/thumb/v7e-m+dp/hard/libg.a(lib_a-findfp.o)
__fp_unlock_all                                   /opt/gcc-arm-none-eabi-10-2020-q4-major/bin/../lib/gcc/arm-none-eabi/10.2.1/../../../../arm-none-eabi/lib/thumb/v7e-m+dp/hard/libg.a(lib_a-findfp.o)
__fputwc                                          /opt/gcc-arm-none-eabi-10-2020-q4-major/bin/../lib/gcc/arm-none-eabi/10.2.1/../../../../arm-none-eabi/lib/thumb/v7e-m+dp/hard/libg.a(lib_a-fputwc.o)
__global_locale                                   /opt/gcc-arm-none-eabi-10-2020-q4-major/bin/../lib/gcc/arm-none-eabi/10.2.1/../../../../arm-none-eabi/lib/thumb/v7e-m+dp/hard/libg.a(lib_a-locale.o)
                                                  /opt/gcc-arm-none-eabi-10-2020-q4-major/bin/../lib/gcc/arm-none-eabi/10.2.1/../../../../arm-none-eabi/lib/thumb/v7e-m+dp/hard/libg.a(lib_a-wcrtomb.o)
                                                  /opt/gcc-arm-none-eabi-10-2020-q4-major/bin/../lib/gcc/arm-none-eabi/10.2.1/../../../../arm-none-eabi/lib/thumb/v7e-m+dp/hard/libg.a(lib_a-wctomb_r.o)
                                                  /opt/gcc-arm-none-eabi-10-2020-q4-major/bin/../lib/gcc/arm-none-eabi/10.2.1/../../../../arm-none-eabi/lib/thumb/v7e-m+dp/hard/libg.a(lib_a-mbtowc_r.o)
                                                  /opt/gcc-arm-none-eabi-10-2020-q4-major/bin/../lib/gcc/arm-none-eabi/10.2.1/../../../../arm-none-eabi/lib/thumb/v7e-m+dp/hard/libg.a(lib_a-localeconv.o)
__gnu_Unwind_Backtrace                            /opt/gcc-arm-none-eabi-10-2020-q4-major/bin/../lib/gcc/arm-none-eabi/10.2.1/thumb/v7e-m+dp/hard/libgcc.a(unwind-arm.o)
                                                  /opt/gcc-arm-none-eabi-10-2020-q4-major/bin/../lib/gcc/arm-none-eabi/10.2.1/thumb/v7e-m+dp/hard/libgcc.a(libunwind.o)
__gnu_Unwind_Find_exidx                           /opt/gcc-arm-none-eabi-10-2020-q4-major/bin/../lib/gcc/arm-none-eabi/10.2.1/thumb/v7e-m+dp/hard/libgcc.a(unwind-arm.o)
__gnu_Unwind_ForcedUnwind                         /opt/gcc-arm-none-eabi-10-2020-q4-major/bin/../lib/gcc/arm-none-eabi/10.2.1/thumb/v7e-m+dp/hard/libgcc.a(unwind-arm.o)
                                                  /opt/gcc-arm-none-eabi-10-2020-q4-major/bin/../lib/gcc/arm-none-eabi/10.2.1/thumb/v7e-m+dp/hard/libgcc.a(libunwind.o)
__gnu_Unwind_RaiseException                       /opt/gcc-arm-none-eabi-10-2020-q4-major/bin/../lib/gcc/arm-none-eabi/10.2.1/thumb/v7e-m+dp/hard/libgcc.a(unwind-arm.o)
                                                  /opt/gcc-arm-none-eabi-10-2020-q4-major/bin/../lib/gcc/arm-none-eabi/10.2.1/thumb/v7e-m+dp/hard/libgcc.a(libunwind.o)
__gnu_Unwind_Restore_VFP                          /opt/gcc-arm-none-eabi-10-2020-q4-major/bin/../lib/gcc/arm-none-eabi/10.2.1/thumb/v7e-m+dp/hard/libgcc.a(libunwind.o)
                                                  /opt/gcc-arm-none-eabi-10-2020-q4-major/bin/../lib/gcc/arm-none-eabi/10.2.1/thumb/v7e-m+dp/hard/libgcc.a(unwind-arm.o)
__gnu_Unwind_Restore_VFP_D                        /opt/gcc-arm-none-eabi-10-2020-q4-major/bin/../lib/gcc/arm-none-eabi/10.2.1/thumb/v7e-m+dp/hard/libgcc.a(libunwind.o)
                                                  /opt/gcc-arm-none-eabi-10-2020-q4-major/bin/../lib/gcc/arm-none-eabi/10.2.1/thumb/v7e-m+dp/hard/libgcc.a(unwind-arm.o)
__gnu_Unwind_Restore_VFP_D_16_to_31               /opt/gcc-arm-none-eabi-10-2020-q4-major/bin/../lib/gcc/arm-none-eabi/10.2.1/thumb/v7e-m+dp/hard/libgcc.a(libunwind.o)
                                                  /opt/gcc-arm-none-eabi-10-2020-q4-major/bin/../lib/gcc/arm-none-eabi/10.2.1/thumb/v7e-m+dp/hard/libgcc.a(unwind-arm.o)
__gnu_Unwind_Restore_WMMXC                        /opt/gcc-arm-none-eabi-10-2020-q4-major/bin/../lib/gcc/arm-none-eabi/10.2.1/thumb/v7e-m+dp/hard/libgcc.a(libunwind.o)
                                                  /opt/gcc-arm-none-eabi-10-2020-q4-major/bin/../lib/gcc/arm-none-eabi/10.2.1/thumb/v7e-m+dp/hard/libgcc.a(unwind-arm.o)
__gnu_Unwind_Restore_WMMXD                        /opt/gcc-arm-none-eabi-10-2020-q4-major/bin/../lib/gcc/arm-none-eabi/10.2.1/thumb/v7e-m+dp/hard/libgcc.a(libunwind.o)
                                                  /opt/gcc-arm-none-eabi-10-2020-q4-major/bin/../lib/gcc/arm-none-eabi/10.2.1/thumb/v7e-m+dp/hard/libgcc.a(unwind-arm.o)
__gnu_Unwind_Resume                               /opt/gcc-arm-none-eabi-10-2020-q4-major/bin/../lib/gcc/arm-none-eabi/10.2.1/thumb/v7e-m+dp/hard/libgcc.a(unwind-arm.o)
                                                  /opt/gcc-arm-none-eabi-10-2020-q4-major/bin/../lib/gcc/arm-none-eabi/10.2.1/thumb/v7e-m+dp/hard/libgcc.a(libunwind.o)
__gnu_Unwind_Resume_or_Rethrow                    /opt/gcc-arm-none-eabi-10-2020-q4-major/bin/../lib/gcc/arm-none-eabi/10.2.1/thumb/v7e-m+dp/hard/libgcc.a(unwind-arm.o)
                                                  /opt/gcc-arm-none-eabi-10-2020-q4-major/bin/../lib/gcc/arm-none-eabi/10.2.1/thumb/v7e-m+dp/hard/libgcc.a(libunwind.o)
__gnu_Unwind_Save_VFP                             /opt/gcc-arm-none-eabi-10-2020-q4-major/bin/../lib/gcc/arm-none-eabi/10.2.1/thumb/v7e-m+dp/hard/libgcc.a(libunwind.o)
                                                  /opt/gcc-arm-none-eabi-10-2020-q4-major/bin/../lib/gcc/arm-none-eabi/10.2.1/thumb/v7e-m+dp/hard/libgcc.a(unwind-arm.o)
__gnu_Unwind_Save_VFP_D                           /opt/gcc-arm-none-eabi-10-2020-q4-major/bin/../lib/gcc/arm-none-eabi/10.2.1/thumb/v7e-m+dp/hard/libgcc.a(libunwind.o)
                                                  /opt/gcc-arm-none-eabi-10-2020-q4-major/bin/../lib/gcc/arm-none-eabi/10.2.1/thumb/v7e-m+dp/hard/libgcc.a(unwind-arm.o)
__gnu_Unwind_Save_VFP_D_16_to_31                  /opt/gcc-arm-none-eabi-10-2020-q4-major/bin/../lib/gcc/arm-none-eabi/10.2.1/thumb/v7e-m+dp/hard/libgcc.a(libunwind.o)
                                                  /opt/gcc-arm-none-eabi-10-2020-q4-major/bin/../lib/gcc/arm-none-eabi/10.2.1/thumb/v7e-m+dp/hard/libgcc.a(unwind-arm.o)
__gnu_Unwind_Save_WMMXC                           /opt/gcc-arm-none-eabi-10-2020-q4-major/bin/../lib/gcc/arm-none-eabi/10.2.1/thumb/v7e-m+dp/hard/libgcc.a(libunwind.o)
                                                  /opt/gcc-arm-none-eabi-10-2020-q4-major/bin/../lib/gcc/arm-none-eabi/10.2.1/thumb/v7e-m+dp/hard/libgcc.a(unwind-arm.o)
__gnu_Unwind_Save_WMMXD                           /opt/gcc-arm-none-eabi-10-2020-q4-major/bin/../lib/gcc/arm-none-eabi/10.2.1/thumb/v7e-m+dp/hard/libgcc.a(libunwind.o)
                                                  /opt/gcc-arm-none-eabi-10-2020-q4-major/bin/../lib/gcc/arm-none-eabi/10.2.1/thumb/v7e-m+dp/hard/libgcc.a(unwind-arm.o)
__gnu_unwind_execute                              /opt/gcc-arm-none-eabi-10-2020-q4-major/bin/../lib/gcc/arm-none-eabi/10.2.1/thumb/v7e-m+dp/hard/libgcc.a(pr-support.o)
                                                  /opt/gcc-arm-none-eabi-10-2020-q4-major/bin/../lib/gcc/arm-none-eabi/10.2.1/thumb/v7e-m+dp/hard/libgcc.a(unwind-arm.o)
__gnu_unwind_frame                                /opt/gcc-arm-none-eabi-10-2020-q4-major/bin/../lib/gcc/arm-none-eabi/10.2.1/thumb/v7e-m+dp/hard/libgcc.a(pr-support.o)
__heap_base__                                     /tmp/BPRL.elf.FE4VjG.ltrans0.ltrans.o
                                                  build/obj/chmemcore.o (symbol from plugin)
__heap_end__                                      /tmp/BPRL.elf.FE4VjG.ltrans0.ltrans.o
                                                  build/obj/chmemcore.o (symbol from plugin)
__heap_init                                       build/obj/chmemheaps.o (symbol from plugin)
                                                  build/obj/chsys.o (symbol from plugin)
__hi0bits                                         /opt/gcc-arm-none-eabi-10-2020-q4-major/bin/../lib/gcc/arm-none-eabi/10.2.1/../../../../arm-none-eabi/lib/thumb/v7e-m+dp/hard/libg.a(lib_a-mprec.o)
                                                  /opt/gcc-arm-none-eabi-10-2020-q4-major/bin/../lib/gcc/arm-none-eabi/10.2.1/../../../../arm-none-eabi/lib/thumb/v7e-m+dp/hard/libg.a(lib_a-dtoa.o)
__i2b                                             /opt/gcc-arm-none-eabi-10-2020-q4-major/bin/../lib/gcc/arm-none-eabi/10.2.1/../../../../arm-none-eabi/lib/thumb/v7e-m+dp/hard/libg.a(lib_a-mprec.o)
                                                  /opt/gcc-arm-none-eabi-10-2020-q4-major/bin/../lib/gcc/arm-none-eabi/10.2.1/../../../../arm-none-eabi/lib/thumb/v7e-m+dp/hard/libg.a(lib_a-dtoa.o)
__ieee754_asinf                                   /opt/gcc-arm-none-eabi-10-2020-q4-major/bin/../lib/gcc/arm-none-eabi/10.2.1/../../../../arm-none-eabi/lib/thumb/v7e-m+dp/hard/libm.a(lib_a-ef_asin.o)
                                                  /opt/gcc-arm-none-eabi-10-2020-q4-major/bin/../lib/gcc/arm-none-eabi/10.2.1/../../../../arm-none-eabi/lib/thumb/v7e-m+dp/hard/libm.a(lib_a-wf_asin.o)
__ieee754_atan2f                                  /opt/gcc-arm-none-eabi-10-2020-q4-major/bin/../lib/gcc/arm-none-eabi/10.2.1/../../../../arm-none-eabi/lib/thumb/v7e-m+dp/hard/libm.a(lib_a-ef_atan2.o)
                                                  /opt/gcc-arm-none-eabi-10-2020-q4-major/bin/../lib/gcc/arm-none-eabi/10.2.1/../../../../arm-none-eabi/lib/thumb/v7e-m+dp/hard/libm.a(lib_a-wf_atan2.o)
__ieee754_sqrtf                                   /opt/gcc-arm-none-eabi-10-2020-q4-major/bin/../lib/gcc/arm-none-eabi/10.2.1/../../../../arm-none-eabi/lib/thumb/v7e-m+dp/hard/libm.a(lib_a-ef_sqrt.o)
                                                  /opt/gcc-arm-none-eabi-10-2020-q4-major/bin/../lib/gcc/arm-none-eabi/10.2.1/../../../../arm-none-eabi/lib/thumb/v7e-m+dp/hard/libm.a(lib_a-ef_asin.o)
                                                  /opt/gcc-arm-none-eabi-10-2020-q4-major/bin/../lib/gcc/arm-none-eabi/10.2.1/../../../../arm-none-eabi/lib/thumb/v7e-m+dp/hard/libm.a(lib_a-wf_sqrt.o)
__init_array_base__                               build/obj/crt0_v7m.o
__init_array_end__                                build/obj/crt0_v7m.o
__init_ram_areas                                  /tmp/BPRL.elf.FE4VjG.ltrans0.ltrans.o
                                                  build/obj/crt1.o (symbol from plugin)
                                                  build/obj/crt0_v7m.o
__inv_pio4                                        /opt/gcc-arm-none-eabi-10-2020-q4-major/bin/../lib/gcc/arm-none-eabi/10.2.1/../../../../arm-none-eabi/lib/thumb/v7e-m+dp/hard/libm.a(lib_a-sincosf_data.o)
                                                  /opt/gcc-arm-none-eabi-10-2020-q4-major/bin/../lib/gcc/arm-none-eabi/10.2.1/../../../../arm-none-eabi/lib/thumb/v7e-m+dp/hard/libm.a(lib_a-cosf.o)
__late_init                                       /tmp/BPRL.elf.FE4VjG.ltrans0.ltrans.o
                                                  build/obj/crt1.o (symbol from plugin)
                                                  build/obj/crt0_v7m.o
__lo0bits                                         /opt/gcc-arm-none-eabi-10-2020-q4-major/bin/../lib/gcc/arm-none-eabi/10.2.1/../../../../arm-none-eabi/lib/thumb/v7e-m+dp/hard/libg.a(lib_a-mprec.o)
__locale_mb_cur_max                               /opt/gcc-arm-none-eabi-10-2020-q4-major/bin/../lib/gcc/arm-none-eabi/10.2.1/../../../../arm-none-eabi/lib/thumb/v7e-m+dp/hard/libg.a(lib_a-locale.o)
                                                  /opt/gcc-arm-none-eabi-10-2020-q4-major/bin/../lib/gcc/arm-none-eabi/10.2.1/../../../../arm-none-eabi/lib/thumb/v7e-m+dp/hard/libg.a(lib_a-fputwc.o)
__localeconv_l                                    /opt/gcc-arm-none-eabi-10-2020-q4-major/bin/../lib/gcc/arm-none-eabi/10.2.1/../../../../arm-none-eabi/lib/thumb/v7e-m+dp/hard/libg.a(lib_a-localeconv.o)
__lock___arc4random_mutex                         /opt/gcc-arm-none-eabi-10-2020-q4-major/bin/../lib/gcc/arm-none-eabi/10.2.1/../../../../arm-none-eabi/lib/thumb/v7e-m+dp/hard/libg.a(lib_a-lock.o)
__lock___at_quick_exit_mutex                      /opt/gcc-arm-none-eabi-10-2020-q4-major/bin/../lib/gcc/arm-none-eabi/10.2.1/../../../../arm-none-eabi/lib/thumb/v7e-m+dp/hard/libg.a(lib_a-lock.o)
__lock___atexit_recursive_mutex                   /opt/gcc-arm-none-eabi-10-2020-q4-major/bin/../lib/gcc/arm-none-eabi/10.2.1/../../../../arm-none-eabi/lib/thumb/v7e-m+dp/hard/libg.a(lib_a-lock.o)
__lock___dd_hash_mutex                            /opt/gcc-arm-none-eabi-10-2020-q4-major/bin/../lib/gcc/arm-none-eabi/10.2.1/../../../../arm-none-eabi/lib/thumb/v7e-m+dp/hard/libg.a(lib_a-lock.o)
__lock___env_recursive_mutex                      /opt/gcc-arm-none-eabi-10-2020-q4-major/bin/../lib/gcc/arm-none-eabi/10.2.1/../../../../arm-none-eabi/lib/thumb/v7e-m+dp/hard/libg.a(lib_a-lock.o)
__lock___malloc_recursive_mutex                   /opt/gcc-arm-none-eabi-10-2020-q4-major/bin/../lib/gcc/arm-none-eabi/10.2.1/../../../../arm-none-eabi/lib/thumb/v7e-m+dp/hard/libg.a(lib_a-lock.o)
                                                  /opt/gcc-arm-none-eabi-10-2020-q4-major/bin/../lib/gcc/arm-none-eabi/10.2.1/../../../../arm-none-eabi/lib/thumb/v7e-m+dp/hard/libg.a(lib_a-mlock.o)
__lock___sfp_recursive_mutex                      /opt/gcc-arm-none-eabi-10-2020-q4-major/bin/../lib/gcc/arm-none-eabi/10.2.1/../../../../arm-none-eabi/lib/thumb/v7e-m+dp/hard/libg.a(lib_a-lock.o)
                                                  /opt/gcc-arm-none-eabi-10-2020-q4-major/bin/../lib/gcc/arm-none-eabi/10.2.1/../../../../arm-none-eabi/lib/thumb/v7e-m+dp/hard/libg.a(lib_a-findfp.o)
__lock___sinit_recursive_mutex                    /opt/gcc-arm-none-eabi-10-2020-q4-major/bin/../lib/gcc/arm-none-eabi/10.2.1/../../../../arm-none-eabi/lib/thumb/v7e-m+dp/hard/libg.a(lib_a-lock.o)
                                                  /opt/gcc-arm-none-eabi-10-2020-q4-major/bin/../lib/gcc/arm-none-eabi/10.2.1/../../../../arm-none-eabi/lib/thumb/v7e-m+dp/hard/libg.a(lib_a-findfp.o)
__lock___tz_mutex                                 /opt/gcc-arm-none-eabi-10-2020-q4-major/bin/../lib/gcc/arm-none-eabi/10.2.1/../../../../arm-none-eabi/lib/thumb/v7e-m+dp/hard/libg.a(lib_a-lock.o)
__lshift                                          /opt/gcc-arm-none-eabi-10-2020-q4-major/bin/../lib/gcc/arm-none-eabi/10.2.1/../../../../arm-none-eabi/lib/thumb/v7e-m+dp/hard/libg.a(lib_a-mprec.o)
                                                  /opt/gcc-arm-none-eabi-10-2020-q4-major/bin/../lib/gcc/arm-none-eabi/10.2.1/../../../../arm-none-eabi/lib/thumb/v7e-m+dp/hard/libg.a(lib_a-dtoa.o)
__main_stack_base__                               build/obj/crt0_v7m.o
__main_stack_end__                                build/obj/vectors.o
                                                  build/obj/crt0_v7m.o
__malloc_av_                                      /opt/gcc-arm-none-eabi-10-2020-q4-major/bin/../lib/gcc/arm-none-eabi/10.2.1/../../../../arm-none-eabi/lib/thumb/v7e-m+dp/hard/libg.a(lib_a-mallocr.o)
                                                  /opt/gcc-arm-none-eabi-10-2020-q4-major/bin/../lib/gcc/arm-none-eabi/10.2.1/../../../../arm-none-eabi/lib/thumb/v7e-m+dp/hard/libg.a(lib_a-reallocr.o)
                                                  /opt/gcc-arm-none-eabi-10-2020-q4-major/bin/../lib/gcc/arm-none-eabi/10.2.1/../../../../arm-none-eabi/lib/thumb/v7e-m+dp/hard/libg.a(lib_a-freer.o)
__malloc_current_mallinfo                         /opt/gcc-arm-none-eabi-10-2020-q4-major/bin/../lib/gcc/arm-none-eabi/10.2.1/../../../../arm-none-eabi/lib/thumb/v7e-m+dp/hard/libg.a(lib_a-mallocr.o)
                                                  /opt/gcc-arm-none-eabi-10-2020-q4-major/bin/../lib/gcc/arm-none-eabi/10.2.1/../../../../arm-none-eabi/lib/thumb/v7e-m+dp/hard/libg.a(lib_a-freer.o)
__malloc_lock                                     /opt/gcc-arm-none-eabi-10-2020-q4-major/bin/../lib/gcc/arm-none-eabi/10.2.1/../../../../arm-none-eabi/lib/thumb/v7e-m+dp/hard/libg.a(lib_a-mlock.o)
                                                  /opt/gcc-arm-none-eabi-10-2020-q4-major/bin/../lib/gcc/arm-none-eabi/10.2.1/../../../../arm-none-eabi/lib/thumb/v7e-m+dp/hard/libg.a(lib_a-reallocr.o)
                                                  /opt/gcc-arm-none-eabi-10-2020-q4-major/bin/../lib/gcc/arm-none-eabi/10.2.1/../../../../arm-none-eabi/lib/thumb/v7e-m+dp/hard/libg.a(lib_a-mallocr.o)
                                                  /opt/gcc-arm-none-eabi-10-2020-q4-major/bin/../lib/gcc/arm-none-eabi/10.2.1/../../../../arm-none-eabi/lib/thumb/v7e-m+dp/hard/libg.a(lib_a-freer.o)
__malloc_max_sbrked_mem                           /opt/gcc-arm-none-eabi-10-2020-q4-major/bin/../lib/gcc/arm-none-eabi/10.2.1/../../../../arm-none-eabi/lib/thumb/v7e-m+dp/hard/libg.a(lib_a-mallocr.o)
__malloc_max_total_mem                            /opt/gcc-arm-none-eabi-10-2020-q4-major/bin/../lib/gcc/arm-none-eabi/10.2.1/../../../../arm-none-eabi/lib/thumb/v7e-m+dp/hard/libg.a(lib_a-mallocr.o)
__malloc_sbrk_base                                /opt/gcc-arm-none-eabi-10-2020-q4-major/bin/../lib/gcc/arm-none-eabi/10.2.1/../../../../arm-none-eabi/lib/thumb/v7e-m+dp/hard/libg.a(lib_a-mallocr.o)
                                                  /opt/gcc-arm-none-eabi-10-2020-q4-major/bin/../lib/gcc/arm-none-eabi/10.2.1/../../../../arm-none-eabi/lib/thumb/v7e-m+dp/hard/libg.a(lib_a-freer.o)
__malloc_top_pad                                  /opt/gcc-arm-none-eabi-10-2020-q4-major/bin/../lib/gcc/arm-none-eabi/10.2.1/../../../../arm-none-eabi/lib/thumb/v7e-m+dp/hard/libg.a(lib_a-mallocr.o)
                                                  /opt/gcc-arm-none-eabi-10-2020-q4-major/bin/../lib/gcc/arm-none-eabi/10.2.1/../../../../arm-none-eabi/lib/thumb/v7e-m+dp/hard/libg.a(lib_a-freer.o)
__malloc_trim_threshold                           /opt/gcc-arm-none-eabi-10-2020-q4-major/bin/../lib/gcc/arm-none-eabi/10.2.1/../../../../arm-none-eabi/lib/thumb/v7e-m+dp/hard/libg.a(lib_a-mallocr.o)
                                                  /opt/gcc-arm-none-eabi-10-2020-q4-major/bin/../lib/gcc/arm-none-eabi/10.2.1/../../../../arm-none-eabi/lib/thumb/v7e-m+dp/hard/libg.a(lib_a-freer.o)
__malloc_unlock                                   /opt/gcc-arm-none-eabi-10-2020-q4-major/bin/../lib/gcc/arm-none-eabi/10.2.1/../../../../arm-none-eabi/lib/thumb/v7e-m+dp/hard/libg.a(lib_a-mlock.o)
                                                  /opt/gcc-arm-none-eabi-10-2020-q4-major/bin/../lib/gcc/arm-none-eabi/10.2.1/../../../../arm-none-eabi/lib/thumb/v7e-m+dp/hard/libg.a(lib_a-reallocr.o)
                                                  /opt/gcc-arm-none-eabi-10-2020-q4-major/bin/../lib/gcc/arm-none-eabi/10.2.1/../../../../arm-none-eabi/lib/thumb/v7e-m+dp/hard/libg.a(lib_a-mallocr.o)
                                                  /opt/gcc-arm-none-eabi-10-2020-q4-major/bin/../lib/gcc/arm-none-eabi/10.2.1/../../../../arm-none-eabi/lib/thumb/v7e-m+dp/hard/libg.a(lib_a-freer.o)
__math_divzerof                                   /opt/gcc-arm-none-eabi-10-2020-q4-major/bin/../lib/gcc/arm-none-eabi/10.2.1/../../../../arm-none-eabi/lib/thumb/v7e-m+dp/hard/libm.a(lib_a-math_errf.o)
__math_invalidf                                   /opt/gcc-arm-none-eabi-10-2020-q4-major/bin/../lib/gcc/arm-none-eabi/10.2.1/../../../../arm-none-eabi/lib/thumb/v7e-m+dp/hard/libm.a(lib_a-math_errf.o)
                                                  /opt/gcc-arm-none-eabi-10-2020-q4-major/bin/../lib/gcc/arm-none-eabi/10.2.1/../../../../arm-none-eabi/lib/thumb/v7e-m+dp/hard/libm.a(lib_a-cosf.o)
__math_may_uflowf                                 /opt/gcc-arm-none-eabi-10-2020-q4-major/bin/../lib/gcc/arm-none-eabi/10.2.1/../../../../arm-none-eabi/lib/thumb/v7e-m+dp/hard/libm.a(lib_a-math_errf.o)
__math_oflowf                                     /opt/gcc-arm-none-eabi-10-2020-q4-major/bin/../lib/gcc/arm-none-eabi/10.2.1/../../../../arm-none-eabi/lib/thumb/v7e-m+dp/hard/libm.a(lib_a-math_errf.o)
__math_uflowf                                     /opt/gcc-arm-none-eabi-10-2020-q4-major/bin/../lib/gcc/arm-none-eabi/10.2.1/../../../../arm-none-eabi/lib/thumb/v7e-m+dp/hard/libm.a(lib_a-math_errf.o)
__mcmp                                            /opt/gcc-arm-none-eabi-10-2020-q4-major/bin/../lib/gcc/arm-none-eabi/10.2.1/../../../../arm-none-eabi/lib/thumb/v7e-m+dp/hard/libg.a(lib_a-mprec.o)
                                                  /opt/gcc-arm-none-eabi-10-2020-q4-major/bin/../lib/gcc/arm-none-eabi/10.2.1/../../../../arm-none-eabi/lib/thumb/v7e-m+dp/hard/libg.a(lib_a-dtoa.o)
__mdiff                                           /opt/gcc-arm-none-eabi-10-2020-q4-major/bin/../lib/gcc/arm-none-eabi/10.2.1/../../../../arm-none-eabi/lib/thumb/v7e-m+dp/hard/libg.a(lib_a-mprec.o)
                                                  /opt/gcc-arm-none-eabi-10-2020-q4-major/bin/../lib/gcc/arm-none-eabi/10.2.1/../../../../arm-none-eabi/lib/thumb/v7e-m+dp/hard/libg.a(lib_a-dtoa.o)
__mprec_bigtens                                   /opt/gcc-arm-none-eabi-10-2020-q4-major/bin/../lib/gcc/arm-none-eabi/10.2.1/../../../../arm-none-eabi/lib/thumb/v7e-m+dp/hard/libg.a(lib_a-mprec.o)
                                                  /opt/gcc-arm-none-eabi-10-2020-q4-major/bin/../lib/gcc/arm-none-eabi/10.2.1/../../../../arm-none-eabi/lib/thumb/v7e-m+dp/hard/libg.a(lib_a-dtoa.o)
__mprec_tens                                      /opt/gcc-arm-none-eabi-10-2020-q4-major/bin/../lib/gcc/arm-none-eabi/10.2.1/../../../../arm-none-eabi/lib/thumb/v7e-m+dp/hard/libg.a(lib_a-mprec.o)
                                                  /opt/gcc-arm-none-eabi-10-2020-q4-major/bin/../lib/gcc/arm-none-eabi/10.2.1/../../../../arm-none-eabi/lib/thumb/v7e-m+dp/hard/libg.a(lib_a-dtoa.o)
__mprec_tinytens                                  /opt/gcc-arm-none-eabi-10-2020-q4-major/bin/../lib/gcc/arm-none-eabi/10.2.1/../../../../arm-none-eabi/lib/thumb/v7e-m+dp/hard/libg.a(lib_a-mprec.o)
__multadd                                         /opt/gcc-arm-none-eabi-10-2020-q4-major/bin/../lib/gcc/arm-none-eabi/10.2.1/../../../../arm-none-eabi/lib/thumb/v7e-m+dp/hard/libg.a(lib_a-mprec.o)
                                                  /opt/gcc-arm-none-eabi-10-2020-q4-major/bin/../lib/gcc/arm-none-eabi/10.2.1/../../../../arm-none-eabi/lib/thumb/v7e-m+dp/hard/libg.a(lib_a-dtoa.o)
__multiply                                        /opt/gcc-arm-none-eabi-10-2020-q4-major/bin/../lib/gcc/arm-none-eabi/10.2.1/../../../../arm-none-eabi/lib/thumb/v7e-m+dp/hard/libg.a(lib_a-mprec.o)
                                                  /opt/gcc-arm-none-eabi-10-2020-q4-major/bin/../lib/gcc/arm-none-eabi/10.2.1/../../../../arm-none-eabi/lib/thumb/v7e-m+dp/hard/libg.a(lib_a-dtoa.o)
__port_exit_from_isr                              build/obj/chcoreasm.o
                                                  /tmp/BPRL.elf.FE4VjG.ltrans0.ltrans.o
                                                  build/obj/chcore.o (symbol from plugin)
__port_irq_epilogue                               build/obj/chcore.o (symbol from plugin)
                                                  build/obj/DShot.o (symbol from plugin)
                                                  build/obj/hal_spi_lld.o (symbol from plugin)
                                                  build/obj/hal_usb_lld.o (symbol from plugin)
                                                  build/obj/stm32_dma.o (symbol from plugin)
                                                  build/obj/stm32_isr.o (symbol from plugin)
__port_switch                                     build/obj/chcoreasm.o
                                                  /tmp/BPRL.elf.FE4VjG.ltrans1.ltrans.o
                                                  /tmp/BPRL.elf.FE4VjG.ltrans0.ltrans.o
                                                  build/obj/chschd.o (symbol from plugin)
__port_switch_from_isr                            build/obj/chcoreasm.o
                                                  /tmp/BPRL.elf.FE4VjG.ltrans0.ltrans.o
                                                  build/obj/chcore.o (symbol from plugin)
__port_thread_start                               build/obj/chcoreasm.o
                                                  /tmp/BPRL.elf.FE4VjG.ltrans1.ltrans.o
                                                  /tmp/BPRL.elf.FE4VjG.ltrans0.ltrans.o
                                                  build/obj/chthreads.o (symbol from plugin)
__pow5mult                                        /opt/gcc-arm-none-eabi-10-2020-q4-major/bin/../lib/gcc/arm-none-eabi/10.2.1/../../../../arm-none-eabi/lib/thumb/v7e-m+dp/hard/libg.a(lib_a-mprec.o)
                                                  /opt/gcc-arm-none-eabi-10-2020-q4-major/bin/../lib/gcc/arm-none-eabi/10.2.1/../../../../arm-none-eabi/lib/thumb/v7e-m+dp/hard/libg.a(lib_a-dtoa.o)
__process_stack_base__                            build/obj/crt0_v7m.o
__process_stack_end__                             build/obj/crt0_v7m.o
__ram0_clear__                                    /tmp/BPRL.elf.FE4VjG.ltrans0.ltrans.o
                                                  build/obj/crt1.o (symbol from plugin)
__ram0_init__                                     /tmp/BPRL.elf.FE4VjG.ltrans0.ltrans.o
                                                  build/obj/crt1.o (symbol from plugin)
__ram0_init_text__                                /tmp/BPRL.elf.FE4VjG.ltrans0.ltrans.o
                                                  build/obj/crt1.o (symbol from plugin)
__ram0_noinit__                                   /tmp/BPRL.elf.FE4VjG.ltrans0.ltrans.o
                                                  build/obj/crt1.o (symbol from plugin)
__ram1_clear__                                    /tmp/BPRL.elf.FE4VjG.ltrans0.ltrans.o
                                                  build/obj/crt1.o (symbol from plugin)
__ram1_init__                                     /tmp/BPRL.elf.FE4VjG.ltrans0.ltrans.o
                                                  build/obj/crt1.o (symbol from plugin)
__ram1_init_text__                                /tmp/BPRL.elf.FE4VjG.ltrans0.ltrans.o
                                                  build/obj/crt1.o (symbol from plugin)
__ram1_noinit__                                   /tmp/BPRL.elf.FE4VjG.ltrans0.ltrans.o
                                                  build/obj/crt1.o (symbol from plugin)
__ram2_clear__                                    /tmp/BPRL.elf.FE4VjG.ltrans0.ltrans.o
                                                  build/obj/crt1.o (symbol from plugin)
__ram2_init__                                     /tmp/BPRL.elf.FE4VjG.ltrans0.ltrans.o
                                                  build/obj/crt1.o (symbol from plugin)
__ram2_init_text__                                /tmp/BPRL.elf.FE4VjG.ltrans0.ltrans.o
                                                  build/obj/crt1.o (symbol from plugin)
__ram2_noinit__                                   /tmp/BPRL.elf.FE4VjG.ltrans0.ltrans.o
                                                  build/obj/crt1.o (symbol from plugin)
__ram3_clear__                                    /tmp/BPRL.elf.FE4VjG.ltrans0.ltrans.o
                                                  build/obj/crt1.o (symbol from plugin)
__ram3_init__                                     /tmp/BPRL.elf.FE4VjG.ltrans0.ltrans.o
                                                  build/obj/crt1.o (symbol from plugin)
__ram3_init_text__                                /tmp/BPRL.elf.FE4VjG.ltrans0.ltrans.o
                                                  build/obj/crt1.o (symbol from plugin)
__ram3_noinit__                                   /tmp/BPRL.elf.FE4VjG.ltrans0.ltrans.o
                                                  build/obj/crt1.o (symbol from plugin)
__ram4_clear__                                    /tmp/BPRL.elf.FE4VjG.ltrans0.ltrans.o
                                                  build/obj/crt1.o (symbol from plugin)
__ram4_init__                                     /tmp/BPRL.elf.FE4VjG.ltrans0.ltrans.o
                                                  build/obj/crt1.o (symbol from plugin)
__ram4_init_text__                                /tmp/BPRL.elf.FE4VjG.ltrans0.ltrans.o
                                                  build/obj/crt1.o (symbol from plugin)
__ram4_noinit__                                   /tmp/BPRL.elf.FE4VjG.ltrans0.ltrans.o
                                                  build/obj/crt1.o (symbol from plugin)
__ram5_clear__                                    /tmp/BPRL.elf.FE4VjG.ltrans0.ltrans.o
                                                  build/obj/crt1.o (symbol from plugin)
__ram5_init__                                     /tmp/BPRL.elf.FE4VjG.ltrans0.ltrans.o
                                                  build/obj/crt1.o (symbol from plugin)
__ram5_init_text__                                /tmp/BPRL.elf.FE4VjG.ltrans0.ltrans.o
                                                  build/obj/crt1.o (symbol from plugin)
__ram5_noinit__                                   /tmp/BPRL.elf.FE4VjG.ltrans0.ltrans.o
                                                  build/obj/crt1.o (symbol from plugin)
__ram6_clear__                                    /tmp/BPRL.elf.FE4VjG.ltrans0.ltrans.o
                                                  build/obj/crt1.o (symbol from plugin)
__ram6_init__                                     /tmp/BPRL.elf.FE4VjG.ltrans0.ltrans.o
                                                  build/obj/crt1.o (symbol from plugin)
__ram6_init_text__                                /tmp/BPRL.elf.FE4VjG.ltrans0.ltrans.o
                                                  build/obj/crt1.o (symbol from plugin)
__ram6_noinit__                                   /tmp/BPRL.elf.FE4VjG.ltrans0.ltrans.o
                                                  build/obj/crt1.o (symbol from plugin)
__ram7_clear__                                    /tmp/BPRL.elf.FE4VjG.ltrans0.ltrans.o
                                                  build/obj/crt1.o (symbol from plugin)
__ram7_init__                                     /tmp/BPRL.elf.FE4VjG.ltrans0.ltrans.o
                                                  build/obj/crt1.o (symbol from plugin)
__ram7_init_text__                                /tmp/BPRL.elf.FE4VjG.ltrans0.ltrans.o
                                                  build/obj/crt1.o (symbol from plugin)
__ram7_noinit__                                   /tmp/BPRL.elf.FE4VjG.ltrans0.ltrans.o
                                                  build/obj/crt1.o (symbol from plugin)
__ratio                                           /opt/gcc-arm-none-eabi-10-2020-q4-major/bin/../lib/gcc/arm-none-eabi/10.2.1/../../../../arm-none-eabi/lib/thumb/v7e-m+dp/hard/libg.a(lib_a-mprec.o)
__restore_core_regs                               /opt/gcc-arm-none-eabi-10-2020-q4-major/bin/../lib/gcc/arm-none-eabi/10.2.1/thumb/v7e-m+dp/hard/libgcc.a(libunwind.o)
__retarget_lock_acquire                           /opt/gcc-arm-none-eabi-10-2020-q4-major/bin/../lib/gcc/arm-none-eabi/10.2.1/../../../../arm-none-eabi/lib/thumb/v7e-m+dp/hard/libg.a(lib_a-lock.o)
__retarget_lock_acquire_recursive                 /opt/gcc-arm-none-eabi-10-2020-q4-major/bin/../lib/gcc/arm-none-eabi/10.2.1/../../../../arm-none-eabi/lib/thumb/v7e-m+dp/hard/libg.a(lib_a-lock.o)
                                                  /opt/gcc-arm-none-eabi-10-2020-q4-major/bin/../lib/gcc/arm-none-eabi/10.2.1/../../../../arm-none-eabi/lib/thumb/v7e-m+dp/hard/libg.a(lib_a-fclose.o)
                                                  /opt/gcc-arm-none-eabi-10-2020-q4-major/bin/../lib/gcc/arm-none-eabi/10.2.1/../../../../arm-none-eabi/lib/thumb/v7e-m+dp/hard/libg.a(lib_a-fputwc.o)
                                                  /opt/gcc-arm-none-eabi-10-2020-q4-major/bin/../lib/gcc/arm-none-eabi/10.2.1/../../../../arm-none-eabi/lib/thumb/v7e-m+dp/hard/libg.a(lib_a-findfp.o)
                                                  /opt/gcc-arm-none-eabi-10-2020-q4-major/bin/../lib/gcc/arm-none-eabi/10.2.1/../../../../arm-none-eabi/lib/thumb/v7e-m+dp/hard/libg.a(lib_a-fflush.o)
                                                  /opt/gcc-arm-none-eabi-10-2020-q4-major/bin/../lib/gcc/arm-none-eabi/10.2.1/../../../../arm-none-eabi/lib/thumb/v7e-m+dp/hard/libg.a(lib_a-vfiprintf.o)
                                                  /opt/gcc-arm-none-eabi-10-2020-q4-major/bin/../lib/gcc/arm-none-eabi/10.2.1/../../../../arm-none-eabi/lib/thumb/v7e-m+dp/hard/libg.a(lib_a-mlock.o)
__retarget_lock_close                             /opt/gcc-arm-none-eabi-10-2020-q4-major/bin/../lib/gcc/arm-none-eabi/10.2.1/../../../../arm-none-eabi/lib/thumb/v7e-m+dp/hard/libg.a(lib_a-lock.o)
__retarget_lock_close_recursive                   /opt/gcc-arm-none-eabi-10-2020-q4-major/bin/../lib/gcc/arm-none-eabi/10.2.1/../../../../arm-none-eabi/lib/thumb/v7e-m+dp/hard/libg.a(lib_a-lock.o)
                                                  /opt/gcc-arm-none-eabi-10-2020-q4-major/bin/../lib/gcc/arm-none-eabi/10.2.1/../../../../arm-none-eabi/lib/thumb/v7e-m+dp/hard/libg.a(lib_a-fclose.o)
                                                  /opt/gcc-arm-none-eabi-10-2020-q4-major/bin/../lib/gcc/arm-none-eabi/10.2.1/../../../../arm-none-eabi/lib/thumb/v7e-m+dp/hard/libg.a(lib_a-vfiprintf.o)
__retarget_lock_init                              /opt/gcc-arm-none-eabi-10-2020-q4-major/bin/../lib/gcc/arm-none-eabi/10.2.1/../../../../arm-none-eabi/lib/thumb/v7e-m+dp/hard/libg.a(lib_a-lock.o)
__retarget_lock_init_recursive                    /opt/gcc-arm-none-eabi-10-2020-q4-major/bin/../lib/gcc/arm-none-eabi/10.2.1/../../../../arm-none-eabi/lib/thumb/v7e-m+dp/hard/libg.a(lib_a-lock.o)
                                                  /opt/gcc-arm-none-eabi-10-2020-q4-major/bin/../lib/gcc/arm-none-eabi/10.2.1/../../../../arm-none-eabi/lib/thumb/v7e-m+dp/hard/libg.a(lib_a-findfp.o)
                                                  /opt/gcc-arm-none-eabi-10-2020-q4-major/bin/../lib/gcc/arm-none-eabi/10.2.1/../../../../arm-none-eabi/lib/thumb/v7e-m+dp/hard/libg.a(lib_a-vfiprintf.o)
__retarget_lock_release                           /opt/gcc-arm-none-eabi-10-2020-q4-major/bin/../lib/gcc/arm-none-eabi/10.2.1/../../../../arm-none-eabi/lib/thumb/v7e-m+dp/hard/libg.a(lib_a-lock.o)
__retarget_lock_release_recursive                 /opt/gcc-arm-none-eabi-10-2020-q4-major/bin/../lib/gcc/arm-none-eabi/10.2.1/../../../../arm-none-eabi/lib/thumb/v7e-m+dp/hard/libg.a(lib_a-lock.o)
                                                  /opt/gcc-arm-none-eabi-10-2020-q4-major/bin/../lib/gcc/arm-none-eabi/10.2.1/../../../../arm-none-eabi/lib/thumb/v7e-m+dp/hard/libg.a(lib_a-fclose.o)
                                                  /opt/gcc-arm-none-eabi-10-2020-q4-major/bin/../lib/gcc/arm-none-eabi/10.2.1/../../../../arm-none-eabi/lib/thumb/v7e-m+dp/hard/libg.a(lib_a-fputwc.o)
                                                  /opt/gcc-arm-none-eabi-10-2020-q4-major/bin/../lib/gcc/arm-none-eabi/10.2.1/../../../../arm-none-eabi/lib/thumb/v7e-m+dp/hard/libg.a(lib_a-findfp.o)
                                                  /opt/gcc-arm-none-eabi-10-2020-q4-major/bin/../lib/gcc/arm-none-eabi/10.2.1/../../../../arm-none-eabi/lib/thumb/v7e-m+dp/hard/libg.a(lib_a-fflush.o)
                                                  /opt/gcc-arm-none-eabi-10-2020-q4-major/bin/../lib/gcc/arm-none-eabi/10.2.1/../../../../arm-none-eabi/lib/thumb/v7e-m+dp/hard/libg.a(lib_a-vfiprintf.o)
                                                  /opt/gcc-arm-none-eabi-10-2020-q4-major/bin/../lib/gcc/arm-none-eabi/10.2.1/../../../../arm-none-eabi/lib/thumb/v7e-m+dp/hard/libg.a(lib_a-mlock.o)
__retarget_lock_try_acquire                       /opt/gcc-arm-none-eabi-10-2020-q4-major/bin/../lib/gcc/arm-none-eabi/10.2.1/../../../../arm-none-eabi/lib/thumb/v7e-m+dp/hard/libg.a(lib_a-lock.o)
__retarget_lock_try_acquire_recursive             /opt/gcc-arm-none-eabi-10-2020-q4-major/bin/../lib/gcc/arm-none-eabi/10.2.1/../../../../arm-none-eabi/lib/thumb/v7e-m+dp/hard/libg.a(lib_a-lock.o)
__s2b                                             /opt/gcc-arm-none-eabi-10-2020-q4-major/bin/../lib/gcc/arm-none-eabi/10.2.1/../../../../arm-none-eabi/lib/thumb/v7e-m+dp/hard/libg.a(lib_a-mprec.o)
__sch_ready_ahead.lto_priv.0                      /tmp/BPRL.elf.FE4VjG.ltrans0.ltrans.o
                                                  /tmp/BPRL.elf.FE4VjG.ltrans1.ltrans.o
__sch_ready_behind.isra.0                         /tmp/BPRL.elf.FE4VjG.ltrans1.ltrans.o
                                                  /tmp/BPRL.elf.FE4VjG.ltrans0.ltrans.o
__sclose                                          /opt/gcc-arm-none-eabi-10-2020-q4-major/bin/../lib/gcc/arm-none-eabi/10.2.1/../../../../arm-none-eabi/lib/thumb/v7e-m+dp/hard/libg.a(lib_a-stdio.o)
                                                  /opt/gcc-arm-none-eabi-10-2020-q4-major/bin/../lib/gcc/arm-none-eabi/10.2.1/../../../../arm-none-eabi/lib/thumb/v7e-m+dp/hard/libg.a(lib_a-findfp.o)
__seofread                                        /opt/gcc-arm-none-eabi-10-2020-q4-major/bin/../lib/gcc/arm-none-eabi/10.2.1/../../../../arm-none-eabi/lib/thumb/v7e-m+dp/hard/libg.a(lib_a-stdio.o)
__sflush_r                                        /opt/gcc-arm-none-eabi-10-2020-q4-major/bin/../lib/gcc/arm-none-eabi/10.2.1/../../../../arm-none-eabi/lib/thumb/v7e-m+dp/hard/libg.a(lib_a-fflush.o)
                                                  /opt/gcc-arm-none-eabi-10-2020-q4-major/bin/../lib/gcc/arm-none-eabi/10.2.1/../../../../arm-none-eabi/lib/thumb/v7e-m+dp/hard/libg.a(lib_a-fclose.o)
__sfmoreglue                                      /opt/gcc-arm-none-eabi-10-2020-q4-major/bin/../lib/gcc/arm-none-eabi/10.2.1/../../../../arm-none-eabi/lib/thumb/v7e-m+dp/hard/libg.a(lib_a-findfp.o)
__sfp                                             /opt/gcc-arm-none-eabi-10-2020-q4-major/bin/../lib/gcc/arm-none-eabi/10.2.1/../../../../arm-none-eabi/lib/thumb/v7e-m+dp/hard/libg.a(lib_a-findfp.o)
__sfp_lock_acquire                                /opt/gcc-arm-none-eabi-10-2020-q4-major/bin/../lib/gcc/arm-none-eabi/10.2.1/../../../../arm-none-eabi/lib/thumb/v7e-m+dp/hard/libg.a(lib_a-findfp.o)
                                                  /opt/gcc-arm-none-eabi-10-2020-q4-major/bin/../lib/gcc/arm-none-eabi/10.2.1/../../../../arm-none-eabi/lib/thumb/v7e-m+dp/hard/libg.a(lib_a-fclose.o)
__sfp_lock_release                                /opt/gcc-arm-none-eabi-10-2020-q4-major/bin/../lib/gcc/arm-none-eabi/10.2.1/../../../../arm-none-eabi/lib/thumb/v7e-m+dp/hard/libg.a(lib_a-findfp.o)
                                                  /opt/gcc-arm-none-eabi-10-2020-q4-major/bin/../lib/gcc/arm-none-eabi/10.2.1/../../../../arm-none-eabi/lib/thumb/v7e-m+dp/hard/libg.a(lib_a-fclose.o)
__sfvwrite_r                                      /opt/gcc-arm-none-eabi-10-2020-q4-major/bin/../lib/gcc/arm-none-eabi/10.2.1/../../../../arm-none-eabi/lib/thumb/v7e-m+dp/hard/libg.a(lib_a-fvwrite.o)
                                                  /opt/gcc-arm-none-eabi-10-2020-q4-major/bin/../lib/gcc/arm-none-eabi/10.2.1/../../../../arm-none-eabi/lib/thumb/v7e-m+dp/hard/libg.a(lib_a-vfiprintf.o)
__sigtramp                                        /opt/gcc-arm-none-eabi-10-2020-q4-major/bin/../lib/gcc/arm-none-eabi/10.2.1/../../../../arm-none-eabi/lib/thumb/v7e-m+dp/hard/libg.a(lib_a-signal.o)
__sigtramp_r                                      /opt/gcc-arm-none-eabi-10-2020-q4-major/bin/../lib/gcc/arm-none-eabi/10.2.1/../../../../arm-none-eabi/lib/thumb/v7e-m+dp/hard/libg.a(lib_a-signal.o)
__sincosf_table                                   /opt/gcc-arm-none-eabi-10-2020-q4-major/bin/../lib/gcc/arm-none-eabi/10.2.1/../../../../arm-none-eabi/lib/thumb/v7e-m+dp/hard/libm.a(lib_a-sincosf_data.o)
                                                  /opt/gcc-arm-none-eabi-10-2020-q4-major/bin/../lib/gcc/arm-none-eabi/10.2.1/../../../../arm-none-eabi/lib/thumb/v7e-m+dp/hard/libm.a(lib_a-cosf.o)
__sinit                                           /opt/gcc-arm-none-eabi-10-2020-q4-major/bin/../lib/gcc/arm-none-eabi/10.2.1/../../../../arm-none-eabi/lib/thumb/v7e-m+dp/hard/libg.a(lib_a-findfp.o)
                                                  /opt/gcc-arm-none-eabi-10-2020-q4-major/bin/../lib/gcc/arm-none-eabi/10.2.1/../../../../arm-none-eabi/lib/thumb/v7e-m+dp/hard/libg.a(lib_a-fclose.o)
                                                  /opt/gcc-arm-none-eabi-10-2020-q4-major/bin/../lib/gcc/arm-none-eabi/10.2.1/../../../../arm-none-eabi/lib/thumb/v7e-m+dp/hard/libg.a(lib_a-wbuf.o)
                                                  /opt/gcc-arm-none-eabi-10-2020-q4-major/bin/../lib/gcc/arm-none-eabi/10.2.1/../../../../arm-none-eabi/lib/thumb/v7e-m+dp/hard/libg.a(lib_a-fputwc.o)
                                                  /opt/gcc-arm-none-eabi-10-2020-q4-major/bin/../lib/gcc/arm-none-eabi/10.2.1/../../../../arm-none-eabi/lib/thumb/v7e-m+dp/hard/libg.a(lib_a-fflush.o)
                                                  /opt/gcc-arm-none-eabi-10-2020-q4-major/bin/../lib/gcc/arm-none-eabi/10.2.1/../../../../arm-none-eabi/lib/thumb/v7e-m+dp/hard/libg.a(lib_a-wsetup.o)
                                                  /opt/gcc-arm-none-eabi-10-2020-q4-major/bin/../lib/gcc/arm-none-eabi/10.2.1/../../../../arm-none-eabi/lib/thumb/v7e-m+dp/hard/libg.a(lib_a-vfiprintf.o)
__sinit_lock_acquire                              /opt/gcc-arm-none-eabi-10-2020-q4-major/bin/../lib/gcc/arm-none-eabi/10.2.1/../../../../arm-none-eabi/lib/thumb/v7e-m+dp/hard/libg.a(lib_a-findfp.o)
__sinit_lock_release                              /opt/gcc-arm-none-eabi-10-2020-q4-major/bin/../lib/gcc/arm-none-eabi/10.2.1/../../../../arm-none-eabi/lib/thumb/v7e-m+dp/hard/libg.a(lib_a-findfp.o)
__smakebuf_r                                      /opt/gcc-arm-none-eabi-10-2020-q4-major/bin/../lib/gcc/arm-none-eabi/10.2.1/../../../../arm-none-eabi/lib/thumb/v7e-m+dp/hard/libg.a(lib_a-makebuf.o)
                                                  /opt/gcc-arm-none-eabi-10-2020-q4-major/bin/../lib/gcc/arm-none-eabi/10.2.1/../../../../arm-none-eabi/lib/thumb/v7e-m+dp/hard/libg.a(lib_a-wsetup.o)
__sprint_r                                        /opt/gcc-arm-none-eabi-10-2020-q4-major/bin/../lib/gcc/arm-none-eabi/10.2.1/../../../../arm-none-eabi/lib/thumb/v7e-m+dp/hard/libg.a(lib_a-vfiprintf.o)
__sread                                           /opt/gcc-arm-none-eabi-10-2020-q4-major/bin/../lib/gcc/arm-none-eabi/10.2.1/../../../../arm-none-eabi/lib/thumb/v7e-m+dp/hard/libg.a(lib_a-stdio.o)
                                                  /opt/gcc-arm-none-eabi-10-2020-q4-major/bin/../lib/gcc/arm-none-eabi/10.2.1/../../../../arm-none-eabi/lib/thumb/v7e-m+dp/hard/libg.a(lib_a-findfp.o)
__sseek                                           /opt/gcc-arm-none-eabi-10-2020-q4-major/bin/../lib/gcc/arm-none-eabi/10.2.1/../../../../arm-none-eabi/lib/thumb/v7e-m+dp/hard/libg.a(lib_a-stdio.o)
                                                  /opt/gcc-arm-none-eabi-10-2020-q4-major/bin/../lib/gcc/arm-none-eabi/10.2.1/../../../../arm-none-eabi/lib/thumb/v7e-m+dp/hard/libg.a(lib_a-findfp.o)
__ssprint_r                                       /opt/gcc-arm-none-eabi-10-2020-q4-major/bin/../lib/gcc/arm-none-eabi/10.2.1/../../../../arm-none-eabi/lib/thumb/v7e-m+dp/hard/libg.a(lib_a-svfiprintf.o)
                                                  /opt/gcc-arm-none-eabi-10-2020-q4-major/bin/../lib/gcc/arm-none-eabi/10.2.1/../../../../arm-none-eabi/lib/thumb/v7e-m+dp/hard/libg.a(lib_a-svfprintf.o)
__subdf3                                          /opt/gcc-arm-none-eabi-10-2020-q4-major/bin/../lib/gcc/arm-none-eabi/10.2.1/thumb/v7e-m+dp/hard/libgcc.a(_arm_addsubdf3.o)
__swbuf                                           /opt/gcc-arm-none-eabi-10-2020-q4-major/bin/../lib/gcc/arm-none-eabi/10.2.1/../../../../arm-none-eabi/lib/thumb/v7e-m+dp/hard/libg.a(lib_a-wbuf.o)
__swbuf_r                                         /opt/gcc-arm-none-eabi-10-2020-q4-major/bin/../lib/gcc/arm-none-eabi/10.2.1/../../../../arm-none-eabi/lib/thumb/v7e-m+dp/hard/libg.a(lib_a-wbuf.o)
                                                  /opt/gcc-arm-none-eabi-10-2020-q4-major/bin/../lib/gcc/arm-none-eabi/10.2.1/../../../../arm-none-eabi/lib/thumb/v7e-m+dp/hard/libg.a(lib_a-fputwc.o)
__swhatbuf_r                                      /opt/gcc-arm-none-eabi-10-2020-q4-major/bin/../lib/gcc/arm-none-eabi/10.2.1/../../../../arm-none-eabi/lib/thumb/v7e-m+dp/hard/libg.a(lib_a-makebuf.o)
__swrite                                          /opt/gcc-arm-none-eabi-10-2020-q4-major/bin/../lib/gcc/arm-none-eabi/10.2.1/../../../../arm-none-eabi/lib/thumb/v7e-m+dp/hard/libg.a(lib_a-stdio.o)
                                                  /opt/gcc-arm-none-eabi-10-2020-q4-major/bin/../lib/gcc/arm-none-eabi/10.2.1/../../../../arm-none-eabi/lib/thumb/v7e-m+dp/hard/libg.a(lib_a-findfp.o)
__swsetup_r                                       /opt/gcc-arm-none-eabi-10-2020-q4-major/bin/../lib/gcc/arm-none-eabi/10.2.1/../../../../arm-none-eabi/lib/thumb/v7e-m+dp/hard/libg.a(lib_a-wsetup.o)
                                                  /opt/gcc-arm-none-eabi-10-2020-q4-major/bin/../lib/gcc/arm-none-eabi/10.2.1/../../../../arm-none-eabi/lib/thumb/v7e-m+dp/hard/libg.a(lib_a-wbuf.o)
                                                  /opt/gcc-arm-none-eabi-10-2020-q4-major/bin/../lib/gcc/arm-none-eabi/10.2.1/../../../../arm-none-eabi/lib/thumb/v7e-m+dp/hard/libg.a(lib_a-fvwrite.o)
                                                  /opt/gcc-arm-none-eabi-10-2020-q4-major/bin/../lib/gcc/arm-none-eabi/10.2.1/../../../../arm-none-eabi/lib/thumb/v7e-m+dp/hard/libg.a(lib_a-vfiprintf.o)
__textdata_base__                                 build/obj/crt0_v7m.o
__thd_object_init                                 build/obj/chthreads.o (symbol from plugin)
                                                  build/obj/chinstances.o (symbol from plugin)
__trace_halt                                      build/obj/chtrace.o (symbol from plugin)
                                                  build/obj/chsys.o (symbol from plugin)
__trace_isr_enter                                 build/obj/chtrace.o (symbol from plugin)
                                                  build/obj/DShot.o (symbol from plugin)
                                                  build/obj/hal_spi_lld.o (symbol from plugin)
                                                  build/obj/hal_usb_lld.o (symbol from plugin)
                                                  build/obj/stm32_dma.o (symbol from plugin)
                                                  build/obj/stm32_isr.o (symbol from plugin)
__trace_isr_leave                                 build/obj/chtrace.o (symbol from plugin)
                                                  build/obj/DShot.o (symbol from plugin)
                                                  build/obj/hal_spi_lld.o (symbol from plugin)
                                                  build/obj/hal_usb_lld.o (symbol from plugin)
                                                  build/obj/stm32_dma.o (symbol from plugin)
                                                  build/obj/stm32_isr.o (symbol from plugin)
__trace_object_init                               build/obj/chtrace.o (symbol from plugin)
                                                  build/obj/chinstances.o (symbol from plugin)
__trace_ready                                     build/obj/chtrace.o (symbol from plugin)
                                                  build/obj/chschd.o (symbol from plugin)
__trace_switch                                    build/obj/chtrace.o (symbol from plugin)
                                                  build/obj/chschd.o (symbol from plugin)
__udivmoddi4                                      /opt/gcc-arm-none-eabi-10-2020-q4-major/bin/../lib/gcc/arm-none-eabi/10.2.1/thumb/v7e-m+dp/hard/libgcc.a(_udivmoddi4.o)
                                                  /opt/gcc-arm-none-eabi-10-2020-q4-major/bin/../lib/gcc/arm-none-eabi/10.2.1/thumb/v7e-m+dp/hard/libgcc.a(_aeabi_uldivmod.o)
                                                  /opt/gcc-arm-none-eabi-10-2020-q4-major/bin/../lib/gcc/arm-none-eabi/10.2.1/thumb/v7e-m+dp/hard/libgcc.a(_aeabi_ldivmod.o)
__ulp                                             /opt/gcc-arm-none-eabi-10-2020-q4-major/bin/../lib/gcc/arm-none-eabi/10.2.1/../../../../arm-none-eabi/lib/thumb/v7e-m+dp/hard/libg.a(lib_a-mprec.o)
_calloc_r                                         /opt/gcc-arm-none-eabi-10-2020-q4-major/bin/../lib/gcc/arm-none-eabi/10.2.1/../../../../arm-none-eabi/lib/thumb/v7e-m+dp/hard/libg.a(lib_a-callocr.o)
                                                  /opt/gcc-arm-none-eabi-10-2020-q4-major/bin/../lib/gcc/arm-none-eabi/10.2.1/../../../../arm-none-eabi/lib/thumb/v7e-m+dp/hard/libg.a(lib_a-mprec.o)
_cleanup                                          /opt/gcc-arm-none-eabi-10-2020-q4-major/bin/../lib/gcc/arm-none-eabi/10.2.1/../../../../arm-none-eabi/lib/thumb/v7e-m+dp/hard/libg.a(lib_a-findfp.o)
_cleanup_r                                        /opt/gcc-arm-none-eabi-10-2020-q4-major/bin/../lib/gcc/arm-none-eabi/10.2.1/../../../../arm-none-eabi/lib/thumb/v7e-m+dp/hard/libg.a(lib_a-findfp.o)
                                                  /opt/gcc-arm-none-eabi-10-2020-q4-major/bin/../lib/gcc/arm-none-eabi/10.2.1/../../../../arm-none-eabi/lib/thumb/v7e-m+dp/hard/libg.a(lib_a-makebuf.o)
_close_r                                          /tmp/BPRL.elf.FE4VjG.ltrans0.ltrans.o
                                                  build/obj/syscalls.o (symbol from plugin)
                                                  /opt/gcc-arm-none-eabi-10-2020-q4-major/bin/../lib/gcc/arm-none-eabi/10.2.1/../../../../arm-none-eabi/lib/thumb/v7e-m+dp/hard/libg.a(lib_a-stdio.o)
_crt0_entry                                       build/obj/crt0_v7m.o
                                                  build/obj/vectors.o
_ctype_                                           /opt/gcc-arm-none-eabi-10-2020-q4-major/bin/../lib/gcc/arm-none-eabi/10.2.1/../../../../arm-none-eabi/lib/thumb/v7e-m+dp/hard/libg.a(lib_a-ctype_.o)
                                                  /opt/gcc-arm-none-eabi-10-2020-q4-major/bin/../lib/gcc/arm-none-eabi/10.2.1/../../../../arm-none-eabi/lib/thumb/v7e-m+dp/hard/libg.a(lib_a-locale.o)
                                                  build/obj/chscanf.o (symbol from plugin)
_dtoa_r                                           /opt/gcc-arm-none-eabi-10-2020-q4-major/bin/../lib/gcc/arm-none-eabi/10.2.1/../../../../arm-none-eabi/lib/thumb/v7e-m+dp/hard/libg.a(lib_a-dtoa.o)
                                                  /opt/gcc-arm-none-eabi-10-2020-q4-major/bin/../lib/gcc/arm-none-eabi/10.2.1/../../../../arm-none-eabi/lib/thumb/v7e-m+dp/hard/libg.a(lib_a-svfprintf.o)
_exit                                             /tmp/BPRL.elf.FE4VjG.ltrans0.ltrans.o
                                                  build/obj/syscalls.o (symbol from plugin)
                                                  /opt/gcc-arm-none-eabi-10-2020-q4-major/bin/../lib/gcc/arm-none-eabi/10.2.1/../../../../arm-none-eabi/lib/thumb/v7e-m+dp/hard/libg.a(lib_a-abort.o)
_fclose_r                                         /opt/gcc-arm-none-eabi-10-2020-q4-major/bin/../lib/gcc/arm-none-eabi/10.2.1/../../../../arm-none-eabi/lib/thumb/v7e-m+dp/hard/libg.a(lib_a-fclose.o)
                                                  /opt/gcc-arm-none-eabi-10-2020-q4-major/bin/../lib/gcc/arm-none-eabi/10.2.1/../../../../arm-none-eabi/lib/thumb/v7e-m+dp/hard/libg.a(lib_a-findfp.o)
_fflush_r                                         /opt/gcc-arm-none-eabi-10-2020-q4-major/bin/../lib/gcc/arm-none-eabi/10.2.1/../../../../arm-none-eabi/lib/thumb/v7e-m+dp/hard/libg.a(lib_a-fflush.o)
                                                  /opt/gcc-arm-none-eabi-10-2020-q4-major/bin/../lib/gcc/arm-none-eabi/10.2.1/../../../../arm-none-eabi/lib/thumb/v7e-m+dp/hard/libg.a(lib_a-wbuf.o)
                                                  /opt/gcc-arm-none-eabi-10-2020-q4-major/bin/../lib/gcc/arm-none-eabi/10.2.1/../../../../arm-none-eabi/lib/thumb/v7e-m+dp/hard/libg.a(lib_a-fvwrite.o)
                                                  /opt/gcc-arm-none-eabi-10-2020-q4-major/bin/../lib/gcc/arm-none-eabi/10.2.1/../../../../arm-none-eabi/lib/thumb/v7e-m+dp/hard/libg.a(lib_a-vfiprintf.o)
_fiprintf_r                                       /opt/gcc-arm-none-eabi-10-2020-q4-major/bin/../lib/gcc/arm-none-eabi/10.2.1/../../../../arm-none-eabi/lib/thumb/v7e-m+dp/hard/libg.a(lib_a-fiprintf.o)
_fputwc_r                                         /opt/gcc-arm-none-eabi-10-2020-q4-major/bin/../lib/gcc/arm-none-eabi/10.2.1/../../../../arm-none-eabi/lib/thumb/v7e-m+dp/hard/libg.a(lib_a-fputwc.o)
                                                  /opt/gcc-arm-none-eabi-10-2020-q4-major/bin/../lib/gcc/arm-none-eabi/10.2.1/../../../../arm-none-eabi/lib/thumb/v7e-m+dp/hard/libg.a(lib_a-vfiprintf.o)
_free_r                                           /opt/gcc-arm-none-eabi-10-2020-q4-major/bin/../lib/gcc/arm-none-eabi/10.2.1/../../../../arm-none-eabi/lib/thumb/v7e-m+dp/hard/libg.a(lib_a-freer.o)
                                                  /opt/gcc-arm-none-eabi-10-2020-q4-major/bin/../lib/gcc/arm-none-eabi/10.2.1/../../../../arm-none-eabi/lib/thumb/v7e-m+dp/hard/libg.a(lib_a-fclose.o)
                                                  /opt/gcc-arm-none-eabi-10-2020-q4-major/bin/../lib/gcc/arm-none-eabi/10.2.1/../../../../arm-none-eabi/lib/thumb/v7e-m+dp/hard/libg.a(lib_a-fvwrite.o)
                                                  /opt/gcc-arm-none-eabi-10-2020-q4-major/bin/../lib/gcc/arm-none-eabi/10.2.1/../../../../arm-none-eabi/lib/thumb/v7e-m+dp/hard/libg.a(lib_a-fflush.o)
                                                  /opt/gcc-arm-none-eabi-10-2020-q4-major/bin/../lib/gcc/arm-none-eabi/10.2.1/../../../../arm-none-eabi/lib/thumb/v7e-m+dp/hard/libg.a(lib_a-wsetup.o)
                                                  /opt/gcc-arm-none-eabi-10-2020-q4-major/bin/../lib/gcc/arm-none-eabi/10.2.1/../../../../arm-none-eabi/lib/thumb/v7e-m+dp/hard/libg.a(lib_a-reallocr.o)
                                                  /opt/gcc-arm-none-eabi-10-2020-q4-major/bin/../lib/gcc/arm-none-eabi/10.2.1/../../../../arm-none-eabi/lib/thumb/v7e-m+dp/hard/libg.a(lib_a-svfiprintf.o)
                                                  /opt/gcc-arm-none-eabi-10-2020-q4-major/bin/../lib/gcc/arm-none-eabi/10.2.1/../../../../arm-none-eabi/lib/thumb/v7e-m+dp/hard/libg.a(lib_a-reent.o)
                                                  /opt/gcc-arm-none-eabi-10-2020-q4-major/bin/../lib/gcc/arm-none-eabi/10.2.1/../../../../arm-none-eabi/lib/thumb/v7e-m+dp/hard/libg.a(lib_a-mallocr.o)
                                                  /opt/gcc-arm-none-eabi-10-2020-q4-major/bin/../lib/gcc/arm-none-eabi/10.2.1/../../../../arm-none-eabi/lib/thumb/v7e-m+dp/hard/libg.a(lib_a-svfprintf.o)
_fstat_r                                          /tmp/BPRL.elf.FE4VjG.ltrans0.ltrans.o
                                                  build/obj/syscalls.o (symbol from plugin)
                                                  /opt/gcc-arm-none-eabi-10-2020-q4-major/bin/../lib/gcc/arm-none-eabi/10.2.1/../../../../arm-none-eabi/lib/thumb/v7e-m+dp/hard/libg.a(lib_a-makebuf.o)
_fwalk                                            /opt/gcc-arm-none-eabi-10-2020-q4-major/bin/../lib/gcc/arm-none-eabi/10.2.1/../../../../arm-none-eabi/lib/thumb/v7e-m+dp/hard/libg.a(lib_a-fwalk.o)
                                                  /opt/gcc-arm-none-eabi-10-2020-q4-major/bin/../lib/gcc/arm-none-eabi/10.2.1/../../../../arm-none-eabi/lib/thumb/v7e-m+dp/hard/libg.a(lib_a-findfp.o)
_fwalk_reent                                      /opt/gcc-arm-none-eabi-10-2020-q4-major/bin/../lib/gcc/arm-none-eabi/10.2.1/../../../../arm-none-eabi/lib/thumb/v7e-m+dp/hard/libg.a(lib_a-fwalk.o)
                                                  /opt/gcc-arm-none-eabi-10-2020-q4-major/bin/../lib/gcc/arm-none-eabi/10.2.1/../../../../arm-none-eabi/lib/thumb/v7e-m+dp/hard/libg.a(lib_a-findfp.o)
                                                  /opt/gcc-arm-none-eabi-10-2020-q4-major/bin/../lib/gcc/arm-none-eabi/10.2.1/../../../../arm-none-eabi/lib/thumb/v7e-m+dp/hard/libg.a(lib_a-fflush.o)
_getpid                                           /tmp/BPRL.elf.FE4VjG.ltrans0.ltrans.o
                                                  build/obj/syscalls.o (symbol from plugin)
                                                  /opt/gcc-arm-none-eabi-10-2020-q4-major/bin/../lib/gcc/arm-none-eabi/10.2.1/../../../../arm-none-eabi/lib/thumb/v7e-m+dp/hard/libg.a(lib_a-signalr.o)
_getpid_r                                         /opt/gcc-arm-none-eabi-10-2020-q4-major/bin/../lib/gcc/arm-none-eabi/10.2.1/../../../../arm-none-eabi/lib/thumb/v7e-m+dp/hard/libg.a(lib_a-signalr.o)
                                                  /opt/gcc-arm-none-eabi-10-2020-q4-major/bin/../lib/gcc/arm-none-eabi/10.2.1/../../../../arm-none-eabi/lib/thumb/v7e-m+dp/hard/libg.a(lib_a-signal.o)
_global_impure_ptr                                /opt/gcc-arm-none-eabi-10-2020-q4-major/bin/../lib/gcc/arm-none-eabi/10.2.1/../../../../arm-none-eabi/lib/thumb/v7e-m+dp/hard/libg.a(lib_a-impure.o)
                                                  /opt/gcc-arm-none-eabi-10-2020-q4-major/bin/../lib/gcc/arm-none-eabi/10.2.1/../../../../arm-none-eabi/lib/thumb/v7e-m+dp/hard/libg.a(lib_a-findfp.o)
                                                  /opt/gcc-arm-none-eabi-10-2020-q4-major/bin/../lib/gcc/arm-none-eabi/10.2.1/../../../../arm-none-eabi/lib/thumb/v7e-m+dp/hard/libg.a(lib_a-fflush.o)
_impure_ptr                                       /opt/gcc-arm-none-eabi-10-2020-q4-major/bin/../lib/gcc/arm-none-eabi/10.2.1/../../../../arm-none-eabi/lib/thumb/v7e-m+dp/hard/libg.a(lib_a-impure.o)
                                                  /opt/gcc-arm-none-eabi-10-2020-q4-major/bin/../lib/gcc/arm-none-eabi/10.2.1/../../../../arm-none-eabi/lib/thumb/v7e-m+dp/hard/libg.a(lib_a-fclose.o)
                                                  /opt/gcc-arm-none-eabi-10-2020-q4-major/bin/../lib/gcc/arm-none-eabi/10.2.1/../../../../arm-none-eabi/lib/thumb/v7e-m+dp/hard/libg.a(lib_a-wcrtomb.o)
                                                  /opt/gcc-arm-none-eabi-10-2020-q4-major/bin/../lib/gcc/arm-none-eabi/10.2.1/../../../../arm-none-eabi/lib/thumb/v7e-m+dp/hard/libg.a(lib_a-wbuf.o)
                                                  /opt/gcc-arm-none-eabi-10-2020-q4-major/bin/../lib/gcc/arm-none-eabi/10.2.1/../../../../arm-none-eabi/lib/thumb/v7e-m+dp/hard/libg.a(lib_a-fputwc.o)
                                                  /opt/gcc-arm-none-eabi-10-2020-q4-major/bin/../lib/gcc/arm-none-eabi/10.2.1/../../../../arm-none-eabi/lib/thumb/v7e-m+dp/hard/libg.a(lib_a-findfp.o)
                                                  /opt/gcc-arm-none-eabi-10-2020-q4-major/bin/../lib/gcc/arm-none-eabi/10.2.1/../../../../arm-none-eabi/lib/thumb/v7e-m+dp/hard/libg.a(lib_a-fflush.o)
                                                  /opt/gcc-arm-none-eabi-10-2020-q4-major/bin/../lib/gcc/arm-none-eabi/10.2.1/../../../../arm-none-eabi/lib/thumb/v7e-m+dp/hard/libg.a(lib_a-wsetup.o)
                                                  /opt/gcc-arm-none-eabi-10-2020-q4-major/bin/../lib/gcc/arm-none-eabi/10.2.1/../../../../arm-none-eabi/lib/thumb/v7e-m+dp/hard/libg.a(lib_a-vfiprintf.o)
                                                  /opt/gcc-arm-none-eabi-10-2020-q4-major/bin/../lib/gcc/arm-none-eabi/10.2.1/../../../../arm-none-eabi/lib/thumb/v7e-m+dp/hard/libg.a(lib_a-fiprintf.o)
                                                  /opt/gcc-arm-none-eabi-10-2020-q4-major/bin/../lib/gcc/arm-none-eabi/10.2.1/../../../../arm-none-eabi/lib/thumb/v7e-m+dp/hard/libg.a(lib_a-assert.o)
                                                  /opt/gcc-arm-none-eabi-10-2020-q4-major/bin/../lib/gcc/arm-none-eabi/10.2.1/../../../../arm-none-eabi/lib/thumb/v7e-m+dp/hard/libg.a(lib_a-reent.o)
                                                  /opt/gcc-arm-none-eabi-10-2020-q4-major/bin/../lib/gcc/arm-none-eabi/10.2.1/../../../../arm-none-eabi/lib/thumb/v7e-m+dp/hard/libg.a(lib_a-snprintf.o)
                                                  /opt/gcc-arm-none-eabi-10-2020-q4-major/bin/../lib/gcc/arm-none-eabi/10.2.1/../../../../arm-none-eabi/lib/thumb/v7e-m+dp/hard/libg.a(lib_a-signal.o)
                                                  /opt/gcc-arm-none-eabi-10-2020-q4-major/bin/../lib/gcc/arm-none-eabi/10.2.1/../../../../arm-none-eabi/lib/thumb/v7e-m+dp/hard/libg.a(lib_a-errno.o)
_init_signal                                      /opt/gcc-arm-none-eabi-10-2020-q4-major/bin/../lib/gcc/arm-none-eabi/10.2.1/../../../../arm-none-eabi/lib/thumb/v7e-m+dp/hard/libg.a(lib_a-signal.o)
_init_signal_r                                    /opt/gcc-arm-none-eabi-10-2020-q4-major/bin/../lib/gcc/arm-none-eabi/10.2.1/../../../../arm-none-eabi/lib/thumb/v7e-m+dp/hard/libg.a(lib_a-signal.o)
_isatty_r                                         /tmp/BPRL.elf.FE4VjG.ltrans0.ltrans.o
                                                  build/obj/syscalls.o (symbol from plugin)
                                                  /opt/gcc-arm-none-eabi-10-2020-q4-major/bin/../lib/gcc/arm-none-eabi/10.2.1/../../../../arm-none-eabi/lib/thumb/v7e-m+dp/hard/libg.a(lib_a-makebuf.o)
_kill                                             /tmp/BPRL.elf.FE4VjG.ltrans0.ltrans.o
                                                  build/obj/syscalls.o (symbol from plugin)
                                                  /opt/gcc-arm-none-eabi-10-2020-q4-major/bin/../lib/gcc/arm-none-eabi/10.2.1/../../../../arm-none-eabi/lib/thumb/v7e-m+dp/hard/libg.a(lib_a-signalr.o)
_kill_r                                           /opt/gcc-arm-none-eabi-10-2020-q4-major/bin/../lib/gcc/arm-none-eabi/10.2.1/../../../../arm-none-eabi/lib/thumb/v7e-m+dp/hard/libg.a(lib_a-signalr.o)
                                                  /opt/gcc-arm-none-eabi-10-2020-q4-major/bin/../lib/gcc/arm-none-eabi/10.2.1/../../../../arm-none-eabi/lib/thumb/v7e-m+dp/hard/libg.a(lib_a-signal.o)
_localeconv_r                                     /opt/gcc-arm-none-eabi-10-2020-q4-major/bin/../lib/gcc/arm-none-eabi/10.2.1/../../../../arm-none-eabi/lib/thumb/v7e-m+dp/hard/libg.a(lib_a-localeconv.o)
                                                  /opt/gcc-arm-none-eabi-10-2020-q4-major/bin/../lib/gcc/arm-none-eabi/10.2.1/../../../../arm-none-eabi/lib/thumb/v7e-m+dp/hard/libg.a(lib_a-vfiprintf.o)
                                                  /opt/gcc-arm-none-eabi-10-2020-q4-major/bin/../lib/gcc/arm-none-eabi/10.2.1/../../../../arm-none-eabi/lib/thumb/v7e-m+dp/hard/libg.a(lib_a-svfiprintf.o)
                                                  /opt/gcc-arm-none-eabi-10-2020-q4-major/bin/../lib/gcc/arm-none-eabi/10.2.1/../../../../arm-none-eabi/lib/thumb/v7e-m+dp/hard/libg.a(lib_a-svfprintf.o)
_lseek_r                                          /tmp/BPRL.elf.FE4VjG.ltrans0.ltrans.o
                                                  build/obj/syscalls.o (symbol from plugin)
                                                  /opt/gcc-arm-none-eabi-10-2020-q4-major/bin/../lib/gcc/arm-none-eabi/10.2.1/../../../../arm-none-eabi/lib/thumb/v7e-m+dp/hard/libg.a(lib_a-stdio.o)
_malloc_r                                         /opt/gcc-arm-none-eabi-10-2020-q4-major/bin/../lib/gcc/arm-none-eabi/10.2.1/../../../../arm-none-eabi/lib/thumb/v7e-m+dp/hard/libg.a(lib_a-mallocr.o)
                                                  /opt/gcc-arm-none-eabi-10-2020-q4-major/bin/../lib/gcc/arm-none-eabi/10.2.1/../../../../arm-none-eabi/lib/thumb/v7e-m+dp/hard/libg.a(lib_a-makebuf.o)
                                                  /opt/gcc-arm-none-eabi-10-2020-q4-major/bin/../lib/gcc/arm-none-eabi/10.2.1/../../../../arm-none-eabi/lib/thumb/v7e-m+dp/hard/libg.a(lib_a-fvwrite.o)
                                                  /opt/gcc-arm-none-eabi-10-2020-q4-major/bin/../lib/gcc/arm-none-eabi/10.2.1/../../../../arm-none-eabi/lib/thumb/v7e-m+dp/hard/libg.a(lib_a-findfp.o)
                                                  /opt/gcc-arm-none-eabi-10-2020-q4-major/bin/../lib/gcc/arm-none-eabi/10.2.1/../../../../arm-none-eabi/lib/thumb/v7e-m+dp/hard/libg.a(lib_a-reallocr.o)
                                                  /opt/gcc-arm-none-eabi-10-2020-q4-major/bin/../lib/gcc/arm-none-eabi/10.2.1/../../../../arm-none-eabi/lib/thumb/v7e-m+dp/hard/libg.a(lib_a-callocr.o)
                                                  /opt/gcc-arm-none-eabi-10-2020-q4-major/bin/../lib/gcc/arm-none-eabi/10.2.1/../../../../arm-none-eabi/lib/thumb/v7e-m+dp/hard/libg.a(lib_a-svfiprintf.o)
                                                  /opt/gcc-arm-none-eabi-10-2020-q4-major/bin/../lib/gcc/arm-none-eabi/10.2.1/../../../../arm-none-eabi/lib/thumb/v7e-m+dp/hard/libg.a(lib_a-svfprintf.o)
                                                  /opt/gcc-arm-none-eabi-10-2020-q4-major/bin/../lib/gcc/arm-none-eabi/10.2.1/../../../../arm-none-eabi/lib/thumb/v7e-m+dp/hard/libg.a(lib_a-signal.o)
_malloc_trim_r                                    /opt/gcc-arm-none-eabi-10-2020-q4-major/bin/../lib/gcc/arm-none-eabi/10.2.1/../../../../arm-none-eabi/lib/thumb/v7e-m+dp/hard/libg.a(lib_a-freer.o)
_mbtowc_r                                         /opt/gcc-arm-none-eabi-10-2020-q4-major/bin/../lib/gcc/arm-none-eabi/10.2.1/../../../../arm-none-eabi/lib/thumb/v7e-m+dp/hard/libg.a(lib_a-mbtowc_r.o)
_mmcsd_get_capacity                               build/obj/hal_mmcsd.o (symbol from plugin)
                                                  build/obj/hal_sdc.o (symbol from plugin)
_mmcsd_get_capacity_ext                           build/obj/hal_mmcsd.o (symbol from plugin)
                                                  build/obj/hal_sdc.o (symbol from plugin)
_mmcsd_get_slice                                  build/obj/hal_mmcsd.o (symbol from plugin)
                                                  build/obj/hal_sdc.o (symbol from plugin)
_mmcsd_unpack_csd_mmc                             build/obj/hal_mmcsd.o (symbol from plugin)
_mmcsd_unpack_csd_v10                             build/obj/hal_mmcsd.o (symbol from plugin)
_mmcsd_unpack_csd_v20                             build/obj/hal_mmcsd.o (symbol from plugin)
_mmcsd_unpack_mmc_cid                             build/obj/hal_mmcsd.o (symbol from plugin)
_mmcsd_unpack_sdc_cid                             build/obj/hal_mmcsd.o (symbol from plugin)
_mprec_log10                                      /opt/gcc-arm-none-eabi-10-2020-q4-major/bin/../lib/gcc/arm-none-eabi/10.2.1/../../../../arm-none-eabi/lib/thumb/v7e-m+dp/hard/libg.a(lib_a-mprec.o)
_open_r                                           /tmp/BPRL.elf.FE4VjG.ltrans0.ltrans.o
                                                  build/obj/syscalls.o (symbol from plugin)
_pal_lld_init                                     build/obj/hal_pal_lld.o (symbol from plugin)
                                                  build/obj/hal.o (symbol from plugin)
_pal_lld_setgroupmode                             build/obj/hal_pal_lld.o (symbol from plugin)
                                                  build/obj/board.o (symbol from plugin)
                                                  build/obj/hal_pal.o (symbol from plugin)
_raise_r                                          /opt/gcc-arm-none-eabi-10-2020-q4-major/bin/../lib/gcc/arm-none-eabi/10.2.1/../../../../arm-none-eabi/lib/thumb/v7e-m+dp/hard/libg.a(lib_a-signal.o)
_read_r                                           /tmp/BPRL.elf.FE4VjG.ltrans0.ltrans.o
                                                  build/obj/syscalls.o (symbol from plugin)
                                                  /opt/gcc-arm-none-eabi-10-2020-q4-major/bin/../lib/gcc/arm-none-eabi/10.2.1/../../../../arm-none-eabi/lib/thumb/v7e-m+dp/hard/libg.a(lib_a-stdio.o)
_realloc_r                                        /opt/gcc-arm-none-eabi-10-2020-q4-major/bin/../lib/gcc/arm-none-eabi/10.2.1/../../../../arm-none-eabi/lib/thumb/v7e-m+dp/hard/libg.a(lib_a-reallocr.o)
                                                  /opt/gcc-arm-none-eabi-10-2020-q4-major/bin/../lib/gcc/arm-none-eabi/10.2.1/../../../../arm-none-eabi/lib/thumb/v7e-m+dp/hard/libg.a(lib_a-fvwrite.o)
                                                  /opt/gcc-arm-none-eabi-10-2020-q4-major/bin/../lib/gcc/arm-none-eabi/10.2.1/../../../../arm-none-eabi/lib/thumb/v7e-m+dp/hard/libg.a(lib_a-svfiprintf.o)
_reclaim_reent                                    /opt/gcc-arm-none-eabi-10-2020-q4-major/bin/../lib/gcc/arm-none-eabi/10.2.1/../../../../arm-none-eabi/lib/thumb/v7e-m+dp/hard/libg.a(lib_a-reent.o)
_sbrk_r                                           /tmp/BPRL.elf.FE4VjG.ltrans0.ltrans.o
                                                  build/obj/syscalls.o (symbol from plugin)
                                                  /opt/gcc-arm-none-eabi-10-2020-q4-major/bin/../lib/gcc/arm-none-eabi/10.2.1/../../../../arm-none-eabi/lib/thumb/v7e-m+dp/hard/libg.a(lib_a-mallocr.o)
                                                  /opt/gcc-arm-none-eabi-10-2020-q4-major/bin/../lib/gcc/arm-none-eabi/10.2.1/../../../../arm-none-eabi/lib/thumb/v7e-m+dp/hard/libg.a(lib_a-freer.o)
_sdc_wait_for_transfer_state                      build/obj/hal_sdc.o (symbol from plugin)
                                                  build/obj/hal_sdc_lld.o (symbol from plugin)
_setlocale_r                                      /opt/gcc-arm-none-eabi-10-2020-q4-major/bin/../lib/gcc/arm-none-eabi/10.2.1/../../../../arm-none-eabi/lib/thumb/v7e-m+dp/hard/libg.a(lib_a-locale.o)
_signal_r                                         /opt/gcc-arm-none-eabi-10-2020-q4-major/bin/../lib/gcc/arm-none-eabi/10.2.1/../../../../arm-none-eabi/lib/thumb/v7e-m+dp/hard/libg.a(lib_a-signal.o)
_snprintf_r                                       /opt/gcc-arm-none-eabi-10-2020-q4-major/bin/../lib/gcc/arm-none-eabi/10.2.1/../../../../arm-none-eabi/lib/thumb/v7e-m+dp/hard/libg.a(lib_a-snprintf.o)
_stm32_dma_streams                                build/obj/stm32_dma.o (symbol from plugin)
_svfiprintf_r                                     /opt/gcc-arm-none-eabi-10-2020-q4-major/bin/../lib/gcc/arm-none-eabi/10.2.1/../../../../arm-none-eabi/lib/thumb/v7e-m+dp/hard/libg.a(lib_a-svfiprintf.o)
_svfprintf_r                                      /opt/gcc-arm-none-eabi-10-2020-q4-major/bin/../lib/gcc/arm-none-eabi/10.2.1/../../../../arm-none-eabi/lib/thumb/v7e-m+dp/hard/libg.a(lib_a-svfprintf.o)
                                                  /opt/gcc-arm-none-eabi-10-2020-q4-major/bin/../lib/gcc/arm-none-eabi/10.2.1/../../../../arm-none-eabi/lib/thumb/v7e-m+dp/hard/libg.a(lib_a-snprintf.o)
_unhandled_exception                              build/obj/vectors.o
_usb_ep0in                                        build/obj/hal_usb.o (symbol from plugin)
                                                  build/obj/hal_usb_lld.o (symbol from plugin)
_usb_ep0out                                       build/obj/hal_usb.o (symbol from plugin)
                                                  build/obj/hal_usb_lld.o (symbol from plugin)
_usb_ep0setup                                     build/obj/hal_usb.o (symbol from plugin)
                                                  build/obj/hal_usb_lld.o (symbol from plugin)
_usb_reset                                        build/obj/hal_usb.o (symbol from plugin)
                                                  build/obj/hal_usb_lld.o (symbol from plugin)
_usb_suspend                                      build/obj/hal_usb.o (symbol from plugin)
                                                  build/obj/hal_usb_lld.o (symbol from plugin)
_usb_wakeup                                       build/obj/hal_usb.o (symbol from plugin)
                                                  build/obj/hal_usb_lld.o (symbol from plugin)
_vectors                                          build/obj/vectors.o
                                                  build/obj/crt0_v7m.o
_vfiprintf_r                                      /opt/gcc-arm-none-eabi-10-2020-q4-major/bin/../lib/gcc/arm-none-eabi/10.2.1/../../../../arm-none-eabi/lib/thumb/v7e-m+dp/hard/libg.a(lib_a-vfiprintf.o)
                                                  /opt/gcc-arm-none-eabi-10-2020-q4-major/bin/../lib/gcc/arm-none-eabi/10.2.1/../../../../arm-none-eabi/lib/thumb/v7e-m+dp/hard/libg.a(lib_a-fiprintf.o)
_wcrtomb_r                                        /opt/gcc-arm-none-eabi-10-2020-q4-major/bin/../lib/gcc/arm-none-eabi/10.2.1/../../../../arm-none-eabi/lib/thumb/v7e-m+dp/hard/libg.a(lib_a-wcrtomb.o)
                                                  /opt/gcc-arm-none-eabi-10-2020-q4-major/bin/../lib/gcc/arm-none-eabi/10.2.1/../../../../arm-none-eabi/lib/thumb/v7e-m+dp/hard/libg.a(lib_a-fputwc.o)
_wctomb_r                                         /opt/gcc-arm-none-eabi-10-2020-q4-major/bin/../lib/gcc/arm-none-eabi/10.2.1/../../../../arm-none-eabi/lib/thumb/v7e-m+dp/hard/libg.a(lib_a-wctomb_r.o)
_write_r                                          /tmp/BPRL.elf.FE4VjG.ltrans0.ltrans.o
                                                  build/obj/syscalls.o (symbol from plugin)
                                                  /opt/gcc-arm-none-eabi-10-2020-q4-major/bin/../lib/gcc/arm-none-eabi/10.2.1/../../../../arm-none-eabi/lib/thumb/v7e-m+dp/hard/libg.a(lib_a-stdio.o)
abort                                             /opt/gcc-arm-none-eabi-10-2020-q4-major/bin/../lib/gcc/arm-none-eabi/10.2.1/../../../../arm-none-eabi/lib/thumb/v7e-m+dp/hard/libg.a(lib_a-abort.o)
                                                  /opt/gcc-arm-none-eabi-10-2020-q4-major/bin/../lib/gcc/arm-none-eabi/10.2.1/../../../../arm-none-eabi/lib/thumb/v7e-m+dp/hard/libg.a(lib_a-assert.o)
                                                  /opt/gcc-arm-none-eabi-10-2020-q4-major/bin/../lib/gcc/arm-none-eabi/10.2.1/thumb/v7e-m+dp/hard/libgcc.a(pr-support.o)
                                                  /opt/gcc-arm-none-eabi-10-2020-q4-major/bin/../lib/gcc/arm-none-eabi/10.2.1/thumb/v7e-m+dp/hard/libgcc.a(unwind-arm.o)
asinf                                             /opt/gcc-arm-none-eabi-10-2020-q4-major/bin/../lib/gcc/arm-none-eabi/10.2.1/../../../../arm-none-eabi/lib/thumb/v7e-m+dp/hard/libm.a(lib_a-wf_asin.o)
                                                  /tmp/BPRL.elf.FE4VjG.ltrans0.ltrans.o
                                                  build/obj/math.o (symbol from plugin)
atan2f                                            /opt/gcc-arm-none-eabi-10-2020-q4-major/bin/../lib/gcc/arm-none-eabi/10.2.1/../../../../arm-none-eabi/lib/thumb/v7e-m+dp/hard/libm.a(lib_a-wf_atan2.o)
                                                  /tmp/BPRL.elf.FE4VjG.ltrans0.ltrans.o
                                                  build/obj/math.o (symbol from plugin)
atanf                                             /opt/gcc-arm-none-eabi-10-2020-q4-major/bin/../lib/gcc/arm-none-eabi/10.2.1/../../../../arm-none-eabi/lib/thumb/v7e-m+dp/hard/libm.a(lib_a-sf_atan.o)
                                                  /opt/gcc-arm-none-eabi-10-2020-q4-major/bin/../lib/gcc/arm-none-eabi/10.2.1/../../../../arm-none-eabi/lib/thumb/v7e-m+dp/hard/libm.a(lib_a-ef_atan2.o)
board.c.704fa3b1                                  /tmp/ccn9r2Hy.debug.temp.o
                                                  /tmp/BPRL.elf.FE4VjG.ltrans0.ltrans.o
boardInit                                         build/obj/board.o (symbol from plugin)
                                                  build/obj/hal.o (symbol from plugin)
bool Logger::write<LogMsgIMU>(unsigned char, LogMsgIMU const&) build/obj/threads.o (symbol from plugin)
bool Logger::write<LogMsgState>(unsigned char, LogMsgState const&) build/obj/threads.o (symbol from plugin)
bprl_can_register(unsigned long, void (*)(CANRxFrame const&, void*), void*) build/obj/CAN.o (symbol from plugin)
bprl_i2c_register(unsigned char, void (*)(void*), void*) build/obj/I2C.o (symbol from plugin)
bsIncomingDataI                                   build/obj/hal_buffered_serial.o (symbol from plugin)
bsRequestDataI                                    build/obj/hal_buffered_serial.o (symbol from plugin)
bsaObjectInit                                     build/obj/bufstreams.o (symbol from plugin)
bufstreams.c.a830fc22                             /tmp/ccAzJlke.debug.temp.o
canInit                                           build/obj/hal_can.o (symbol from plugin)
                                                  build/obj/hal.o (symbol from plugin)
canObjectInit                                     build/obj/hal_can.o (symbol from plugin)
                                                  build/obj/hal_can_lld.o (symbol from plugin)
canReceiveTimeout                                 build/obj/hal_can.o (symbol from plugin)
                                                  build/obj/threads.o (symbol from plugin)
canSleep                                          build/obj/hal_can.o (symbol from plugin)
canStart                                          build/obj/hal_can.o (symbol from plugin)
                                                  build/obj/CAN.o (symbol from plugin)
canStop                                           build/obj/hal_can.o (symbol from plugin)
canTransmitTimeout                                build/obj/hal_can.o (symbol from plugin)
canTryAbortX                                      build/obj/hal_can.o (symbol from plugin)
canTryReceiveI                                    build/obj/hal_can.o (symbol from plugin)
canTryTransmitI                                   build/obj/hal_can.o (symbol from plugin)
canWakeup                                         build/obj/hal_can.o (symbol from plugin)
can_dispatch(CANRxFrame const&)                   build/obj/CAN.o (symbol from plugin)
                                                  build/obj/threads.o (symbol from plugin)
can_drv_init()                                    build/obj/CAN.o (symbol from plugin)
                                                  build/obj/main.o (symbol from plugin)
can_imu_mtx                                       build/obj/threads.o (symbol from plugin)
                                                  build/obj/CAN.o (symbol from plugin)
can_lld_abort                                     build/obj/hal_can_lld.o (symbol from plugin)
                                                  build/obj/hal_can.o (symbol from plugin)
can_lld_init                                      build/obj/hal_can_lld.o (symbol from plugin)
                                                  build/obj/hal_can.o (symbol from plugin)
can_lld_is_rx_nonempty                            build/obj/hal_can_lld.o (symbol from plugin)
                                                  build/obj/hal_can.o (symbol from plugin)
can_lld_is_tx_empty                               build/obj/hal_can_lld.o (symbol from plugin)
                                                  build/obj/hal_can.o (symbol from plugin)
can_lld_receive                                   build/obj/hal_can_lld.o (symbol from plugin)
                                                  build/obj/hal_can.o (symbol from plugin)
can_lld_serve_interrupt                           build/obj/hal_can_lld.o (symbol from plugin)
                                                  build/obj/stm32_isr.o (symbol from plugin)
can_lld_sleep                                     build/obj/hal_can_lld.o (symbol from plugin)
                                                  build/obj/hal_can.o (symbol from plugin)
can_lld_start                                     build/obj/hal_can_lld.o (symbol from plugin)
                                                  build/obj/hal_can.o (symbol from plugin)
can_lld_stop                                      build/obj/hal_can_lld.o (symbol from plugin)
                                                  build/obj/hal_can.o (symbol from plugin)
can_lld_transmit                                  build/obj/hal_can_lld.o (symbol from plugin)
                                                  build/obj/hal_can.o (symbol from plugin)
can_lld_wakeup                                    build/obj/hal_can_lld.o (symbol from plugin)
                                                  build/obj/hal_can.o (symbol from plugin)
ch0                                               /tmp/BPRL.elf.FE4VjG.ltrans0.ltrans.o
                                                  build/obj/chsys.o (symbol from plugin)
                                                  /tmp/BPRL.elf.FE4VjG.ltrans1.ltrans.o
                                                  build/obj/threads.o (symbol from plugin)
                                                  build/obj/chmsg.o (symbol from plugin)
                                                  build/obj/chevents.o (symbol from plugin)
                                                  build/obj/chcond.o (symbol from plugin)
                                                  build/obj/chmtx.o (symbol from plugin)
                                                  build/obj/chsem.o (symbol from plugin)
                                                  build/obj/chregistry.o (symbol from plugin)
                                                  build/obj/chthreads.o (symbol from plugin)
                                                  build/obj/chschd.o (symbol from plugin)
                                                  build/obj/chvt.o (symbol from plugin)
                                                  build/obj/chtrace.o (symbol from plugin)
                                                  build/obj/chrfcu.o (symbol from plugin)
chCacheGetObject                                  build/obj/chobjcaches.o (symbol from plugin)
chCacheObjectInit                                 build/obj/chobjcaches.o (symbol from plugin)
chCacheReadObject                                 build/obj/chobjcaches.o (symbol from plugin)
chCacheReleaseObjectI                             build/obj/chobjcaches.o (symbol from plugin)
chCacheWriteObject                                build/obj/chobjcaches.o (symbol from plugin)
chCondBroadcast                                   build/obj/chcond.o (symbol from plugin)
chCondBroadcastI                                  build/obj/chcond.o (symbol from plugin)
chCondObjectInit                                  build/obj/chcond.o (symbol from plugin)
chCondSignal                                      build/obj/chcond.o (symbol from plugin)
chCondSignalI                                     build/obj/chcond.o (symbol from plugin)
chCondWait                                        build/obj/chcond.o (symbol from plugin)
chCondWaitS                                       build/obj/chcond.o (symbol from plugin)
chCondWaitTimeout                                 build/obj/chcond.o (symbol from plugin)
chCondWaitTimeoutS                                build/obj/chcond.o (symbol from plugin)
chCoreAllocFromBase                               build/obj/chmemcore.o (symbol from plugin)
                                                  build/obj/syscalls.o (symbol from plugin)
chCoreAllocFromBaseI                              build/obj/chmemcore.o (symbol from plugin)
chCoreAllocFromTop                                build/obj/chmemcore.o (symbol from plugin)
                                                  build/obj/chmemheaps.o (symbol from plugin)
chCoreAllocFromTopI                               build/obj/chmemcore.o (symbol from plugin)
                                                  build/obj/chfactory.o (symbol from plugin)
chCoreGetStatusX                                  build/obj/chmemcore.o (symbol from plugin)
chDelegateCallVeneer                              build/obj/chdelegates.o (symbol from plugin)
chDelegateDispatch                                build/obj/chdelegates.o (symbol from plugin)
chDelegateDispatchTimeout                         build/obj/chdelegates.o (symbol from plugin)
chEvtAddEvents                                    build/obj/chevents.o (symbol from plugin)
chEvtBroadcastFlags                               build/obj/chevents.o (symbol from plugin)
chEvtBroadcastFlagsI                              build/obj/chevents.o (symbol from plugin)
                                                  build/obj/hal_serial_lld.o (symbol from plugin)
                                                  build/obj/hal_can_lld.o (symbol from plugin)
                                                  build/obj/hal_serial_usb.o (symbol from plugin)
                                                  build/obj/hal_serial.o (symbol from plugin)
                                                  build/obj/hal_can.o (symbol from plugin)
                                                  build/obj/hal_buffered_serial.o (symbol from plugin)
chEvtDispatch                                     build/obj/chevents.o (symbol from plugin)
chEvtGetAndClearEvents                            build/obj/chevents.o (symbol from plugin)
chEvtGetAndClearEventsI                           build/obj/chevents.o (symbol from plugin)
chEvtGetAndClearFlags                             build/obj/chevents.o (symbol from plugin)
chEvtGetAndClearFlagsI                            build/obj/chevents.o (symbol from plugin)
chEvtRegisterMaskWithFlags                        build/obj/chevents.o (symbol from plugin)
chEvtRegisterMaskWithFlagsI                       build/obj/chevents.o (symbol from plugin)
chEvtSignal                                       build/obj/chevents.o (symbol from plugin)
chEvtSignalI                                      build/obj/chevents.o (symbol from plugin)
chEvtUnregister                                   build/obj/chevents.o (symbol from plugin)
chEvtWaitAll                                      build/obj/chevents.o (symbol from plugin)
chEvtWaitAllTimeout                               build/obj/chevents.o (symbol from plugin)
chEvtWaitAny                                      build/obj/chevents.o (symbol from plugin)
chEvtWaitAnyTimeout                               build/obj/chevents.o (symbol from plugin)
chEvtWaitOne                                      build/obj/chevents.o (symbol from plugin)
chEvtWaitOneTimeout                               build/obj/chevents.o (symbol from plugin)
chFactoryCreateBuffer                             build/obj/chfactory.o (symbol from plugin)
chFactoryCreateMailbox                            build/obj/chfactory.o (symbol from plugin)
chFactoryCreateObjectsFIFO                        build/obj/chfactory.o (symbol from plugin)
chFactoryCreatePipe                               build/obj/chfactory.o (symbol from plugin)
chFactoryCreateSemaphore                          build/obj/chfactory.o (symbol from plugin)
chFactoryFindBuffer                               build/obj/chfactory.o (symbol from plugin)
chFactoryFindMailbox                              build/obj/chfactory.o (symbol from plugin)
chFactoryFindObject                               build/obj/chfactory.o (symbol from plugin)
chFactoryFindObjectByPointer                      build/obj/chfactory.o (symbol from plugin)
chFactoryFindObjectsFIFO                          build/obj/chfactory.o (symbol from plugin)
chFactoryFindPipe                                 build/obj/chfactory.o (symbol from plugin)
chFactoryFindSemaphore                            build/obj/chfactory.o (symbol from plugin)
chFactoryRegisterObject                           build/obj/chfactory.o (symbol from plugin)
chFactoryReleaseBuffer                            build/obj/chfactory.o (symbol from plugin)
chFactoryReleaseMailbox                           build/obj/chfactory.o (symbol from plugin)
chFactoryReleaseObject                            build/obj/chfactory.o (symbol from plugin)
chFactoryReleaseObjectsFIFO                       build/obj/chfactory.o (symbol from plugin)
chFactoryReleasePipe                              build/obj/chfactory.o (symbol from plugin)
chFactoryReleaseSemaphore                         build/obj/chfactory.o (symbol from plugin)
chGuardedPoolAllocTimeout                         build/obj/chmempools.o (symbol from plugin)
chGuardedPoolAllocTimeoutS                        build/obj/chmempools.o (symbol from plugin)
chGuardedPoolFree                                 build/obj/chmempools.o (symbol from plugin)
chGuardedPoolLoadArray                            build/obj/chmempools.o (symbol from plugin)
                                                  build/obj/chfactory.o (symbol from plugin)
chGuardedPoolObjectInitAligned                    build/obj/chmempools.o (symbol from plugin)
                                                  build/obj/chfactory.o (symbol from plugin)
chHeapAllocAligned                                build/obj/chmemheaps.o (symbol from plugin)
                                                  build/obj/chfactory.o (symbol from plugin)
                                                  build/obj/chdynamic.o (symbol from plugin)
chHeapFree                                        build/obj/chmemheaps.o (symbol from plugin)
                                                  build/obj/chfactory.o (symbol from plugin)
                                                  build/obj/chthreads.o (symbol from plugin)
chHeapObjectInit                                  build/obj/chmemheaps.o (symbol from plugin)
chHeapStatus                                      build/obj/chmemheaps.o (symbol from plugin)
chInstanceObjectInit                              build/obj/chinstances.o (symbol from plugin)
                                                  build/obj/chsys.o (symbol from plugin)
chMBFetchI                                        build/obj/chmboxes.o (symbol from plugin)
chMBFetchTimeout                                  build/obj/chmboxes.o (symbol from plugin)
chMBFetchTimeoutS                                 build/obj/chmboxes.o (symbol from plugin)
chMBObjectInit                                    build/obj/chmboxes.o (symbol from plugin)
                                                  build/obj/chfactory.o (symbol from plugin)
chMBPostAheadI                                    build/obj/chmboxes.o (symbol from plugin)
chMBPostAheadTimeout                              build/obj/chmboxes.o (symbol from plugin)
chMBPostAheadTimeoutS                             build/obj/chmboxes.o (symbol from plugin)
chMBPostI                                         build/obj/chmboxes.o (symbol from plugin)
chMBPostTimeout                                   build/obj/chmboxes.o (symbol from plugin)
chMBPostTimeoutS                                  build/obj/chmboxes.o (symbol from plugin)
chMBReset                                         build/obj/chmboxes.o (symbol from plugin)
chMBResetI                                        build/obj/chmboxes.o (symbol from plugin)
chMsgPollS                                        build/obj/chmsg.o (symbol from plugin)
chMsgRelease                                      build/obj/chmsg.o (symbol from plugin)
                                                  build/obj/chdelegates.o (symbol from plugin)
chMsgSend                                         build/obj/chmsg.o (symbol from plugin)
                                                  build/obj/chdelegates.o (symbol from plugin)
chMsgWaitS                                        build/obj/chmsg.o (symbol from plugin)
                                                  build/obj/chdelegates.o (symbol from plugin)
chMsgWaitTimeoutS                                 build/obj/chmsg.o (symbol from plugin)
                                                  build/obj/chdelegates.o (symbol from plugin)
chMtxForceReleaseS                                build/obj/chmtx.o (symbol from plugin)
chMtxLock                                         /tmp/BPRL.elf.FE4VjG.ltrans0.ltrans.o
                                                  build/obj/chmtx.o (symbol from plugin)
                                                  /tmp/BPRL.elf.FE4VjG.ltrans1.ltrans.o
                                                  build/obj/DShot.o (symbol from plugin)
                                                  build/obj/CAN.o (symbol from plugin)
                                                  build/obj/threads.o (symbol from plugin)
                                                  build/obj/chfactory.o (symbol from plugin)
                                                  build/obj/chpipes.o (symbol from plugin)
                                                  build/obj/chmemheaps.o (symbol from plugin)
                                                  build/obj/hal_spi.o (symbol from plugin)
chMtxLockS                                        build/obj/chmtx.o (symbol from plugin)
                                                  build/obj/chcond.o (symbol from plugin)
chMtxObjectInit                                   build/obj/chmtx.o (symbol from plugin)
                                                  build/obj/DShot.o (symbol from plugin)
                                                  build/obj/chfactory.o (symbol from plugin)
                                                  build/obj/chpipes.o (symbol from plugin)
                                                  build/obj/chmemheaps.o (symbol from plugin)
                                                  build/obj/hal_spi.o (symbol from plugin)
chMtxTryLock                                      build/obj/chmtx.o (symbol from plugin)
chMtxTryLockS                                     build/obj/chmtx.o (symbol from plugin)
chMtxUnlock                                       /tmp/BPRL.elf.FE4VjG.ltrans0.ltrans.o
                                                  build/obj/chmtx.o (symbol from plugin)
                                                  /tmp/BPRL.elf.FE4VjG.ltrans1.ltrans.o
                                                  build/obj/DShot.o (symbol from plugin)
                                                  build/obj/CAN.o (symbol from plugin)
                                                  build/obj/threads.o (symbol from plugin)
                                                  build/obj/chfactory.o (symbol from plugin)
                                                  build/obj/chpipes.o (symbol from plugin)
                                                  build/obj/chmemheaps.o (symbol from plugin)
                                                  build/obj/hal_spi.o (symbol from plugin)
chMtxUnlockAll                                    build/obj/chmtx.o (symbol from plugin)
chMtxUnlockAllS                                   build/obj/chmtx.o (symbol from plugin)
chMtxUnlockS                                      build/obj/chmtx.o (symbol from plugin)
                                                  build/obj/chcond.o (symbol from plugin)
chPipeObjectInit                                  build/obj/chpipes.o (symbol from plugin)
                                                  build/obj/chfactory.o (symbol from plugin)
chPipeReadTimeout                                 build/obj/chpipes.o (symbol from plugin)
chPipeReset                                       build/obj/chpipes.o (symbol from plugin)
chPipeWriteTimeout                                build/obj/chpipes.o (symbol from plugin)
chPoolAlloc                                       build/obj/chmempools.o (symbol from plugin)
                                                  build/obj/chfactory.o (symbol from plugin)
                                                  build/obj/chdynamic.o (symbol from plugin)
chPoolAllocI                                      build/obj/chmempools.o (symbol from plugin)
chPoolFree                                        build/obj/chmempools.o (symbol from plugin)
                                                  build/obj/chfactory.o (symbol from plugin)
                                                  build/obj/chthreads.o (symbol from plugin)
chPoolFreeI                                       build/obj/chmempools.o (symbol from plugin)
chPoolLoadArray                                   build/obj/chmempools.o (symbol from plugin)
chPoolObjectInitAligned                           build/obj/chmempools.o (symbol from plugin)
                                                  build/obj/chfactory.o (symbol from plugin)
chRFCUCollectFaultsI                              build/obj/chrfcu.o (symbol from plugin)
                                                  build/obj/chvt.o (symbol from plugin)
chRFCUGetAndClearFaultsI                          build/obj/chrfcu.o (symbol from plugin)
chRegFindThreadByName                             build/obj/chregistry.o (symbol from plugin)
chRegFindThreadByPointer                          build/obj/chregistry.o (symbol from plugin)
chRegFindThreadByWorkingArea                      build/obj/chregistry.o (symbol from plugin)
chRegFirstThread                                  build/obj/chregistry.o (symbol from plugin)
chRegNextThread                                   build/obj/chregistry.o (symbol from plugin)
chSchDoPreemption                                 /tmp/BPRL.elf.FE4VjG.ltrans0.ltrans.o
                                                  build/obj/chschd.o (symbol from plugin)
                                                  build/obj/chcoreasm.o
chSchDoYieldS                                     build/obj/chschd.o (symbol from plugin)
                                                  build/obj/chthreads.o (symbol from plugin)
chSchGoSleepS                                     build/obj/chschd.o (symbol from plugin)
                                                  build/obj/chmsg.o (symbol from plugin)
                                                  build/obj/chevents.o (symbol from plugin)
                                                  build/obj/chcond.o (symbol from plugin)
                                                  build/obj/chmtx.o (symbol from plugin)
                                                  build/obj/chsem.o (symbol from plugin)
                                                  build/obj/chthreads.o (symbol from plugin)
chSchGoSleepTimeoutS                              build/obj/chschd.o (symbol from plugin)
                                                  build/obj/chmsg.o (symbol from plugin)
                                                  build/obj/chevents.o (symbol from plugin)
                                                  build/obj/chcond.o (symbol from plugin)
                                                  build/obj/chsem.o (symbol from plugin)
                                                  build/obj/chthreads.o (symbol from plugin)
                                                  build/obj/hal_can_lld.o (symbol from plugin)
chSchIsPreemptionRequired                         build/obj/chschd.o (symbol from plugin)
                                                  build/obj/chcore.o (symbol from plugin)
chSchPreemption                                   build/obj/chschd.o (symbol from plugin)
chSchReadyI                                       build/obj/chschd.o (symbol from plugin)
                                                  build/obj/chmsg.o (symbol from plugin)
                                                  build/obj/chevents.o (symbol from plugin)
                                                  build/obj/chcond.o (symbol from plugin)
                                                  build/obj/chmtx.o (symbol from plugin)
                                                  build/obj/chsem.o (symbol from plugin)
                                                  build/obj/chthreads.o (symbol from plugin)
chSchRescheduleS                                  build/obj/chschd.o (symbol from plugin)
                                                  build/obj/chpipes.o (symbol from plugin)
                                                  build/obj/chmempools.o (symbol from plugin)
                                                  build/obj/chmboxes.o (symbol from plugin)
                                                  build/obj/chevents.o (symbol from plugin)
                                                  build/obj/chcond.o (symbol from plugin)
                                                  build/obj/chmtx.o (symbol from plugin)
                                                  build/obj/chsem.o (symbol from plugin)
                                                  build/obj/chthreads.o (symbol from plugin)
                                                  build/obj/chsys.o (symbol from plugin)
                                                  build/obj/hal_usb.o (symbol from plugin)
                                                  build/obj/hal_spi.o (symbol from plugin)
                                                  build/obj/hal_serial_usb.o (symbol from plugin)
                                                  build/obj/hal_serial.o (symbol from plugin)
                                                  build/obj/hal_can.o (symbol from plugin)
chSchSelectFirst                                  build/obj/chschd.o (symbol from plugin)
chSchWakeupS                                      build/obj/chschd.o (symbol from plugin)
                                                  build/obj/chdynamic.o (symbol from plugin)
                                                  build/obj/chmsg.o (symbol from plugin)
                                                  build/obj/chcond.o (symbol from plugin)
                                                  build/obj/chsem.o (symbol from plugin)
                                                  build/obj/chthreads.o (symbol from plugin)
chSemAddCounterI                                  build/obj/chsem.o (symbol from plugin)
chSemObjectInit                                   build/obj/chsem.o (symbol from plugin)
                                                  build/obj/chfactory.o (symbol from plugin)
                                                  build/obj/chobjcaches.o (symbol from plugin)
                                                  build/obj/chmempools.o (symbol from plugin)
chSemResetWithMessage                             build/obj/chsem.o (symbol from plugin)
chSemResetWithMessageI                            build/obj/chsem.o (symbol from plugin)
chSemSignal                                       build/obj/chsem.o (symbol from plugin)
chSemSignalI                                      build/obj/chsem.o (symbol from plugin)
                                                  build/obj/chobjcaches.o (symbol from plugin)
                                                  build/obj/chmempools.o (symbol from plugin)
chSemSignalWait                                   build/obj/chsem.o (symbol from plugin)
chSemWait                                         build/obj/chsem.o (symbol from plugin)
chSemWaitS                                        build/obj/chsem.o (symbol from plugin)
                                                  build/obj/chobjcaches.o (symbol from plugin)
chSemWaitTimeout                                  build/obj/chsem.o (symbol from plugin)
chSemWaitTimeoutS                                 build/obj/chsem.o (symbol from plugin)
                                                  build/obj/chmempools.o (symbol from plugin)
chSysGetIdleThreadX                               build/obj/chsys.o (symbol from plugin)
chSysGetStatusAndLockX                            build/obj/chsys.o (symbol from plugin)
chSysHalt                                         build/obj/chsys.o (symbol from plugin)
                                                  build/obj/syscalls.o (symbol from plugin)
                                                  build/obj/hal_spi_lld.o (symbol from plugin)
chSysInit                                         build/obj/chsys.o (symbol from plugin)
                                                  build/obj/main.o (symbol from plugin)
chSysIntegrityCheckI                              build/obj/chsys.o (symbol from plugin)
chSysIsCounterWithinX                             build/obj/chsys.o (symbol from plugin)
chSysPolledDelayX                                 build/obj/chsys.o (symbol from plugin)
                                                  build/obj/hal_usb_lld.o (symbol from plugin)
chSysRestoreStatusX                               build/obj/chsys.o (symbol from plugin)
chSysTimerHandlerI                                build/obj/chsys.o (symbol from plugin)
                                                  build/obj/hal_st_lld.o (symbol from plugin)
chSysWaitSystemState                              build/obj/chsys.o (symbol from plugin)
chTMChainMeasurementToX                           build/obj/chtm.o (symbol from plugin)
chTMObjectInit                                    build/obj/chtm.o (symbol from plugin)
                                                  build/obj/chsys.o (symbol from plugin)
chTMStartMeasurementX                             build/obj/chtm.o (symbol from plugin)
                                                  build/obj/chsys.o (symbol from plugin)
chTMStopMeasurementX                              build/obj/chtm.o (symbol from plugin)
                                                  build/obj/chsys.o (symbol from plugin)
chThdAddRef                                       build/obj/chthreads.o (symbol from plugin)
chThdCreate                                       build/obj/chthreads.o (symbol from plugin)
chThdCreateFromHeap                               build/obj/chdynamic.o (symbol from plugin)
chThdCreateFromMemoryPool                         build/obj/chdynamic.o (symbol from plugin)
chThdCreateI                                      build/obj/chthreads.o (symbol from plugin)
                                                  build/obj/chinstances.o (symbol from plugin)
chThdCreateStatic                                 build/obj/chthreads.o (symbol from plugin)
                                                  build/obj/threads.o (symbol from plugin)
chThdCreateStatic.isra.0                          /tmp/BPRL.elf.FE4VjG.ltrans1.ltrans.o
                                                  /tmp/BPRL.elf.FE4VjG.ltrans0.ltrans.o
chThdCreateSuspended                              build/obj/chthreads.o (symbol from plugin)
chThdCreateSuspendedI                             build/obj/chthreads.o (symbol from plugin)
                                                  build/obj/chdynamic.o (symbol from plugin)
chThdDequeueAllI                                  build/obj/chthreads.o (symbol from plugin)
                                                  build/obj/chmboxes.o (symbol from plugin)
                                                  build/obj/hal_can_lld.o (symbol from plugin)
                                                  build/obj/hal_serial_usb.o (symbol from plugin)
                                                  build/obj/hal_can.o (symbol from plugin)
                                                  build/obj/hal_queues.o (symbol from plugin)
                                                  build/obj/hal_buffers.o (symbol from plugin)
chThdDequeueNextI                                 build/obj/chthreads.o (symbol from plugin)
                                                  build/obj/chmboxes.o (symbol from plugin)
                                                  build/obj/hal_queues.o (symbol from plugin)
                                                  build/obj/hal_buffers.o (symbol from plugin)
chThdEnqueueTimeoutS                              build/obj/chthreads.o (symbol from plugin)
                                                  build/obj/chmboxes.o (symbol from plugin)
                                                  build/obj/hal_can.o (symbol from plugin)
                                                  build/obj/hal_queues.o (symbol from plugin)
                                                  build/obj/hal_buffers.o (symbol from plugin)
chThdExit                                         /tmp/BPRL.elf.FE4VjG.ltrans0.ltrans.o
                                                  build/obj/chthreads.o (symbol from plugin)
                                                  build/obj/chcoreasm.o
chThdExitS                                        build/obj/chthreads.o (symbol from plugin)
chThdRelease                                      build/obj/chthreads.o (symbol from plugin)
                                                  build/obj/chregistry.o (symbol from plugin)
chThdResume                                       build/obj/chthreads.o (symbol from plugin)
                                                  build/obj/chpipes.o (symbol from plugin)
chThdResumeI                                      build/obj/chthreads.o (symbol from plugin)
                                                  build/obj/chpipes.o (symbol from plugin)
                                                  build/obj/hal_spi_lld.o (symbol from plugin)
                                                  build/obj/hal_sdc_lld.o (symbol from plugin)
                                                  build/obj/hal_spi.o (symbol from plugin)
chThdResumeS                                      build/obj/chthreads.o (symbol from plugin)
chThdSetPriority                                  build/obj/chthreads.o (symbol from plugin)
chThdSleep                                        /tmp/BPRL.elf.FE4VjG.ltrans0.ltrans.o
                                                  build/obj/chthreads.o (symbol from plugin)
                                                  /tmp/BPRL.elf.FE4VjG.ltrans1.ltrans.o
                                                  build/obj/ICM20602.o (symbol from plugin)
                                                  build/obj/ICM20948.o (symbol from plugin)
                                                  build/obj/threads.o (symbol from plugin)
                                                  build/obj/main.o (symbol from plugin)
                                                  build/obj/hal_sdc_lld.o (symbol from plugin)
                                                  build/obj/hal_usb.o (symbol from plugin)
                                                  build/obj/hal_sdc.o (symbol from plugin)
                                                  build/obj/hal_flash.o (symbol from plugin)
chThdSleepUntil                                   build/obj/chthreads.o (symbol from plugin)
chThdSleepUntilWindowed                           build/obj/chthreads.o (symbol from plugin)
                                                  build/obj/threads.o (symbol from plugin)
chThdStart                                        build/obj/chthreads.o (symbol from plugin)
chThdSuspendS                                     build/obj/chthreads.o (symbol from plugin)
chThdSuspendTimeoutS                              build/obj/chthreads.o (symbol from plugin)
                                                  build/obj/chpipes.o (symbol from plugin)
                                                  build/obj/hal_sdc_lld.o (symbol from plugin)
                                                  build/obj/hal_spi.o (symbol from plugin)
chThdTerminate                                    build/obj/chthreads.o (symbol from plugin)
chThdWait                                         build/obj/chthreads.o (symbol from plugin)
chThdYield                                        build/obj/chthreads.o (symbol from plugin)
chTraceResume                                     build/obj/chtrace.o (symbol from plugin)
chTraceResumeI                                    build/obj/chtrace.o (symbol from plugin)
chTraceSuspend                                    build/obj/chtrace.o (symbol from plugin)
chTraceSuspendI                                   build/obj/chtrace.o (symbol from plugin)
chTraceWrite                                      build/obj/chtrace.o (symbol from plugin)
chTraceWriteI                                     build/obj/chtrace.o (symbol from plugin)
chVTDoResetI                                      build/obj/chvt.o (symbol from plugin)
                                                  build/obj/chschd.o (symbol from plugin)
chVTDoSetContinuousI                              build/obj/chvt.o (symbol from plugin)
chVTDoSetI                                        build/obj/chvt.o (symbol from plugin)
                                                  build/obj/chschd.o (symbol from plugin)
chVTDoTickI                                       build/obj/chvt.o (symbol from plugin)
                                                  build/obj/chsys.o (symbol from plugin)
chVTGetRemainingIntervalI                         build/obj/chvt.o (symbol from plugin)
chVTGetTimeStampI                                 build/obj/chvt.o (symbol from plugin)
chVTResetTimeStampI                               build/obj/chvt.o (symbol from plugin)
ch_core0_cfg                                      build/obj/chsys.o (symbol from plugin)
ch_debug                                          build/obj/chregistry.o (symbol from plugin)
                                                  build/obj/chinstances.o (symbol from plugin)
ch_factory                                        build/obj/chfactory.o (symbol from plugin)
ch_memcore                                        build/obj/chmemcore.o (symbol from plugin)
ch_system                                         build/obj/chsys.o (symbol from plugin)
                                                  build/obj/chtm.o (symbol from plugin)
                                                  build/obj/chinstances.o (symbol from plugin)
chcond.c.9d904d30                                 /tmp/ccyzL3Rd.debug.temp.o
chcore.c.34948893                                 /tmp/ccMZuXoC.debug.temp.o
                                                  /tmp/BPRL.elf.FE4VjG.ltrans0.ltrans.o
chdebug.c.e463d9e3                                /tmp/cc5dCdeT.debug.temp.o
chdelegates.c.e55a5097                            /tmp/ccWjAgnr.debug.temp.o
chdynamic.c.37ed1392                              /tmp/ccqfmb2q.debug.temp.o
chevents.c.179c7ce6                               /tmp/cccR94mW.debug.temp.o
                                                  /tmp/BPRL.elf.FE4VjG.ltrans0.ltrans.o
chfactory.c.1e74b627                              /tmp/ccUjBBsu.debug.temp.o
                                                  /tmp/BPRL.elf.FE4VjG.ltrans0.ltrans.o
chinstances.c.dc118fa3                            /tmp/cc4sZw6e.debug.temp.o
                                                  /tmp/BPRL.elf.FE4VjG.ltrans0.ltrans.o
chmboxes.c.56e61fa0                               /tmp/cch8GVy3.debug.temp.o
chmemcore.c.2ab28c69                              /tmp/ccmBwYlf.debug.temp.o
                                                  /tmp/BPRL.elf.FE4VjG.ltrans0.ltrans.o
chmemheaps.c.93d579bb                             /tmp/cc9pEMiJ.debug.temp.o
                                                  /tmp/BPRL.elf.FE4VjG.ltrans0.ltrans.o
chmempools.c.267e033c                             /tmp/cceUumu1.debug.temp.o
                                                  /tmp/BPRL.elf.FE4VjG.ltrans0.ltrans.o
chmsg.c.9f5dd8f1                                  /tmp/ccIsE6P1.debug.temp.o
chmtx.c.3b35cec8                                  /tmp/cc2JkTMX.debug.temp.o
                                                  /tmp/BPRL.elf.FE4VjG.ltrans1.ltrans.o
                                                  /tmp/BPRL.elf.FE4VjG.ltrans0.ltrans.o
chobjcaches.c.7c6427e8                            /tmp/ccCOWBM9.debug.temp.o
chpipes.c.765472ac                                /tmp/cchSfEwN.debug.temp.o
chprintf                                          build/obj/chprintf.o (symbol from plugin)
chprintf.c.d6217c4f                               /tmp/ccj64EJG.debug.temp.o
chregistry.c.b0c0b795                             /tmp/cczV1lYM.debug.temp.o
                                                  /tmp/BPRL.elf.FE4VjG.ltrans0.ltrans.o
chrfcu.c.5453f9e4                                 /tmp/cctFC6ic.debug.temp.o
                                                  /tmp/BPRL.elf.FE4VjG.ltrans0.ltrans.o
chscanf                                           build/obj/chscanf.o (symbol from plugin)
chscanf.c.332952f2                                /tmp/ccsx88cj.debug.temp.o
chschd.c.d4205703                                 /tmp/ccqlIZIv.debug.temp.o
                                                  /tmp/BPRL.elf.FE4VjG.ltrans1.ltrans.o
                                                  /tmp/BPRL.elf.FE4VjG.ltrans0.ltrans.o
chsem.c.81c81eeb                                  /tmp/cc3RlWiY.debug.temp.o
chsnprintf                                        build/obj/chprintf.o (symbol from plugin)
chsnscanf                                         build/obj/chscanf.o (symbol from plugin)
chsys.c.a8457516                                  /tmp/cc2aLvbc.debug.temp.o
                                                  /tmp/BPRL.elf.FE4VjG.ltrans0.ltrans.o
chthreads.c.4f84bb7c                              /tmp/ccyZJoui.debug.temp.o
                                                  /tmp/BPRL.elf.FE4VjG.ltrans1.ltrans.o
                                                  /tmp/BPRL.elf.FE4VjG.ltrans0.ltrans.o
chtm.c.b664315d                                   /tmp/ccBmOTdn.debug.temp.o
                                                  /tmp/BPRL.elf.FE4VjG.ltrans0.ltrans.o
chtrace.c.43b8c317                                /tmp/ccSZMTci.debug.temp.o
                                                  /tmp/BPRL.elf.FE4VjG.ltrans1.ltrans.o
                                                  /tmp/BPRL.elf.FE4VjG.ltrans0.ltrans.o
chvprintf                                         build/obj/chprintf.o (symbol from plugin)
chvscanf                                          build/obj/chscanf.o (symbol from plugin)
chvsnprintf                                       build/obj/chprintf.o (symbol from plugin)
chvsnscanf                                        build/obj/chscanf.o (symbol from plugin)
chvt.c.35b1c722                                   /tmp/ccNe19st.debug.temp.o
                                                  /tmp/BPRL.elf.FE4VjG.ltrans0.ltrans.o
cleanup_glue                                      /opt/gcc-arm-none-eabi-10-2020-q4-major/bin/../lib/gcc/arm-none-eabi/10.2.1/../../../../arm-none-eabi/lib/thumb/v7e-m+dp/hard/libg.a(lib_a-reent.o)
constrain_float(float, float, float)              build/obj/math.o (symbol from plugin)
                                                  build/obj/AttitudeController.o (symbol from plugin)
                                                  build/obj/PID.o (symbol from plugin)
cosf                                              /opt/gcc-arm-none-eabi-10-2020-q4-major/bin/../lib/gcc/arm-none-eabi/10.2.1/../../../../arm-none-eabi/lib/thumb/v7e-m+dp/hard/libm.a(lib_a-cosf.o)
                                                  /tmp/BPRL.elf.FE4VjG.ltrans0.ltrans.o
                                                  build/obj/AttitudeController.o (symbol from plugin)
create_chain.isra.0                               /tmp/BPRL.elf.FE4VjG.ltrans1.ltrans.o
                                                  /tmp/BPRL.elf.FE4VjG.ltrans0.ltrans.o
cross3(float const*, float const*, float*)        build/obj/math.o (symbol from plugin)
                                                  build/obj/StateManager.o (symbol from plugin)
                                                  build/obj/EKF.o (symbol from plugin)
crt1.c.b6de2587                                   /tmp/cc1AI8gk.debug.temp.o
                                                  /tmp/BPRL.elf.FE4VjG.ltrans0.ltrans.o
derivative(float, float, float)                   build/obj/math.o (symbol from plugin)
                                                  build/obj/PID.o (symbol from plugin)
                                                  build/obj/StateManager.o (symbol from plugin)
disk_initialize                                   build/obj/fatfs_diskio.o (symbol from plugin)
                                                  build/obj/ff.o (symbol from plugin)
disk_ioctl                                        build/obj/fatfs_diskio.o (symbol from plugin)
                                                  build/obj/ff.o (symbol from plugin)
disk_read                                         build/obj/fatfs_diskio.o (symbol from plugin)
                                                  build/obj/ff.o (symbol from plugin)
disk_status                                       build/obj/fatfs_diskio.o (symbol from plugin)
                                                  build/obj/ff.o (symbol from plugin)
disk_write                                        /tmp/BPRL.elf.FE4VjG.ltrans0.ltrans.o
                                                  build/obj/fatfs_diskio.o (symbol from plugin)
                                                  /tmp/BPRL.elf.FE4VjG.ltrans1.ltrans.o
                                                  build/obj/ff.o (symbol from plugin)
dmaInit                                           build/obj/stm32_dma.o (symbol from plugin)
                                                  build/obj/hal_lld.o (symbol from plugin)
dmaSetRequestSource                               build/obj/stm32_dma.o (symbol from plugin)
                                                  build/obj/DShot.o (symbol from plugin)
                                                  build/obj/hal_spi_lld.o (symbol from plugin)
dmaStreamAlloc                                    build/obj/stm32_dma.o (symbol from plugin)
                                                  build/obj/DShot.o (symbol from plugin)
dmaStreamAllocI                                   build/obj/stm32_dma.o (symbol from plugin)
                                                  build/obj/hal_spi_lld.o (symbol from plugin)
dmaStreamFree                                     build/obj/stm32_dma.o (symbol from plugin)
dmaStreamFreeI                                    build/obj/stm32_dma.o (symbol from plugin)
                                                  build/obj/hal_spi_lld.o (symbol from plugin)
dshot_get_telemetry(ESCTelemetry*)                build/obj/DShot.o (symbol from plugin)
dshot_init()                                      build/obj/DShot.o (symbol from plugin)
                                                  build/obj/PWM.o (symbol from plugin)
dshot_write(unsigned short const*)                build/obj/DShot.o (symbol from plugin)
                                                  build/obj/PWM.o (symbol from plugin)
errno                                             /opt/gcc-arm-none-eabi-10-2020-q4-major/bin/../lib/gcc/arm-none-eabi/10.2.1/../../../../arm-none-eabi/lib/thumb/v7e-m+dp/hard/libg.a(lib_a-reent.o)
                                                  /opt/gcc-arm-none-eabi-10-2020-q4-major/bin/../lib/gcc/arm-none-eabi/10.2.1/../../../../arm-none-eabi/lib/thumb/v7e-m+dp/hard/libg.a(lib_a-signalr.o)
esc_mtx                                           build/obj/threads.o (symbol from plugin)
f_close                                           build/obj/ff.o (symbol from plugin)
                                                  build/obj/Logger.o (symbol from plugin)
f_closedir                                        build/obj/ff.o (symbol from plugin)
f_getfree                                         build/obj/ff.o (symbol from plugin)
f_lseek                                           build/obj/ff.o (symbol from plugin)
f_mkdir                                           build/obj/ff.o (symbol from plugin)
                                                  build/obj/Logger.o (symbol from plugin)
f_mount                                           build/obj/ff.o (symbol from plugin)
                                                  build/obj/Logger.o (symbol from plugin)
f_open                                            build/obj/ff.o (symbol from plugin)
                                                  build/obj/Logger.o (symbol from plugin)
f_opendir                                         build/obj/ff.o (symbol from plugin)
f_read                                            build/obj/ff.o (symbol from plugin)
f_readdir                                         build/obj/ff.o (symbol from plugin)
f_rename                                          build/obj/ff.o (symbol from plugin)
f_stat                                            build/obj/ff.o (symbol from plugin)
                                                  build/obj/Logger.o (symbol from plugin)
f_sync                                            build/obj/ff.o (symbol from plugin)
                                                  build/obj/Logger.o (symbol from plugin)
f_truncate                                        build/obj/ff.o (symbol from plugin)
f_unlink                                          build/obj/ff.o (symbol from plugin)
f_write                                           build/obj/ff.o (symbol from plugin)
                                                  build/obj/Logger.o (symbol from plugin)
fabsf                                             /opt/gcc-arm-none-eabi-10-2020-q4-major/bin/../lib/gcc/arm-none-eabi/10.2.1/../../../../arm-none-eabi/lib/thumb/v7e-m+dp/hard/libm.a(lib_a-sf_fabs.o)
                                                  /opt/gcc-arm-none-eabi-10-2020-q4-major/bin/../lib/gcc/arm-none-eabi/10.2.1/../../../../arm-none-eabi/lib/thumb/v7e-m+dp/hard/libm.a(lib_a-sf_atan.o)
                                                  /opt/gcc-arm-none-eabi-10-2020-q4-major/bin/../lib/gcc/arm-none-eabi/10.2.1/../../../../arm-none-eabi/lib/thumb/v7e-m+dp/hard/libm.a(lib_a-ef_atan2.o)
                                                  /opt/gcc-arm-none-eabi-10-2020-q4-major/bin/../lib/gcc/arm-none-eabi/10.2.1/../../../../arm-none-eabi/lib/thumb/v7e-m+dp/hard/libm.a(lib_a-ef_asin.o)
                                                  /opt/gcc-arm-none-eabi-10-2020-q4-major/bin/../lib/gcc/arm-none-eabi/10.2.1/../../../../arm-none-eabi/lib/thumb/v7e-m+dp/hard/libm.a(lib_a-wf_asin.o)
fatfs_diskio.c.f64c4156                           /tmp/ccKhrB7B.debug.temp.o
                                                  /tmp/BPRL.elf.FE4VjG.ltrans1.ltrans.o
                                                  /tmp/BPRL.elf.FE4VjG.ltrans0.ltrans.o
fatfs_syscall.c.90d6f3cd                          /tmp/cci7Opl1.debug.temp.o
fclose                                            /opt/gcc-arm-none-eabi-10-2020-q4-major/bin/../lib/gcc/arm-none-eabi/10.2.1/../../../../arm-none-eabi/lib/thumb/v7e-m+dp/hard/libg.a(lib_a-fclose.o)
ff.c.431d87b5                                     /tmp/ccyMIKzN.debug.temp.o
                                                  /tmp/BPRL.elf.FE4VjG.ltrans1.ltrans.o
                                                  /tmp/BPRL.elf.FE4VjG.ltrans0.ltrans.o
fflush                                            /opt/gcc-arm-none-eabi-10-2020-q4-major/bin/../lib/gcc/arm-none-eabi/10.2.1/../../../../arm-none-eabi/lib/thumb/v7e-m+dp/hard/libg.a(lib_a-fflush.o)
ffunicode.c.f4320a22                              /tmp/ccQy5fcL.debug.temp.o
fiprintf                                          /opt/gcc-arm-none-eabi-10-2020-q4-major/bin/../lib/gcc/arm-none-eabi/10.2.1/../../../../arm-none-eabi/lib/thumb/v7e-m+dp/hard/libg.a(lib_a-fiprintf.o)
                                                  /opt/gcc-arm-none-eabi-10-2020-q4-major/bin/../lib/gcc/arm-none-eabi/10.2.1/../../../../arm-none-eabi/lib/thumb/v7e-m+dp/hard/libg.a(lib_a-assert.o)
flashGetAddressOffset                             build/obj/hal_flash.o (symbol from plugin)
flashGetOffsetAddress                             build/obj/hal_flash.o (symbol from plugin)
flashGetOffsetSector                              build/obj/hal_flash.o (symbol from plugin)
flashGetSectorOffset                              build/obj/hal_flash.o (symbol from plugin)
flashGetSectorSize                                build/obj/hal_flash.o (symbol from plugin)
flashWaitErase                                    build/obj/hal_flash.o (symbol from plugin)
fputwc                                            /opt/gcc-arm-none-eabi-10-2020-q4-major/bin/../lib/gcc/arm-none-eabi/10.2.1/../../../../arm-none-eabi/lib/thumb/v7e-m+dp/hard/libg.a(lib_a-fputwc.o)
frexp                                             /opt/gcc-arm-none-eabi-10-2020-q4-major/bin/../lib/gcc/arm-none-eabi/10.2.1/../../../../arm-none-eabi/lib/thumb/v7e-m+dp/hard/libg.a(lib_a-s_frexp.o)
                                                  /opt/gcc-arm-none-eabi-10-2020-q4-major/bin/../lib/gcc/arm-none-eabi/10.2.1/../../../../arm-none-eabi/lib/thumb/v7e-m+dp/hard/libg.a(lib_a-svfprintf.o)
g_armed                                           build/obj/threads.o (symbol from plugin)
g_can_imu                                         build/obj/threads.o (symbol from plugin)
                                                  build/obj/CAN.o (symbol from plugin)
g_crsf                                            build/obj/CRSF.o (symbol from plugin)
                                                  build/obj/Radio.o (symbol from plugin)
g_esc_telem                                       build/obj/threads.o (symbol from plugin)
g_euler                                           build/obj/threads.o (symbol from plugin)
g_imu                                             build/obj/threads.o (symbol from plugin)
g_input                                           build/obj/threads.o (symbol from plugin)
g_mocap                                           build/obj/threads.o (symbol from plugin)
g_output                                          build/obj/threads.o (symbol from plugin)
g_sbus                                            build/obj/SBUS.o (symbol from plugin)
g_state                                           build/obj/threads.o (symbol from plugin)
get_fat.isra.0                                    /tmp/BPRL.elf.FE4VjG.ltrans1.ltrans.o
                                                  /tmp/BPRL.elf.FE4VjG.ltrans0.ltrans.o
get_fattime                                       build/obj/fatfs_diskio.o (symbol from plugin)
hal.c.cb4d8c38                                    /tmp/cckiIMyo.debug.temp.o
                                                  /tmp/BPRL.elf.FE4VjG.ltrans0.ltrans.o
halInit                                           build/obj/hal.o (symbol from plugin)
                                                  build/obj/main.o (symbol from plugin)
hal_buffered_serial.c.68930c7a                    /tmp/ccxyCMmE.debug.temp.o
hal_buffers.c.d24944e4                            /tmp/ccUXHfmm.debug.temp.o
hal_can.c.74b7e86c                                /tmp/ccjdzKfz.debug.temp.o
                                                  /tmp/BPRL.elf.FE4VjG.ltrans0.ltrans.o
hal_can_lld.c.1963d60f                            /tmp/ccoABdJL.debug.temp.o
                                                  /tmp/BPRL.elf.FE4VjG.ltrans0.ltrans.o
hal_flash.c.18e515dd                              /tmp/ccBUedUC.debug.temp.o
hal_lld.c.bcdc0906                                /tmp/ccGfNtvL.debug.temp.o
                                                  /tmp/BPRL.elf.FE4VjG.ltrans0.ltrans.o
hal_lld_init                                      build/obj/hal_lld.o (symbol from plugin)
                                                  build/obj/hal.o (symbol from plugin)
hal_mmcsd.c.7423bf08                              /tmp/cc1hHXIF.debug.temp.o
                                                  /tmp/BPRL.elf.FE4VjG.ltrans0.ltrans.o
hal_pal.c.3909742e                                /tmp/ccaD9WSE.debug.temp.o
hal_pal_lld.c.898bb531                            /tmp/ccVLgFnA.debug.temp.o
                                                  /tmp/BPRL.elf.FE4VjG.ltrans0.ltrans.o
hal_queues.c.4ebce93a                             /tmp/cc0Cj8E8.debug.temp.o
                                                  /tmp/BPRL.elf.FE4VjG.ltrans0.ltrans.o
hal_sdc.c.5b1ff59c                                /tmp/ccn6xZbq.debug.temp.o
                                                  /tmp/BPRL.elf.FE4VjG.ltrans0.ltrans.o
hal_sdc_lld.c.214897f0                            /tmp/ccxcVT2h.debug.temp.o
                                                  /tmp/BPRL.elf.FE4VjG.ltrans0.ltrans.o
hal_serial.c.d1717de3                             /tmp/ccfUCnJW.debug.temp.o
                                                  /tmp/BPRL.elf.FE4VjG.ltrans0.ltrans.o
hal_serial_lld.c.267eaf65                         /tmp/ccyDIc7b.debug.temp.o
                                                  /tmp/BPRL.elf.FE4VjG.ltrans0.ltrans.o
hal_serial_usb.c.9cf3a6af                         /tmp/ccW3QVqr.debug.temp.o
hal_spi.c.c4625a1e                                /tmp/ccShXzVe.debug.temp.o
                                                  /tmp/BPRL.elf.FE4VjG.ltrans1.ltrans.o
                                                  /tmp/BPRL.elf.FE4VjG.ltrans0.ltrans.o
hal_spi_lld.c.d5a1ccbe                            /tmp/ccWqfuMc.debug.temp.o
                                                  /tmp/BPRL.elf.FE4VjG.ltrans1.ltrans.o
                                                  /tmp/BPRL.elf.FE4VjG.ltrans0.ltrans.o
hal_st.c.0e4b3f24                                 /tmp/ccbdkTrP.debug.temp.o
                                                  /tmp/BPRL.elf.FE4VjG.ltrans0.ltrans.o
hal_st_lld.c.a413bc5c                             /tmp/ccXDelKO.debug.temp.o
                                                  /tmp/BPRL.elf.FE4VjG.ltrans0.ltrans.o
hal_usb.c.2b0b62a6                                /tmp/ccHtzOWh.debug.temp.o
                                                  /tmp/BPRL.elf.FE4VjG.ltrans0.ltrans.o
hal_usb_lld.c.ea7d1818                            /tmp/cc8KHu6o.debug.temp.o
                                                  /tmp/BPRL.elf.FE4VjG.ltrans1.ltrans.o
                                                  /tmp/BPRL.elf.FE4VjG.ltrans0.ltrans.o
i2c_drv_init()                                    build/obj/I2C.o (symbol from plugin)
                                                  build/obj/main.o (symbol from plugin)
i2c_poll_all()                                    build/obj/I2C.o (symbol from plugin)
                                                  build/obj/threads.o (symbol from plugin)
ibqGetEmptyBufferI                                build/obj/hal_buffers.o (symbol from plugin)
                                                  build/obj/hal_serial_usb.o (symbol from plugin)
ibqGetFullBufferTimeout                           build/obj/hal_buffers.o (symbol from plugin)
ibqGetFullBufferTimeoutS                          build/obj/hal_buffers.o (symbol from plugin)
ibqGetTimeout                                     build/obj/hal_buffers.o (symbol from plugin)
                                                  build/obj/hal_serial_usb.o (symbol from plugin)
ibqObjectInit                                     build/obj/hal_buffers.o (symbol from plugin)
                                                  build/obj/hal_serial_usb.o (symbol from plugin)
ibqPostFullBufferI                                build/obj/hal_buffers.o (symbol from plugin)
                                                  build/obj/hal_serial_usb.o (symbol from plugin)
ibqReadTimeout                                    build/obj/hal_buffers.o (symbol from plugin)
                                                  build/obj/hal_serial_usb.o (symbol from plugin)
ibqReleaseEmptyBuffer                             build/obj/hal_buffers.o (symbol from plugin)
ibqReleaseEmptyBufferS                            build/obj/hal_buffers.o (symbol from plugin)
ibqResetI                                         build/obj/hal_buffers.o (symbol from plugin)
                                                  build/obj/hal_serial_usb.o (symbol from plugin)
imu1                                              /tmp/BPRL.elf.FE4VjG.ltrans0.ltrans.o
                                                  build/obj/SPI.o (symbol from plugin)
                                                  /tmp/BPRL.elf.FE4VjG.ltrans1.ltrans.o
                                                  build/obj/threads.o (symbol from plugin)
imu2                                              /tmp/BPRL.elf.FE4VjG.ltrans0.ltrans.o
                                                  build/obj/SPI.o (symbol from plugin)
                                                  /tmp/BPRL.elf.FE4VjG.ltrans1.ltrans.o
                                                  build/obj/threads.o (symbol from plugin)
imu3                                              /tmp/BPRL.elf.FE4VjG.ltrans0.ltrans.o
                                                  build/obj/SPI.o (symbol from plugin)
                                                  /tmp/BPRL.elf.FE4VjG.ltrans1.ltrans.o
                                                  build/obj/threads.o (symbol from plugin)
imu_mtx                                           build/obj/threads.o (symbol from plugin)
integrate(float, float)                           build/obj/math.o (symbol from plugin)
iqGetI                                            build/obj/hal_queues.o (symbol from plugin)
iqGetTimeout                                      build/obj/hal_queues.o (symbol from plugin)
                                                  build/obj/hal_serial.o (symbol from plugin)
iqObjectInit                                      build/obj/hal_queues.o (symbol from plugin)
                                                  build/obj/hal_serial_lld.o (symbol from plugin)
iqPutI                                            build/obj/hal_queues.o (symbol from plugin)
                                                  build/obj/hal_serial.o (symbol from plugin)
                                                  build/obj/hal_buffered_serial.o (symbol from plugin)
iqReadI                                           build/obj/hal_queues.o (symbol from plugin)
iqReadTimeout                                     build/obj/hal_queues.o (symbol from plugin)
                                                  build/obj/hal_serial.o (symbol from plugin)
iqResetI                                          build/obj/hal_queues.o (symbol from plugin)
                                                  build/obj/hal_serial.o (symbol from plugin)
irqDeinit                                         build/obj/stm32_isr.o (symbol from plugin)
irqInit                                           build/obj/stm32_isr.o (symbol from plugin)
                                                  build/obj/hal_lld.o (symbol from plugin)
localeconv                                        /opt/gcc-arm-none-eabi-10-2020-q4-major/bin/../lib/gcc/arm-none-eabi/10.2.1/../../../../arm-none-eabi/lib/thumb/v7e-m+dp/hard/libg.a(lib_a-localeconv.o)
logger                                            /tmp/BPRL.elf.FE4VjG.ltrans0.ltrans.o
                                                  build/obj/Logger.o (symbol from plugin)
                                                  /tmp/BPRL.elf.FE4VjG.ltrans1.ltrans.o
                                                  build/obj/threads.o (symbol from plugin)
lowpass(float, float, float)                      build/obj/math.o (symbol from plugin)
                                                  build/obj/PID.o (symbol from plugin)
                                                  build/obj/StateManager.o (symbol from plugin)
lowpass_alpha(float, float)                       build/obj/math.o (symbol from plugin)
                                                  build/obj/PID.o (symbol from plugin)
                                                  build/obj/StateManager.o (symbol from plugin)
main                                              /tmp/BPRL.elf.FE4VjG.ltrans0.ltrans.o
                                                  build/obj/main.o (symbol from plugin)
                                                  build/obj/crt0_v7m.o
main.cpp.5cbdf12b                                 /tmp/ccsvxdtZ.debug.temp.o
                                                  /tmp/BPRL.elf.FE4VjG.ltrans0.ltrans.o
math.cpp.448bd258                                 /tmp/cca2FiSo.debug.temp.o
                                                  /tmp/BPRL.elf.FE4VjG.ltrans0.ltrans.o
memchr                                            /opt/gcc-arm-none-eabi-10-2020-q4-major/bin/../lib/gcc/arm-none-eabi/10.2.1/../../../../arm-none-eabi/lib/thumb/v7e-m+dp/hard/libg.a(lib_a-memchr.o)
                                                  /opt/gcc-arm-none-eabi-10-2020-q4-major/bin/../lib/gcc/arm-none-eabi/10.2.1/../../../../arm-none-eabi/lib/thumb/v7e-m+dp/hard/libg.a(lib_a-fvwrite.o)
                                                  /opt/gcc-arm-none-eabi-10-2020-q4-major/bin/../lib/gcc/arm-none-eabi/10.2.1/../../../../arm-none-eabi/lib/thumb/v7e-m+dp/hard/libg.a(lib_a-vfiprintf.o)
                                                  /opt/gcc-arm-none-eabi-10-2020-q4-major/bin/../lib/gcc/arm-none-eabi/10.2.1/../../../../arm-none-eabi/lib/thumb/v7e-m+dp/hard/libg.a(lib_a-svfiprintf.o)
                                                  /opt/gcc-arm-none-eabi-10-2020-q4-major/bin/../lib/gcc/arm-none-eabi/10.2.1/../../../../arm-none-eabi/lib/thumb/v7e-m+dp/hard/libg.a(lib_a-svfprintf.o)
memcmp                                            /opt/gcc-arm-none-eabi-10-2020-q4-major/bin/../lib/gcc/arm-none-eabi/10.2.1/../../../../arm-none-eabi/lib/thumb/v7e-m+dp/hard/libg.a(lib_a-memcmp.o)
                                                  /tmp/BPRL.elf.FE4VjG.ltrans0.ltrans.o
memcpy                                            /opt/gcc-arm-none-eabi-10-2020-q4-major/bin/../lib/gcc/arm-none-eabi/10.2.1/../../../../arm-none-eabi/lib/thumb/v7e-m+dp/hard/libg.a(lib_a-memcpy.o)
                                                  /opt/gcc-arm-none-eabi-10-2020-q4-major/bin/../lib/gcc/arm-none-eabi/10.2.1/../../../../arm-none-eabi/lib/thumb/v7e-m+dp/hard/libg.a(lib_a-fvwrite.o)
                                                  /opt/gcc-arm-none-eabi-10-2020-q4-major/bin/../lib/gcc/arm-none-eabi/10.2.1/../../../../arm-none-eabi/lib/thumb/v7e-m+dp/hard/libg.a(lib_a-svfiprintf.o)
                                                  /opt/gcc-arm-none-eabi-10-2020-q4-major/bin/../lib/gcc/arm-none-eabi/10.2.1/../../../../arm-none-eabi/lib/thumb/v7e-m+dp/hard/libg.a(lib_a-mprec.o)
                                                  /opt/gcc-arm-none-eabi-10-2020-q4-major/bin/../lib/gcc/arm-none-eabi/10.2.1/../../../../arm-none-eabi/lib/thumb/v7e-m+dp/hard/libg.a(lib_a-dtoa.o)
                                                  /opt/gcc-arm-none-eabi-10-2020-q4-major/bin/../lib/gcc/arm-none-eabi/10.2.1/thumb/v7e-m+dp/hard/libgcc.a(unwind-arm.o)
                                                  /tmp/BPRL.elf.FE4VjG.ltrans0.ltrans.o
memmove                                           /opt/gcc-arm-none-eabi-10-2020-q4-major/bin/../lib/gcc/arm-none-eabi/10.2.1/../../../../arm-none-eabi/lib/thumb/v7e-m+dp/hard/libg.a(lib_a-memmove.o)
                                                  /opt/gcc-arm-none-eabi-10-2020-q4-major/bin/../lib/gcc/arm-none-eabi/10.2.1/../../../../arm-none-eabi/lib/thumb/v7e-m+dp/hard/libg.a(lib_a-fvwrite.o)
                                                  /opt/gcc-arm-none-eabi-10-2020-q4-major/bin/../lib/gcc/arm-none-eabi/10.2.1/../../../../arm-none-eabi/lib/thumb/v7e-m+dp/hard/libg.a(lib_a-reallocr.o)
                                                  /opt/gcc-arm-none-eabi-10-2020-q4-major/bin/../lib/gcc/arm-none-eabi/10.2.1/../../../../arm-none-eabi/lib/thumb/v7e-m+dp/hard/libg.a(lib_a-svfiprintf.o)
memset                                            /opt/gcc-arm-none-eabi-10-2020-q4-major/bin/../lib/gcc/arm-none-eabi/10.2.1/../../../../arm-none-eabi/lib/thumb/v7e-m+dp/hard/libg.a(lib_a-memset.o)
                                                  /opt/gcc-arm-none-eabi-10-2020-q4-major/bin/../lib/gcc/arm-none-eabi/10.2.1/../../../../arm-none-eabi/lib/thumb/v7e-m+dp/hard/libg.a(lib_a-findfp.o)
                                                  /opt/gcc-arm-none-eabi-10-2020-q4-major/bin/../lib/gcc/arm-none-eabi/10.2.1/../../../../arm-none-eabi/lib/thumb/v7e-m+dp/hard/libg.a(lib_a-callocr.o)
                                                  /tmp/BPRL.elf.FE4VjG.ltrans1.ltrans.o
                                                  /tmp/BPRL.elf.FE4VjG.ltrans0.ltrans.o
memstreams.c.9c604a35                             /tmp/cc2Hy6rQ.debug.temp.o
mocap_mtx                                         build/obj/threads.o (symbol from plugin)
motor_output_init()                               build/obj/PWM.o (symbol from plugin)
                                                  build/obj/main.o (symbol from plugin)
motor_output_write(long const*)                   build/obj/PWM.o (symbol from plugin)
                                                  build/obj/threads.o (symbol from plugin)
move_window.part.0.lto_priv.0                     /tmp/BPRL.elf.FE4VjG.ltrans0.ltrans.o
                                                  /tmp/BPRL.elf.FE4VjG.ltrans1.ltrans.o
msObjectInit                                      build/obj/memstreams.o (symbol from plugin)
                                                  build/obj/chscanf.o (symbol from plugin)
                                                  build/obj/chprintf.o (symbol from plugin)
nanf                                              /opt/gcc-arm-none-eabi-10-2020-q4-major/bin/../lib/gcc/arm-none-eabi/10.2.1/../../../../arm-none-eabi/lib/thumb/v7e-m+dp/hard/libm.a(lib_a-sf_nan.o)
                                                  /opt/gcc-arm-none-eabi-10-2020-q4-major/bin/../lib/gcc/arm-none-eabi/10.2.1/../../../../arm-none-eabi/lib/thumb/v7e-m+dp/hard/libm.a(lib_a-wf_asin.o)
nullObjectInit                                    build/obj/nullstreams.o (symbol from plugin)
nullstreams.c.6f1812ef                            /tmp/ccrx9rvd.debug.temp.o
nvic.c.ea6e8417                                   /tmp/cc3twoij.debug.temp.o
                                                  /tmp/BPRL.elf.FE4VjG.ltrans0.ltrans.o
nvicClearPending                                  build/obj/nvic.o (symbol from plugin)
nvicDisableVector                                 build/obj/nvic.o (symbol from plugin)
                                                  build/obj/hal_usb_lld.o (symbol from plugin)
                                                  build/obj/stm32_dma.o (symbol from plugin)
                                                  build/obj/stm32_isr.o (symbol from plugin)
nvicEnableVector                                  build/obj/nvic.o (symbol from plugin)
                                                  build/obj/DShot.o (symbol from plugin)
                                                  build/obj/hal_spi_lld.o (symbol from plugin)
                                                  build/obj/hal_usb_lld.o (symbol from plugin)
                                                  build/obj/stm32_dma.o (symbol from plugin)
                                                  build/obj/stm32_isr.o (symbol from plugin)
nvicInit                                          build/obj/nvic.o (symbol from plugin)
nvicSetPending                                    build/obj/nvic.o (symbol from plugin)
nvicSetSystemHandlerPriority                      build/obj/nvic.o (symbol from plugin)
obqFlush                                          build/obj/hal_buffers.o (symbol from plugin)
obqGetEmptyBufferTimeout                          build/obj/hal_buffers.o (symbol from plugin)
obqGetEmptyBufferTimeoutS                         build/obj/hal_buffers.o (symbol from plugin)
obqGetFullBufferI                                 build/obj/hal_buffers.o (symbol from plugin)
                                                  build/obj/hal_serial_usb.o (symbol from plugin)
obqObjectInit                                     build/obj/hal_buffers.o (symbol from plugin)
                                                  build/obj/hal_serial_usb.o (symbol from plugin)
obqPostFullBuffer                                 build/obj/hal_buffers.o (symbol from plugin)
obqPostFullBufferS                                build/obj/hal_buffers.o (symbol from plugin)
obqPutTimeout                                     build/obj/hal_buffers.o (symbol from plugin)
                                                  build/obj/hal_serial_usb.o (symbol from plugin)
obqReleaseEmptyBufferI                            build/obj/hal_buffers.o (symbol from plugin)
                                                  build/obj/hal_serial_usb.o (symbol from plugin)
obqResetI                                         build/obj/hal_buffers.o (symbol from plugin)
                                                  build/obj/hal_serial_usb.o (symbol from plugin)
obqTryFlushI                                      build/obj/hal_buffers.o (symbol from plugin)
                                                  build/obj/hal_serial_usb.o (symbol from plugin)
obqWriteTimeout                                   build/obj/hal_buffers.o (symbol from plugin)
                                                  build/obj/hal_serial_usb.o (symbol from plugin)
oqGetI                                            build/obj/hal_queues.o (symbol from plugin)
                                                  build/obj/hal_serial_lld.o (symbol from plugin)
                                                  build/obj/hal_serial.o (symbol from plugin)
                                                  build/obj/hal_buffered_serial.o (symbol from plugin)
oqObjectInit                                      build/obj/hal_queues.o (symbol from plugin)
                                                  build/obj/hal_serial_lld.o (symbol from plugin)
oqPutI                                            build/obj/hal_queues.o (symbol from plugin)
oqPutTimeout                                      build/obj/hal_queues.o (symbol from plugin)
                                                  build/obj/hal_serial.o (symbol from plugin)
oqResetI                                          build/obj/hal_queues.o (symbol from plugin)
                                                  build/obj/hal_serial.o (symbol from plugin)
oqWriteI                                          build/obj/hal_queues.o (symbol from plugin)
oqWriteTimeout                                    build/obj/hal_queues.o (symbol from plugin)
                                                  build/obj/hal_serial.o (symbol from plugin)
osal.c.6cfe93af                                   /tmp/cczHceHh.debug.temp.o
otg_disable_ep.isra.0                             /tmp/BPRL.elf.FE4VjG.ltrans1.ltrans.o
                                                  /tmp/BPRL.elf.FE4VjG.ltrans0.ltrans.o
palReadBus                                        build/obj/hal_pal.o (symbol from plugin)
palSetBusMode                                     build/obj/hal_pal.o (symbol from plugin)
palWriteBus                                       build/obj/hal_pal.o (symbol from plugin)
port_init                                         build/obj/chcore.o (symbol from plugin)
                                                  build/obj/chinstances.o (symbol from plugin)
put_fat.part.0.lto_priv.0                         /tmp/BPRL.elf.FE4VjG.ltrans0.ltrans.o
                                                  /tmp/BPRL.elf.FE4VjG.ltrans1.ltrans.o
quat_conj(Quat const&)                            build/obj/math.o (symbol from plugin)
quat_dot(Quat const&, Quat const&)                build/obj/math.o (symbol from plugin)
                                                  build/obj/EKF.o (symbol from plugin)
quat_mul(Quat const&, Quat const&)                build/obj/math.o (symbol from plugin)
                                                  build/obj/EKF.o (symbol from plugin)
quat_norm(Quat const&)                            build/obj/math.o (symbol from plugin)
                                                  build/obj/EKF.o (symbol from plugin)
quat_to_euler(Quat const&, float&, float&, float&) build/obj/math.o (symbol from plugin)
                                                  build/obj/StateManager.o (symbol from plugin)
quat_to_rot_body2ned(Quat const&, float (*) [3])  build/obj/math.o (symbol from plugin)
                                                  build/obj/StateManager.o (symbol from plugin)
                                                  build/obj/EKF.o (symbol from plugin)
radio_armed()                                     build/obj/Radio.o (symbol from plugin)
                                                  build/obj/threads.o (symbol from plugin)
radio_input_init()                                build/obj/Radio.o (symbol from plugin)
                                                  build/obj/main.o (symbol from plugin)
radio_input_update()                              build/obj/Radio.o (symbol from plugin)
                                                  build/obj/threads.o (symbol from plugin)
radio_pitch()                                     build/obj/Radio.o (symbol from plugin)
                                                  build/obj/threads.o (symbol from plugin)
radio_roll()                                      build/obj/Radio.o (symbol from plugin)
                                                  build/obj/threads.o (symbol from plugin)
radio_thr()                                       build/obj/Radio.o (symbol from plugin)
                                                  build/obj/threads.o (symbol from plugin)
radio_yaw()                                       build/obj/Radio.o (symbol from plugin)
                                                  build/obj/threads.o (symbol from plugin)
raise                                             /opt/gcc-arm-none-eabi-10-2020-q4-major/bin/../lib/gcc/arm-none-eabi/10.2.1/../../../../arm-none-eabi/lib/thumb/v7e-m+dp/hard/libg.a(lib_a-signal.o)
                                                  /opt/gcc-arm-none-eabi-10-2020-q4-major/bin/../lib/gcc/arm-none-eabi/10.2.1/../../../../arm-none-eabi/lib/thumb/v7e-m+dp/hard/libg.a(lib_a-abort.o)
remove_chain.constprop.0.isra.0                   /tmp/BPRL.elf.FE4VjG.ltrans1.ltrans.o
                                                  /tmp/BPRL.elf.FE4VjG.ltrans0.ltrans.o
restore_core_regs                                 /opt/gcc-arm-none-eabi-10-2020-q4-major/bin/../lib/gcc/arm-none-eabi/10.2.1/thumb/v7e-m+dp/hard/libgcc.a(libunwind.o)
                                                  /opt/gcc-arm-none-eabi-10-2020-q4-major/bin/../lib/gcc/arm-none-eabi/10.2.1/thumb/v7e-m+dp/hard/libgcc.a(unwind-arm.o)
sdControl                                         build/obj/hal_serial.o (symbol from plugin)
sdGetWouldBlock                                   build/obj/hal_serial.o (symbol from plugin)
sdIncomingDataI                                   build/obj/hal_serial.o (symbol from plugin)
                                                  build/obj/hal_serial_lld.o (symbol from plugin)
sdInit                                            build/obj/hal_serial.o (symbol from plugin)
                                                  build/obj/hal.o (symbol from plugin)
sdObjectInit                                      build/obj/hal_serial.o (symbol from plugin)
                                                  build/obj/hal_serial_lld.o (symbol from plugin)
sdPutWouldBlock                                   build/obj/hal_serial.o (symbol from plugin)
sdRequestDataI                                    build/obj/hal_serial.o (symbol from plugin)
sdStart                                           build/obj/hal_serial.o (symbol from plugin)
                                                  build/obj/CRSF.o (symbol from plugin)
                                                  build/obj/SBUS.o (symbol from plugin)
sdStop                                            build/obj/hal_serial.o (symbol from plugin)
sd_lld_init                                       build/obj/hal_serial_lld.o (symbol from plugin)
                                                  build/obj/hal_serial.o (symbol from plugin)
sd_lld_serve_interrupt                            build/obj/hal_serial_lld.o (symbol from plugin)
                                                  build/obj/stm32_isr.o (symbol from plugin)
sd_lld_start                                      build/obj/hal_serial_lld.o (symbol from plugin)
                                                  build/obj/hal_serial.o (symbol from plugin)
sd_lld_stop                                       build/obj/hal_serial_lld.o (symbol from plugin)
                                                  build/obj/hal_serial.o (symbol from plugin)
sdcConnect                                        build/obj/hal_sdc.o (symbol from plugin)
                                                  build/obj/Logger.o (symbol from plugin)
sdcDisconnect                                     build/obj/hal_sdc.o (symbol from plugin)
                                                  build/obj/Logger.o (symbol from plugin)
sdcErase                                          build/obj/hal_sdc.o (symbol from plugin)
sdcGetAndClearErrors                              build/obj/hal_sdc.o (symbol from plugin)
sdcGetInfo                                        build/obj/hal_sdc.o (symbol from plugin)
sdcInit                                           build/obj/hal_sdc.o (symbol from plugin)
                                                  build/obj/hal.o (symbol from plugin)
sdcObjectInit                                     build/obj/hal_sdc.o (symbol from plugin)
                                                  build/obj/hal_sdc_lld.o (symbol from plugin)
sdcRead                                           build/obj/hal_sdc.o (symbol from plugin)
sdcStart                                          build/obj/hal_sdc.o (symbol from plugin)
                                                  build/obj/Logger.o (symbol from plugin)
sdcStop                                           build/obj/hal_sdc.o (symbol from plugin)
                                                  build/obj/Logger.o (symbol from plugin)
sdcSync                                           build/obj/hal_sdc.o (symbol from plugin)
sdcWrite                                          build/obj/hal_sdc.o (symbol from plugin)
sdc_lld_init                                      build/obj/hal_sdc_lld.o (symbol from plugin)
                                                  build/obj/hal_sdc.o (symbol from plugin)
sdc_lld_is_card_inserted                          build/obj/Logger.o (symbol from plugin)
                                                  build/obj/hal_sdc.o (symbol from plugin)
sdc_lld_is_write_protected                        build/obj/Logger.o (symbol from plugin)
                                                  build/obj/hal_sdc.o (symbol from plugin)
sdc_lld_read                                      build/obj/hal_sdc_lld.o (symbol from plugin)
                                                  build/obj/hal_sdc.o (symbol from plugin)
sdc_lld_read_aligned                              build/obj/hal_sdc_lld.o (symbol from plugin)
sdc_lld_read_special                              build/obj/hal_sdc_lld.o (symbol from plugin)
                                                  build/obj/hal_sdc.o (symbol from plugin)
sdc_lld_send_cmd_long_crc                         build/obj/hal_sdc_lld.o (symbol from plugin)
                                                  build/obj/hal_sdc.o (symbol from plugin)
sdc_lld_send_cmd_none                             build/obj/hal_sdc_lld.o (symbol from plugin)
                                                  build/obj/hal_sdc.o (symbol from plugin)
sdc_lld_send_cmd_short                            build/obj/hal_sdc_lld.o (symbol from plugin)
                                                  build/obj/hal_sdc.o (symbol from plugin)
sdc_lld_send_cmd_short_crc                        build/obj/hal_sdc_lld.o (symbol from plugin)
                                                  build/obj/hal_sdc.o (symbol from plugin)
sdc_lld_serve_interrupt                           build/obj/hal_sdc_lld.o (symbol from plugin)
                                                  build/obj/stm32_isr.o (symbol from plugin)
sdc_lld_set_bus_mode                              build/obj/hal_sdc_lld.o (symbol from plugin)
                                                  build/obj/hal_sdc.o (symbol from plugin)
sdc_lld_set_data_clk                              build/obj/hal_sdc_lld.o (symbol from plugin)
                                                  build/obj/hal_sdc.o (symbol from plugin)
sdc_lld_start                                     build/obj/hal_sdc_lld.o (symbol from plugin)
                                                  build/obj/hal_sdc.o (symbol from plugin)
sdc_lld_start_clk                                 build/obj/hal_sdc_lld.o (symbol from plugin)
                                                  build/obj/hal_sdc.o (symbol from plugin)
sdc_lld_stop                                      build/obj/hal_sdc_lld.o (symbol from plugin)
                                                  build/obj/hal_sdc.o (symbol from plugin)
sdc_lld_stop_clk                                  build/obj/hal_sdc_lld.o (symbol from plugin)
                                                  build/obj/hal_sdc.o (symbol from plugin)
sdc_lld_sync                                      build/obj/hal_sdc_lld.o (symbol from plugin)
                                                  build/obj/hal_sdc.o (symbol from plugin)
sdc_lld_write                                     build/obj/hal_sdc_lld.o (symbol from plugin)
                                                  build/obj/hal_sdc.o (symbol from plugin)
sdc_lld_write_aligned                             build/obj/hal_sdc_lld.o (symbol from plugin)
sduConfigureHookI                                 build/obj/hal_serial_usb.o (symbol from plugin)
                                                  build/obj/usb_serial.o (symbol from plugin)
sduControl                                        build/obj/hal_serial_usb.o (symbol from plugin)
sduDataReceived                                   build/obj/hal_serial_usb.o (symbol from plugin)
                                                  build/obj/usb_serial.o (symbol from plugin)
sduDataTransmitted                                build/obj/hal_serial_usb.o (symbol from plugin)
                                                  build/obj/usb_serial.o (symbol from plugin)
sduInit                                           build/obj/hal_serial_usb.o (symbol from plugin)
                                                  build/obj/hal.o (symbol from plugin)
sduInterruptTransmitted                           build/obj/hal_serial_usb.o (symbol from plugin)
                                                  build/obj/usb_serial.o (symbol from plugin)
sduObjectInit                                     build/obj/hal_serial_usb.o (symbol from plugin)
                                                  build/obj/usb_serial.o (symbol from plugin)
sduRequestsHook                                   build/obj/hal_serial_usb.o (symbol from plugin)
                                                  build/obj/usb_serial.o (symbol from plugin)
sduSOFHookI                                       build/obj/hal_serial_usb.o (symbol from plugin)
                                                  build/obj/usb_serial.o (symbol from plugin)
sduStart                                          build/obj/hal_serial_usb.o (symbol from plugin)
                                                  build/obj/usb_serial.o (symbol from plugin)
sduStop                                           build/obj/hal_serial_usb.o (symbol from plugin)
sduSuspendHookI                                   build/obj/hal_serial_usb.o (symbol from plugin)
                                                  build/obj/usb_serial.o (symbol from plugin)
sduWakeupHookI                                    build/obj/hal_serial_usb.o (symbol from plugin)
                                                  build/obj/usb_serial.o (symbol from plugin)
setlocale                                         /opt/gcc-arm-none-eabi-10-2020-q4-major/bin/../lib/gcc/arm-none-eabi/10.2.1/../../../../arm-none-eabi/lib/thumb/v7e-m+dp/hard/libg.a(lib_a-locale.o)
signal                                            /opt/gcc-arm-none-eabi-10-2020-q4-major/bin/../lib/gcc/arm-none-eabi/10.2.1/../../../../arm-none-eabi/lib/thumb/v7e-m+dp/hard/libg.a(lib_a-signal.o)
snprintf                                          /opt/gcc-arm-none-eabi-10-2020-q4-major/bin/../lib/gcc/arm-none-eabi/10.2.1/../../../../arm-none-eabi/lib/thumb/v7e-m+dp/hard/libg.a(lib_a-snprintf.o)
                                                  /tmp/BPRL.elf.FE4VjG.ltrans0.ltrans.o
spiAbort                                          build/obj/hal_spi.o (symbol from plugin)
spiAbortI                                         build/obj/hal_spi.o (symbol from plugin)
spiAcquireBus                                     build/obj/hal_spi.o (symbol from plugin)
                                                  build/obj/ICM20602.o (symbol from plugin)
                                                  build/obj/ICM20948.o (symbol from plugin)
spiExchange                                       /tmp/BPRL.elf.FE4VjG.ltrans0.ltrans.o
                                                  build/obj/hal_spi.o (symbol from plugin)
                                                  /tmp/BPRL.elf.FE4VjG.ltrans1.ltrans.o
                                                  build/obj/ICM20602.o (symbol from plugin)
                                                  build/obj/ICM20948.o (symbol from plugin)
spiIgnore                                         build/obj/hal_spi.o (symbol from plugin)
spiInit                                           build/obj/hal_spi.o (symbol from plugin)
                                                  build/obj/hal.o (symbol from plugin)
spiObjectInit                                     build/obj/hal_spi.o (symbol from plugin)
                                                  build/obj/hal_spi_lld.o (symbol from plugin)
spiReceive                                        build/obj/hal_spi.o (symbol from plugin)
spiReleaseBus                                     build/obj/hal_spi.o (symbol from plugin)
                                                  build/obj/ICM20602.o (symbol from plugin)
                                                  build/obj/ICM20948.o (symbol from plugin)
spiSelect                                         /tmp/BPRL.elf.FE4VjG.ltrans0.ltrans.o
                                                  build/obj/hal_spi.o (symbol from plugin)
                                                  /tmp/BPRL.elf.FE4VjG.ltrans1.ltrans.o
                                                  build/obj/ICM20602.o (symbol from plugin)
                                                  build/obj/ICM20948.o (symbol from plugin)
spiSend                                           build/obj/hal_spi.o (symbol from plugin)
                                                  build/obj/ICM20602.o (symbol from plugin)
                                                  build/obj/ICM20948.o (symbol from plugin)
spiStart                                          build/obj/hal_spi.o (symbol from plugin)
                                                  build/obj/ICM20602.o (symbol from plugin)
                                                  build/obj/ICM20948.o (symbol from plugin)
spiStartExchange                                  build/obj/hal_spi.o (symbol from plugin)
spiStartIgnore                                    build/obj/hal_spi.o (symbol from plugin)
spiStartReceive                                   build/obj/hal_spi.o (symbol from plugin)
spiStartSend                                      build/obj/hal_spi.o (symbol from plugin)
spiStop                                           build/obj/hal_spi.o (symbol from plugin)
spiUnselect                                       /tmp/BPRL.elf.FE4VjG.ltrans0.ltrans.o
                                                  build/obj/hal_spi.o (symbol from plugin)
                                                  /tmp/BPRL.elf.FE4VjG.ltrans1.ltrans.o
                                                  build/obj/ICM20602.o (symbol from plugin)
                                                  build/obj/ICM20948.o (symbol from plugin)
spi_drv_init()                                    build/obj/SPI.o (symbol from plugin)
                                                  build/obj/threads.o (symbol from plugin)
spi_lld_abort                                     build/obj/hal_spi_lld.o (symbol from plugin)
                                                  build/obj/hal_spi.o (symbol from plugin)
spi_lld_exchange                                  build/obj/hal_spi_lld.o (symbol from plugin)
                                                  build/obj/hal_spi.o (symbol from plugin)
spi_lld_ignore                                    build/obj/hal_spi_lld.o (symbol from plugin)
                                                  build/obj/hal_spi.o (symbol from plugin)
spi_lld_init                                      build/obj/hal_spi_lld.o (symbol from plugin)
                                                  build/obj/hal_spi.o (symbol from plugin)
spi_lld_polled_exchange                           build/obj/hal_spi_lld.o (symbol from plugin)
spi_lld_receive                                   build/obj/hal_spi_lld.o (symbol from plugin)
                                                  build/obj/hal_spi.o (symbol from plugin)
spi_lld_send                                      build/obj/hal_spi_lld.o (symbol from plugin)
                                                  build/obj/hal_spi.o (symbol from plugin)
spi_lld_start                                     /tmp/BPRL.elf.FE4VjG.ltrans0.ltrans.o
                                                  build/obj/hal_spi_lld.o (symbol from plugin)
                                                  /tmp/BPRL.elf.FE4VjG.ltrans1.ltrans.o
                                                  build/obj/hal_spi.o (symbol from plugin)
spi_lld_stop                                      build/obj/hal_spi_lld.o (symbol from plugin)
                                                  build/obj/hal_spi.o (symbol from plugin)
sqrtf                                             /opt/gcc-arm-none-eabi-10-2020-q4-major/bin/../lib/gcc/arm-none-eabi/10.2.1/../../../../arm-none-eabi/lib/thumb/v7e-m+dp/hard/libm.a(lib_a-wf_sqrt.o)
                                                  /tmp/BPRL.elf.FE4VjG.ltrans0.ltrans.o
                                                  build/obj/EKF.o (symbol from plugin)
                                                  build/obj/math.o (symbol from plugin)
stGetAlarm                                        build/obj/hal_st.o (symbol from plugin)
stGetCounter                                      build/obj/hal_st.o (symbol from plugin)
                                                  build/obj/PID.o (symbol from plugin)
                                                  build/obj/threads.o (symbol from plugin)
                                                  build/obj/chthreads.o (symbol from plugin)
                                                  build/obj/chinstances.o (symbol from plugin)
                                                  build/obj/chvt.o (symbol from plugin)
                                                  build/obj/chtrace.o (symbol from plugin)
                                                  build/obj/hal_can_lld.o (symbol from plugin)
stInit                                            build/obj/hal_st.o (symbol from plugin)
                                                  build/obj/hal.o (symbol from plugin)
stIsAlarmActive                                   build/obj/hal_st.o (symbol from plugin)
stSetAlarm                                        build/obj/hal_st.o (symbol from plugin)
                                                  build/obj/chvt.o (symbol from plugin)
stStartAlarm                                      build/obj/hal_st.o (symbol from plugin)
                                                  build/obj/chvt.o (symbol from plugin)
stStopAlarm                                       build/obj/hal_st.o (symbol from plugin)
                                                  build/obj/chvt.o (symbol from plugin)
st_lld_init                                       build/obj/hal_st_lld.o (symbol from plugin)
                                                  build/obj/hal_st.o (symbol from plugin)
st_lld_serve_interrupt                            build/obj/hal_st_lld.o (symbol from plugin)
                                                  build/obj/stm32_isr.o (symbol from plugin)
state_mtx                                         build/obj/threads.o (symbol from plugin)
stm32_bdma.c.2e18f8ef                             /tmp/ccEIaXQH.debug.temp.o
stm32_clock_init                                  build/obj/hal_lld.o (symbol from plugin)
stm32_dma.c.7e48d5ab                              /tmp/ccGhAOcz.debug.temp.o
                                                  /tmp/BPRL.elf.FE4VjG.ltrans0.ltrans.o
stm32_exti.c.9ee5c558                             /tmp/ccaq3SJe.debug.temp.o
stm32_isr.c.bd0353dd                              /tmp/ccFIp4O1.debug.temp.o
                                                  /tmp/BPRL.elf.FE4VjG.ltrans0.ltrans.o
stm32_mdma.c.14e38ac4                             /tmp/ccP1kPTL.debug.temp.o
strchr                                            /opt/gcc-arm-none-eabi-10-2020-q4-major/bin/../lib/gcc/arm-none-eabi/10.2.1/../../../../arm-none-eabi/lib/thumb/v7e-m+dp/hard/libg.a(lib_a-strchr.o)
                                                  /tmp/BPRL.elf.FE4VjG.ltrans0.ltrans.o
strcmp                                            /opt/gcc-arm-none-eabi-10-2020-q4-major/bin/../lib/gcc/arm-none-eabi/10.2.1/../../../../arm-none-eabi/lib/thumb/v7e-m+dp/hard/libg.a(lib_a-strcmp.o)
                                                  /opt/gcc-arm-none-eabi-10-2020-q4-major/bin/../lib/gcc/arm-none-eabi/10.2.1/../../../../arm-none-eabi/lib/thumb/v7e-m+dp/hard/libg.a(lib_a-locale.o)
strlen                                            /opt/gcc-arm-none-eabi-10-2020-q4-major/bin/../lib/gcc/arm-none-eabi/10.2.1/../../../../arm-none-eabi/lib/thumb/v7e-m+dp/hard/libg.a(lib_a-strlen.o)
                                                  /opt/gcc-arm-none-eabi-10-2020-q4-major/bin/../lib/gcc/arm-none-eabi/10.2.1/../../../../arm-none-eabi/lib/thumb/v7e-m+dp/hard/libg.a(lib_a-vfiprintf.o)
                                                  /opt/gcc-arm-none-eabi-10-2020-q4-major/bin/../lib/gcc/arm-none-eabi/10.2.1/../../../../arm-none-eabi/lib/thumb/v7e-m+dp/hard/libg.a(lib_a-svfiprintf.o)
                                                  /opt/gcc-arm-none-eabi-10-2020-q4-major/bin/../lib/gcc/arm-none-eabi/10.2.1/../../../../arm-none-eabi/lib/thumb/v7e-m+dp/hard/libg.a(lib_a-svfprintf.o)
strncpy                                           /opt/gcc-arm-none-eabi-10-2020-q4-major/bin/../lib/gcc/arm-none-eabi/10.2.1/../../../../arm-none-eabi/lib/thumb/v7e-m+dp/hard/libg.a(lib_a-strncpy.o)
                                                  /opt/gcc-arm-none-eabi-10-2020-q4-major/bin/../lib/gcc/arm-none-eabi/10.2.1/../../../../arm-none-eabi/lib/thumb/v7e-m+dp/hard/libg.a(lib_a-vfiprintf.o)
                                                  /opt/gcc-arm-none-eabi-10-2020-q4-major/bin/../lib/gcc/arm-none-eabi/10.2.1/../../../../arm-none-eabi/lib/thumb/v7e-m+dp/hard/libg.a(lib_a-svfiprintf.o)
                                                  /opt/gcc-arm-none-eabi-10-2020-q4-major/bin/../lib/gcc/arm-none-eabi/10.2.1/../../../../arm-none-eabi/lib/thumb/v7e-m+dp/hard/libg.a(lib_a-svfprintf.o)
                                                  /tmp/BPRL.elf.FE4VjG.ltrans0.ltrans.o
sync_fs.isra.0                                    /tmp/BPRL.elf.FE4VjG.ltrans1.ltrans.o
                                                  /tmp/BPRL.elf.FE4VjG.ltrans0.ltrans.o
sync_window.part.0.lto_priv.0                     /tmp/BPRL.elf.FE4VjG.ltrans0.ltrans.o
                                                  /tmp/BPRL.elf.FE4VjG.ltrans1.ltrans.o
syscalls.c.60692434                               /tmp/cczvTYYv.debug.temp.o
                                                  /tmp/BPRL.elf.FE4VjG.ltrans0.ltrans.o
threads.cpp.50a32757                              /tmp/cc1R7395.debug.temp.o
                                                  /tmp/BPRL.elf.FE4VjG.ltrans0.ltrans.o
threads_start(ThreadRates const&)                 build/obj/threads.o (symbol from plugin)
                                                  build/obj/main.o (symbol from plugin)
trace_next.constprop.0                            /tmp/BPRL.elf.FE4VjG.ltrans0.ltrans.o
                                                  /tmp/BPRL.elf.FE4VjG.ltrans1.ltrans.o
usbDisableEndpointsI                              build/obj/hal_usb.o (symbol from plugin)
usbInit                                           build/obj/hal_usb.o (symbol from plugin)
                                                  build/obj/hal.o (symbol from plugin)
usbInitEndpointI                                  build/obj/hal_usb.o (symbol from plugin)
                                                  build/obj/usb_serial.o (symbol from plugin)
usbObjectInit                                     build/obj/hal_usb.o (symbol from plugin)
                                                  build/obj/hal_usb_lld.o (symbol from plugin)
usbStallReceiveI                                  build/obj/hal_usb.o (symbol from plugin)
usbStallTransmitI                                 build/obj/hal_usb.o (symbol from plugin)
usbStart                                          build/obj/hal_usb.o (symbol from plugin)
                                                  build/obj/usb_serial.o (symbol from plugin)
usbStartReceiveI                                  build/obj/hal_usb.o (symbol from plugin)
                                                  build/obj/hal_serial_usb.o (symbol from plugin)
usbStartTransmitI                                 build/obj/hal_usb.o (symbol from plugin)
                                                  build/obj/hal_serial_usb.o (symbol from plugin)
usbStop                                           build/obj/hal_usb.o (symbol from plugin)
usbWakeupHost                                     build/obj/hal_usb.o (symbol from plugin)
usb_lld_clear_in                                  build/obj/hal_usb_lld.o (symbol from plugin)
                                                  build/obj/hal_usb.o (symbol from plugin)
usb_lld_clear_out                                 build/obj/hal_usb_lld.o (symbol from plugin)
                                                  build/obj/hal_usb.o (symbol from plugin)
usb_lld_disable_endpoints                         build/obj/hal_usb_lld.o (symbol from plugin)
                                                  build/obj/hal_usb.o (symbol from plugin)
usb_lld_get_status_in                             build/obj/hal_usb_lld.o (symbol from plugin)
                                                  build/obj/hal_usb.o (symbol from plugin)
usb_lld_get_status_out                            build/obj/hal_usb_lld.o (symbol from plugin)
                                                  build/obj/hal_usb.o (symbol from plugin)
usb_lld_init                                      build/obj/hal_usb_lld.o (symbol from plugin)
                                                  build/obj/hal_usb.o (symbol from plugin)
usb_lld_init_endpoint                             build/obj/hal_usb_lld.o (symbol from plugin)
                                                  build/obj/hal_usb.o (symbol from plugin)
usb_lld_read_setup                                build/obj/hal_usb_lld.o (symbol from plugin)
                                                  build/obj/hal_usb.o (symbol from plugin)
usb_lld_reset                                     build/obj/hal_usb_lld.o (symbol from plugin)
                                                  build/obj/hal_usb.o (symbol from plugin)
usb_lld_set_address                               build/obj/hal_usb_lld.o (symbol from plugin)
                                                  build/obj/hal_usb.o (symbol from plugin)
usb_lld_stall_in                                  build/obj/hal_usb_lld.o (symbol from plugin)
                                                  build/obj/hal_usb.o (symbol from plugin)
usb_lld_stall_out                                 build/obj/hal_usb_lld.o (symbol from plugin)
                                                  build/obj/hal_usb.o (symbol from plugin)
usb_lld_start                                     build/obj/hal_usb_lld.o (symbol from plugin)
                                                  build/obj/hal_usb.o (symbol from plugin)
usb_lld_start_in                                  build/obj/hal_usb_lld.o (symbol from plugin)
                                                  build/obj/hal_usb.o (symbol from plugin)
usb_lld_start_out                                 build/obj/hal_usb_lld.o (symbol from plugin)
                                                  build/obj/hal_usb.o (symbol from plugin)
usb_lld_stop                                      build/obj/hal_usb_lld.o (symbol from plugin)
                                                  build/obj/hal_usb.o (symbol from plugin)
usb_serial.cpp.ec9e2895                           /tmp/cclfOzEx.debug.temp.o
usb_serial_init                                   build/obj/usb_serial.o (symbol from plugin)
vfiprintf                                         /opt/gcc-arm-none-eabi-10-2020-q4-major/bin/../lib/gcc/arm-none-eabi/10.2.1/../../../../arm-none-eabi/lib/thumb/v7e-m+dp/hard/libg.a(lib_a-vfiprintf.o)
void mat_add<16>(float const (*) [16], float const (*) [16], float (*) [16]) build/obj/EKF.o (symbol from plugin)
void mat_mul<16>(float const (*) [16], float const (*) [16], float (*) [16]) build/obj/EKF.o (symbol from plugin)
void mat_trans<16>(float const (*) [16], float (*) [16]) build/obj/EKF.o (symbol from plugin)
wcrtomb                                           /opt/gcc-arm-none-eabi-10-2020-q4-major/bin/../lib/gcc/arm-none-eabi/10.2.1/../../../../arm-none-eabi/lib/thumb/v7e-m+dp/hard/libg.a(lib_a-wcrtomb.o)
