
build/ch.elf:     file format elf32-littlearm


Disassembly of section .vectors:

08000000 <__vectors_base__>:
 8000000:	20000800 	.word	0x20000800
 8000004:	080003fd 	.word	0x080003fd
 8000008:	080003ff 	.word	0x080003ff
 800000c:	080003ff 	.word	0x080003ff
 8000010:	080003ff 	.word	0x080003ff
 8000014:	080003ff 	.word	0x080003ff
 8000018:	080003ff 	.word	0x080003ff
 800001c:	080003ff 	.word	0x080003ff
 8000020:	080003ff 	.word	0x080003ff
 8000024:	080003ff 	.word	0x080003ff
 8000028:	080003ff 	.word	0x080003ff
 800002c:	08000e71 	.word	0x08000e71
 8000030:	080003ff 	.word	0x080003ff
 8000034:	080003ff 	.word	0x080003ff
 8000038:	080003ff 	.word	0x080003ff
 800003c:	080003ff 	.word	0x080003ff
 8000040:	080003ff 	.word	0x080003ff
 8000044:	080003ff 	.word	0x080003ff
 8000048:	080003ff 	.word	0x080003ff
 800004c:	080003ff 	.word	0x080003ff
 8000050:	080003ff 	.word	0x080003ff
 8000054:	080003ff 	.word	0x080003ff
 8000058:	080003ff 	.word	0x080003ff
 800005c:	080003ff 	.word	0x080003ff
 8000060:	080003ff 	.word	0x080003ff
 8000064:	080003ff 	.word	0x080003ff
 8000068:	080003ff 	.word	0x080003ff
 800006c:	080003ff 	.word	0x080003ff
 8000070:	080003ff 	.word	0x080003ff
 8000074:	080003ff 	.word	0x080003ff
 8000078:	080003ff 	.word	0x080003ff
 800007c:	080003ff 	.word	0x080003ff
 8000080:	080003ff 	.word	0x080003ff
 8000084:	080003ff 	.word	0x080003ff
 8000088:	080003ff 	.word	0x080003ff
 800008c:	080003ff 	.word	0x080003ff
 8000090:	080003ff 	.word	0x080003ff
 8000094:	080003ff 	.word	0x080003ff
 8000098:	080003ff 	.word	0x080003ff
 800009c:	080003ff 	.word	0x080003ff
 80000a0:	080003ff 	.word	0x080003ff
 80000a4:	080003ff 	.word	0x080003ff
 80000a8:	080003ff 	.word	0x080003ff
 80000ac:	080003ff 	.word	0x080003ff
 80000b0:	08000be1 	.word	0x08000be1
 80000b4:	080003ff 	.word	0x080003ff
 80000b8:	080003ff 	.word	0x080003ff
 80000bc:	080003ff 	.word	0x080003ff
 80000c0:	080003ff 	.word	0x080003ff
 80000c4:	080003ff 	.word	0x080003ff
 80000c8:	080003ff 	.word	0x080003ff
 80000cc:	080003ff 	.word	0x080003ff
 80000d0:	080003ff 	.word	0x080003ff
 80000d4:	080003ff 	.word	0x080003ff
 80000d8:	080003ff 	.word	0x080003ff
 80000dc:	080003ff 	.word	0x080003ff
 80000e0:	080003ff 	.word	0x080003ff
 80000e4:	080003ff 	.word	0x080003ff
 80000e8:	080003ff 	.word	0x080003ff
 80000ec:	080003ff 	.word	0x080003ff
 80000f0:	080003ff 	.word	0x080003ff
 80000f4:	080003ff 	.word	0x080003ff
 80000f8:	080003ff 	.word	0x080003ff
 80000fc:	080003ff 	.word	0x080003ff
 8000100:	080003ff 	.word	0x080003ff
 8000104:	080003ff 	.word	0x080003ff
 8000108:	080003ff 	.word	0x080003ff
 800010c:	080003ff 	.word	0x080003ff
 8000110:	080003ff 	.word	0x080003ff
 8000114:	080003ff 	.word	0x080003ff
 8000118:	080003ff 	.word	0x080003ff
 800011c:	080003ff 	.word	0x080003ff
 8000120:	080003ff 	.word	0x080003ff
 8000124:	080003ff 	.word	0x080003ff
 8000128:	080003ff 	.word	0x080003ff
 800012c:	080003ff 	.word	0x080003ff
 8000130:	080003ff 	.word	0x080003ff
 8000134:	080003ff 	.word	0x080003ff
 8000138:	080003ff 	.word	0x080003ff
 800013c:	080003ff 	.word	0x080003ff
 8000140:	080003ff 	.word	0x080003ff
 8000144:	080003ff 	.word	0x080003ff
 8000148:	080003ff 	.word	0x080003ff
 800014c:	080003ff 	.word	0x080003ff
 8000150:	080003ff 	.word	0x080003ff
 8000154:	080003ff 	.word	0x080003ff
 8000158:	080003ff 	.word	0x080003ff
 800015c:	080003ff 	.word	0x080003ff
 8000160:	080003ff 	.word	0x080003ff
 8000164:	080003ff 	.word	0x080003ff
 8000168:	080003ff 	.word	0x080003ff
 800016c:	080003ff 	.word	0x080003ff
 8000170:	080003ff 	.word	0x080003ff
 8000174:	080003ff 	.word	0x080003ff
 8000178:	080003ff 	.word	0x080003ff
 800017c:	080003ff 	.word	0x080003ff
 8000180:	080003ff 	.word	0x080003ff
 8000184:	080003ff 	.word	0x080003ff
 8000188:	080003ff 	.word	0x080003ff
 800018c:	080003ff 	.word	0x080003ff
 8000190:	080003ff 	.word	0x080003ff
 8000194:	080003ff 	.word	0x080003ff
 8000198:	080003ff 	.word	0x080003ff
 800019c:	080003ff 	.word	0x080003ff
 80001a0:	080003ff 	.word	0x080003ff
 80001a4:	080003ff 	.word	0x080003ff
 80001a8:	080003ff 	.word	0x080003ff
 80001ac:	080003ff 	.word	0x080003ff
 80001b0:	080003ff 	.word	0x080003ff
 80001b4:	080003ff 	.word	0x080003ff
 80001b8:	080003ff 	.word	0x080003ff
 80001bc:	080003ff 	.word	0x080003ff
 80001c0:	080003ff 	.word	0x080003ff
 80001c4:	080003ff 	.word	0x080003ff
 80001c8:	080003ff 	.word	0x080003ff
 80001cc:	080003ff 	.word	0x080003ff
 80001d0:	080003ff 	.word	0x080003ff
 80001d4:	080003ff 	.word	0x080003ff
 80001d8:	080003ff 	.word	0x080003ff
 80001dc:	080003ff 	.word	0x080003ff
 80001e0:	080003ff 	.word	0x080003ff
 80001e4:	080003ff 	.word	0x080003ff
 80001e8:	080003ff 	.word	0x080003ff
 80001ec:	080003ff 	.word	0x080003ff
 80001f0:	080003ff 	.word	0x080003ff
 80001f4:	080003ff 	.word	0x080003ff
 80001f8:	080003ff 	.word	0x080003ff
 80001fc:	080003ff 	.word	0x080003ff
 8000200:	080003ff 	.word	0x080003ff
 8000204:	080003ff 	.word	0x080003ff
 8000208:	080003ff 	.word	0x080003ff
 800020c:	080003ff 	.word	0x080003ff
 8000210:	080003ff 	.word	0x080003ff
 8000214:	080003ff 	.word	0x080003ff
 8000218:	080003ff 	.word	0x080003ff
 800021c:	080003ff 	.word	0x080003ff
 8000220:	080003ff 	.word	0x080003ff
 8000224:	080003ff 	.word	0x080003ff
 8000228:	080003ff 	.word	0x080003ff
 800022c:	080003ff 	.word	0x080003ff
 8000230:	080003ff 	.word	0x080003ff
 8000234:	080003ff 	.word	0x080003ff
 8000238:	080003ff 	.word	0x080003ff
 800023c:	080003ff 	.word	0x080003ff
 8000240:	080003ff 	.word	0x080003ff
 8000244:	080003ff 	.word	0x080003ff
 8000248:	080003ff 	.word	0x080003ff
 800024c:	080003ff 	.word	0x080003ff
 8000250:	080003ff 	.word	0x080003ff
 8000254:	080003ff 	.word	0x080003ff
 8000258:	080003ff 	.word	0x080003ff
 800025c:	080003ff 	.word	0x080003ff
 8000260:	080003ff 	.word	0x080003ff
 8000264:	080003ff 	.word	0x080003ff
 8000268:	080003ff 	.word	0x080003ff
 800026c:	080003ff 	.word	0x080003ff
 8000270:	080003ff 	.word	0x080003ff
 8000274:	080003ff 	.word	0x080003ff
 8000278:	080003ff 	.word	0x080003ff
 800027c:	080003ff 	.word	0x080003ff
 8000280:	080003ff 	.word	0x080003ff
 8000284:	080003ff 	.word	0x080003ff
 8000288:	080003ff 	.word	0x080003ff
 800028c:	080003ff 	.word	0x080003ff
 8000290:	080003ff 	.word	0x080003ff
 8000294:	080003ff 	.word	0x080003ff
 8000298:	080003ff 	.word	0x080003ff
 800029c:	080003ff 	.word	0x080003ff
 80002a0:	080003ff 	.word	0x080003ff
 80002a4:	080003ff 	.word	0x080003ff
 80002a8:	080003ff 	.word	0x080003ff
 80002ac:	080003ff 	.word	0x080003ff
 80002b0:	080003ff 	.word	0x080003ff
 80002b4:	080003ff 	.word	0x080003ff
 80002b8:	080003ff 	.word	0x080003ff
 80002bc:	080003ff 	.word	0x080003ff
 80002c0:	080003ff 	.word	0x080003ff
 80002c4:	080003ff 	.word	0x080003ff
 80002c8:	080003ff 	.word	0x080003ff
 80002cc:	080003ff 	.word	0x080003ff
 80002d0:	080003ff 	.word	0x080003ff
 80002d4:	080003ff 	.word	0x080003ff
 80002d8:	080003ff 	.word	0x080003ff
 80002dc:	080003ff 	.word	0x080003ff

Disassembly of section .text:

080002e0 <_crt0_entry>:
                .align  2
                .thumb_func
                .global _crt0_entry
_crt0_entry:
                /* Interrupts are globally masked initially.*/
                cpsid   i
 80002e0:	b672      	cpsid	i

#if CRT0_FORCE_MSP_INIT == TRUE
                /* MSP stack pointers initialization.*/
                ldr     r0, =__main_stack_end__
 80002e2:	4837      	ldr	r0, [pc, #220]	; (80003c0 <endfiniloop+0x4>)
                msr     MSP, r0
 80002e4:	f380 8808 	msr	MSP, r0
#endif

                /* PSP stack pointers initialization.*/
                ldr     r0, =__process_stack_end__
 80002e8:	4836      	ldr	r0, [pc, #216]	; (80003c4 <endfiniloop+0x8>)
                msr     PSP, r0
 80002ea:	f380 8809 	msr	PSP, r0

#if CRT0_VTOR_INIT == TRUE
                /* Initial VTOR position enforced.*/
                ldr     r0, =_vectors
 80002ee:	4836      	ldr	r0, [pc, #216]	; (80003c8 <endfiniloop+0xc>)
                ldr     r1, =SCB_VTOR
 80002f0:	4936      	ldr	r1, [pc, #216]	; (80003cc <endfiniloop+0x10>)
                str     r0, [r1]
 80002f2:	6008      	str	r0, [r1, #0]
#endif

#if CRT0_INIT_FPU == TRUE
                /* FPU FPCCR initialization.*/
                movw    r0, #CRT0_FPCCR_INIT & 0xFFFF
 80002f4:	f240 0000 	movw	r0, #0
                movt    r0, #CRT0_FPCCR_INIT >> 16
 80002f8:	f2cc 0000 	movt	r0, #49152	; 0xc000
                movw    r1, #SCB_FPCCR & 0xFFFF
 80002fc:	f64e 7134 	movw	r1, #61236	; 0xef34
                movt    r1, #SCB_FPCCR >> 16
 8000300:	f2ce 0100 	movt	r1, #57344	; 0xe000
                str     r0, [r1]
 8000304:	6008      	str	r0, [r1, #0]
                dsb
 8000306:	f3bf 8f4f 	dsb	sy
                isb
 800030a:	f3bf 8f6f 	isb	sy

                /* CPACR initialization.*/
                movw    r0, #CRT0_CPACR_INIT & 0xFFFF
 800030e:	f240 0000 	movw	r0, #0
                movt    r0, #CRT0_CPACR_INIT >> 16
 8000312:	f2c0 00f0 	movt	r0, #240	; 0xf0
                movw    r1, #SCB_CPACR & 0xFFFF
 8000316:	f64e 5188 	movw	r1, #60808	; 0xed88
                movt    r1, #SCB_CPACR >> 16
 800031a:	f2ce 0100 	movt	r1, #57344	; 0xe000
                str     r0, [r1]
 800031e:	6008      	str	r0, [r1, #0]
                dsb
 8000320:	f3bf 8f4f 	dsb	sy
                isb
 8000324:	f3bf 8f6f 	isb	sy

                /* FPU FPSCR initially cleared.*/
                mov     r0, #0
 8000328:	f04f 0000 	mov.w	r0, #0
                vmsr    FPSCR, r0
 800032c:	eee1 0a10 	vmsr	fpscr, r0

                /* FPU FPDSCR initially cleared.*/
                movw    r1, #SCB_FPDSCR & 0xFFFF
 8000330:	f64e 713c 	movw	r1, #61244	; 0xef3c
                movt    r1, #SCB_FPDSCR >> 16
 8000334:	f2ce 0100 	movt	r1, #57344	; 0xe000
                str     r0, [r1]
 8000338:	6008      	str	r0, [r1, #0]

                /* Enforcing FPCA bit in the CONTROL register.*/
                movs    r0, #CRT0_CONTROL_INIT | CONTROL_FPCA
 800033a:	2006      	movs	r0, #6
#else
                movs    r0, #CRT0_CONTROL_INIT
#endif

                /* CONTROL register initialization as configured.*/
                msr     CONTROL, r0
 800033c:	f380 8814 	msr	CONTROL, r0
                isb
 8000340:	f3bf 8f6f 	isb	sy

#if CRT0_INIT_CORE == TRUE
                /* Core initialization.*/
                bl      __cpu_init
 8000344:	f000 fb8c 	bl	8000a60 <__cpu_init>
#endif

                /* Early initialization.*/
                bl      __early_init
 8000348:	f000 fbca 	bl	8000ae0 <__early_init>

#if CRT0_INIT_STACKS == TRUE
                ldr     r0, =CRT0_STACKS_FILL_PATTERN
 800034c:	f04f 3055 	mov.w	r0, #1431655765	; 0x55555555
                /* Main Stack initialization. Note, it assumes that the
                   stack size is a multiple of 4 so the linker file must
                   ensure this.*/
                ldr     r1, =__main_stack_base__
 8000350:	491f      	ldr	r1, [pc, #124]	; (80003d0 <endfiniloop+0x14>)
                ldr     r2, =__main_stack_end__
 8000352:	4a1b      	ldr	r2, [pc, #108]	; (80003c0 <endfiniloop+0x4>)

08000354 <msloop>:
msloop:
                cmp     r1, r2
 8000354:	4291      	cmp	r1, r2
                itt     lo
 8000356:	bf3c      	itt	cc
                strlo   r0, [r1], #4
 8000358:	f841 0b04 	strcc.w	r0, [r1], #4
                blo     msloop
 800035c:	e7fa      	bcc.n	8000354 <msloop>

                /* Process Stack initialization. Note, it assumes that the
                   stack size is a multiple of 4 so the linker file must
                   ensure this.*/
                ldr     r1, =__process_stack_base__
 800035e:	491d      	ldr	r1, [pc, #116]	; (80003d4 <endfiniloop+0x18>)
                ldr     r2, =__process_stack_end__
 8000360:	4a18      	ldr	r2, [pc, #96]	; (80003c4 <endfiniloop+0x8>)

08000362 <psloop>:
psloop:
                cmp     r1, r2
 8000362:	4291      	cmp	r1, r2
                itt     lo
 8000364:	bf3c      	itt	cc
                strlo   r0, [r1], #4
 8000366:	f841 0b04 	strcc.w	r0, [r1], #4
                blo     psloop
 800036a:	e7fa      	bcc.n	8000362 <psloop>

#if CRT0_INIT_DATA == TRUE
                /* Data initialization. Note, it assumes that the DATA
                   size is a multiple of 4 so the linker file must ensure
                   this.*/
                ldr     r1, =__textdata_base__
 800036c:	491a      	ldr	r1, [pc, #104]	; (80003d8 <endfiniloop+0x1c>)
                ldr     r2, =__data_base__
 800036e:	4a1b      	ldr	r2, [pc, #108]	; (80003dc <endfiniloop+0x20>)
                ldr     r3, =__data_end__
 8000370:	4b1b      	ldr	r3, [pc, #108]	; (80003e0 <endfiniloop+0x24>)

08000372 <dloop>:
dloop:
                cmp     r2, r3
 8000372:	429a      	cmp	r2, r3
                ittt    lo
 8000374:	bf3e      	ittt	cc
                ldrlo   r0, [r1], #4
 8000376:	f851 0b04 	ldrcc.w	r0, [r1], #4
                strlo   r0, [r2], #4
 800037a:	f842 0b04 	strcc.w	r0, [r2], #4
                blo     dloop
 800037e:	e7f8      	bcc.n	8000372 <dloop>

#if CRT0_INIT_BSS == TRUE
                /* BSS initialization. Note, it assumes that the BSS
                   size is a multiple of 4 so the linker file must ensure
                   this.*/
                movs    r0, #0
 8000380:	2000      	movs	r0, #0
                ldr     r1, =__bss_base__
 8000382:	4918      	ldr	r1, [pc, #96]	; (80003e4 <endfiniloop+0x28>)
                ldr     r2, =__bss_end__
 8000384:	4a18      	ldr	r2, [pc, #96]	; (80003e8 <endfiniloop+0x2c>)

08000386 <bloop>:
bloop:
                cmp     r1, r2
 8000386:	4291      	cmp	r1, r2
                itt     lo
 8000388:	bf3c      	itt	cc
                strlo   r0, [r1], #4
 800038a:	f841 0b04 	strcc.w	r0, [r1], #4
                blo     bloop
 800038e:	e7fa      	bcc.n	8000386 <bloop>
#endif

#if CRT0_INIT_RAM_AREAS == TRUE
                /* RAM areas initialization.*/
                bl      __init_ram_areas
 8000390:	f000 fbbe 	bl	8000b10 <__init_ram_areas>
#endif

                /* Late initialization..*/
                bl      __late_init
 8000394:	f000 fbac 	bl	8000af0 <__late_init>

#if CRT0_CALL_CONSTRUCTORS == TRUE
                /* Constructors invocation.*/
                ldr     r4, =__init_array_base__
 8000398:	4c14      	ldr	r4, [pc, #80]	; (80003ec <endfiniloop+0x30>)
                ldr     r5, =__init_array_end__
 800039a:	4d15      	ldr	r5, [pc, #84]	; (80003f0 <endfiniloop+0x34>)

0800039c <initloop>:
initloop:
                cmp     r4, r5
 800039c:	42ac      	cmp	r4, r5
                bge     endinitloop
 800039e:	da03      	bge.n	80003a8 <endinitloop>
                ldr     r1, [r4], #4
 80003a0:	f854 1b04 	ldr.w	r1, [r4], #4
                blx     r1
 80003a4:	4788      	blx	r1
                b       initloop
 80003a6:	e7f9      	b.n	800039c <initloop>

080003a8 <endinitloop>:
endinitloop:
#endif

                /* Main program invocation, r0 contains the returned value.*/
                bl      main
 80003a8:	f000 fd72 	bl	8000e90 <main>

#if CRT0_CALL_DESTRUCTORS == TRUE
                /* Destructors invocation.*/
                ldr     r4, =__fini_array_base__
 80003ac:	4c11      	ldr	r4, [pc, #68]	; (80003f4 <endfiniloop+0x38>)
                ldr     r5, =__fini_array_end__
 80003ae:	4d12      	ldr	r5, [pc, #72]	; (80003f8 <endfiniloop+0x3c>)

080003b0 <finiloop>:
finiloop:
                cmp     r4, r5
 80003b0:	42ac      	cmp	r4, r5
                bge     endfiniloop
 80003b2:	da03      	bge.n	80003bc <endfiniloop>
                ldr     r1, [r4], #4
 80003b4:	f854 1b04 	ldr.w	r1, [r4], #4
                blx     r1
 80003b8:	4788      	blx	r1
                b       finiloop
 80003ba:	e7f9      	b.n	80003b0 <finiloop>

080003bc <endfiniloop>:
endfiniloop:
#endif

                /* Branching to the defined exit handler.*/
                b       __default_exit
 80003bc:	f000 bba0 	b.w	8000b00 <__default_exit>
                ldr     r0, =__main_stack_end__
 80003c0:	20000800 	.word	0x20000800
                ldr     r0, =__process_stack_end__
 80003c4:	20001000 	.word	0x20001000
                ldr     r0, =_vectors
 80003c8:	08000000 	.word	0x08000000
                ldr     r1, =SCB_VTOR
 80003cc:	e000ed08 	.word	0xe000ed08
                ldr     r1, =__main_stack_base__
 80003d0:	20000000 	.word	0x20000000
                ldr     r1, =__process_stack_base__
 80003d4:	20000800 	.word	0x20000800
                ldr     r1, =__textdata_base__
 80003d8:	080013f8 	.word	0x080013f8
                ldr     r2, =__data_base__
 80003dc:	24000000 	.word	0x24000000
                ldr     r3, =__data_end__
 80003e0:	24000000 	.word	0x24000000
                ldr     r1, =__bss_base__
 80003e4:	24000000 	.word	0x24000000
                ldr     r2, =__bss_end__
 80003e8:	24001e88 	.word	0x24001e88
                ldr     r4, =__init_array_base__
 80003ec:	080002e0 	.word	0x080002e0
                ldr     r5, =__init_array_end__
 80003f0:	080002e0 	.word	0x080002e0
                ldr     r4, =__fini_array_base__
 80003f4:	080002e0 	.word	0x080002e0
                ldr     r5, =__fini_array_end__
 80003f8:	080002e0 	.word	0x080002e0

080003fc <Reset_Handler>:

        .align      2
        .thumb_func
        .weak       Reset_Handler
Reset_Handler:
         b          _crt0_entry
 80003fc:	e770      	b.n	80002e0 <_crt0_entry>

080003fe <BusFault_Handler>:
        .thumb_func
Vector3F8:
        .thumb_func
Vector3FC:
#endif
        bl          _unhandled_exception
 80003fe:	f000 f800 	bl	8000402 <_unhandled_exception>

08000402 <_unhandled_exception>:

        .thumb_func
        .weak       _unhandled_exception
_unhandled_exception:
.stay:
        b           .stay
 8000402:	e7fe      	b.n	8000402 <_unhandled_exception>

08000404 <__port_switch>:
 * Performs a context switch between two threads.
 *--------------------------------------------------------------------------*/
                .thumb_func
                .globl  __port_switch
__port_switch:
                push    {r4, r5, r6, r7, r8, r9, r10, r11, lr}
 8000404:	e92d 4ff0 	stmdb	sp!, {r4, r5, r6, r7, r8, r9, sl, fp, lr}
#if CORTEX_USE_FPU
                /* Saving FPU context.*/
                vpush   {s16-s31}
 8000408:	ed2d 8a10 	vpush	{s16-s31}
#if PORT_SWITCHED_REGIONS_NUMBER == 4
                push    {r4, r5, r6, r7, r8, r9, r10, r11}
#endif
#endif

                str     sp, [r1, #CONTEXT_OFFSET]
 800040c:	f8c1 d00c 	str.w	sp, [r1, #12]
                /* Workaround for ARM errata 752419, only applied if
                   condition exists for it to be triggered.*/
                ldr     r3, [r0, #CONTEXT_OFFSET]
                mov     sp, r3
#else
                ldr     sp, [r0, #CONTEXT_OFFSET]
 8000410:	f8d0 d00c 	ldr.w	sp, [r0, #12]
#endif
#endif

#if CORTEX_USE_FPU
                /* Restoring FPU context.*/
                vpop    {s16-s31}
 8000414:	ecbd 8a10 	vpop	{s16-s31}
#endif
                pop     {r4, r5, r6, r7, r8, r9, r10, r11, pc}
 8000418:	e8bd 8ff0 	ldmia.w	sp!, {r4, r5, r6, r7, r8, r9, sl, fp, pc}

0800041c <__port_thread_start>:
                bl      __stats_stop_measure_crit_thd
#endif
#if CORTEX_SIMPLIFIED_PRIORITY
                cpsie   i
#else
                movs    r3, #0              /* CORTEX_BASEPRI_DISABLED */
 800041c:	2300      	movs	r3, #0
                msr     BASEPRI, r3
 800041e:	f383 8811 	msr	BASEPRI, r3
#endif
                mov     r0, r5
 8000422:	4628      	mov	r0, r5
                blx     r4
 8000424:	47a0      	blx	r4
                movs    r0, #0              /* MSG_OK */
 8000426:	2000      	movs	r0, #0
                bl      chThdExit
 8000428:	f000 fcf2 	bl	8000e10 <chThdExit>

0800042c <.zombies>:
.zombies:       b       .zombies
 800042c:	e7fe      	b.n	800042c <.zombies>

0800042e <__port_switch_from_isr>:
                bl      __stats_start_measure_crit_thd
#endif
#if CH_DBG_SYSTEM_STATE_CHECK
                bl      __dbg_check_lock
#endif
                bl      chSchDoPreemption
 800042e:	f000 fcbf 	bl	8000db0 <chSchDoPreemption>

08000432 <__port_exit_from_isr>:
                movt    r3, #:upper16:SCB_ICSR
                mov     r2, ICSR_PENDSVSET
                str     r2, [r3, #0]
                cpsie   i
#else /* !CORTEX_SIMPLIFIED_PRIORITY */
                svc     #0
 8000432:	df00      	svc	0
#endif /* !CORTEX_SIMPLIFIED_PRIORITY */
.L1:            b       .L1
 8000434:	e7fe      	b.n	8000434 <__port_exit_from_isr+0x2>
	...

08000440 <__idle_thread>:
__STATIC_FORCEINLINE void port_wait_for_interrupt(void) {

#if CORTEX_ENABLE_WFI_IDLE == TRUE
  __WFI();
#endif
}
 8000440:	e7fe      	b.n	8000440 <__idle_thread>
 8000442:	bf00      	nop
	...

08000450 <chTMStartMeasurementX>:
 *
 * @return              The realtime counter value.
 */
__STATIC_FORCEINLINE rtcnt_t port_rt_get_counter_value(void) {

  return DWT->CYCCNT;
 8000450:	4b01      	ldr	r3, [pc, #4]	; (8000458 <chTMStartMeasurementX+0x8>)
 8000452:	685b      	ldr	r3, [r3, #4]
 *
 * @xclass
 */
NOINLINE void chTMStartMeasurementX(time_measurement_t *tmp) {

  tmp->last = chSysGetRealtimeCounterX();
 8000454:	6083      	str	r3, [r0, #8]
}
 8000456:	4770      	bx	lr
 8000458:	e0001000 	.word	0xe0001000
 800045c:	00000000 	.word	0x00000000

08000460 <chTMStopMeasurementX>:
 *
 * @xclass
 */
NOINLINE void chTMStopMeasurementX(time_measurement_t *tmp) {

  tm_stop(tmp, chSysGetRealtimeCounterX(), ch_system.tmc.offset);
 8000460:	4a0e      	ldr	r2, [pc, #56]	; (800049c <chTMStopMeasurementX+0x3c>)
 8000462:	4b0f      	ldr	r3, [pc, #60]	; (80004a0 <chTMStopMeasurementX+0x40>)
  tmp->last = (now - tmp->last) - offset;
 8000464:	6881      	ldr	r1, [r0, #8]
 8000466:	685b      	ldr	r3, [r3, #4]
NOINLINE void chTMStopMeasurementX(time_measurement_t *tmp) {
 8000468:	b410      	push	{r4}
  tm_stop(tmp, chSysGetRealtimeCounterX(), ch_system.tmc.offset);
 800046a:	6894      	ldr	r4, [r2, #8]
  tmp->cumulative += (rttime_t)tmp->last;
 800046c:	6902      	ldr	r2, [r0, #16]
  tmp->last = (now - tmp->last) - offset;
 800046e:	1b1b      	subs	r3, r3, r4
  tmp->n++;
 8000470:	68c4      	ldr	r4, [r0, #12]
  tmp->last = (now - tmp->last) - offset;
 8000472:	1a5b      	subs	r3, r3, r1
  tmp->cumulative += (rttime_t)tmp->last;
 8000474:	6941      	ldr	r1, [r0, #20]
  tmp->n++;
 8000476:	3401      	adds	r4, #1
  tmp->cumulative += (rttime_t)tmp->last;
 8000478:	18d2      	adds	r2, r2, r3
 800047a:	6102      	str	r2, [r0, #16]
 800047c:	f141 0100 	adc.w	r1, r1, #0
  if (tmp->last > tmp->worst) {
 8000480:	6842      	ldr	r2, [r0, #4]
  tmp->cumulative += (rttime_t)tmp->last;
 8000482:	6141      	str	r1, [r0, #20]
  if (tmp->last > tmp->worst) {
 8000484:	4293      	cmp	r3, r2
  if (tmp->last < tmp->best) {
 8000486:	6802      	ldr	r2, [r0, #0]
    tmp->worst = tmp->last;
 8000488:	bf88      	it	hi
 800048a:	6043      	strhi	r3, [r0, #4]
  if (tmp->last < tmp->best) {
 800048c:	4293      	cmp	r3, r2
  tmp->n++;
 800048e:	e9c0 3402 	strd	r3, r4, [r0, #8]
    tmp->best = tmp->last;
 8000492:	bf38      	it	cc
 8000494:	6003      	strcc	r3, [r0, #0]
}
 8000496:	f85d 4b04 	ldr.w	r4, [sp], #4
 800049a:	4770      	bx	lr
 800049c:	24000ae0 	.word	0x24000ae0
 80004a0:	e0001000 	.word	0xe0001000
	...

080004b0 <chCoreAllocFromTop>:
  \details Assigns the given value to the Base Priority register.
  \param [in]    basePri  Base Priority value to set
 */
__STATIC_FORCEINLINE void __set_BASEPRI(uint32_t basePri)
{
  __ASM volatile ("MSR basepri, %0" : : "r" (basePri) : "memory");
 80004b0:	2330      	movs	r3, #48	; 0x30
 * @return              A pointer to the allocated memory block.
 * @retval NULL         allocation failed, core memory exhausted.
 *
 * @api
 */
void *chCoreAllocFromTop(size_t size, unsigned align, size_t offset) {
 80004b2:	b410      	push	{r4}
 80004b4:	f383 8811 	msr	BASEPRI, r3
  p = (uint8_t *)MEM_ALIGN_PREV(ch_memcore.topmem - size, align);
 80004b8:	4b0c      	ldr	r3, [pc, #48]	; (80004ec <chCoreAllocFromTop+0x3c>)
 80004ba:	4249      	negs	r1, r1
 80004bc:	685c      	ldr	r4, [r3, #4]
 80004be:	1a20      	subs	r0, r4, r0
 80004c0:	4008      	ands	r0, r1
  if ((prev < ch_memcore.basemem) || (prev > ch_memcore.topmem)) {
 80004c2:	6819      	ldr	r1, [r3, #0]
  prev = p - offset;
 80004c4:	1a82      	subs	r2, r0, r2
  if ((prev < ch_memcore.basemem) || (prev > ch_memcore.topmem)) {
 80004c6:	428a      	cmp	r2, r1
 80004c8:	d308      	bcc.n	80004dc <chCoreAllocFromTop+0x2c>
 80004ca:	4294      	cmp	r4, r2
 80004cc:	d306      	bcc.n	80004dc <chCoreAllocFromTop+0x2c>
  ch_memcore.topmem = prev;
 80004ce:	605a      	str	r2, [r3, #4]
 80004d0:	2300      	movs	r3, #0
 80004d2:	f383 8811 	msr	BASEPRI, r3
  chSysLock();
  p = chCoreAllocFromTopI(size, align, offset);
  chSysUnlock();

  return p;
}
 80004d6:	f85d 4b04 	ldr.w	r4, [sp], #4
 80004da:	4770      	bx	lr
    return NULL;
 80004dc:	2000      	movs	r0, #0
 80004de:	2300      	movs	r3, #0
 80004e0:	f383 8811 	msr	BASEPRI, r3
}
 80004e4:	f85d 4b04 	ldr.w	r4, [sp], #4
 80004e8:	4770      	bx	lr
 80004ea:	bf00      	nop
 80004ec:	24000ad8 	.word	0x24000ad8

080004f0 <chCoreAllocAlignedI>:
  p = (uint8_t *)MEM_ALIGN_PREV(ch_memcore.topmem - size, align);
 80004f0:	4b06      	ldr	r3, [pc, #24]	; (800050c <chCoreAllocAlignedI+0x1c>)
 80004f2:	4249      	negs	r1, r1
 80004f4:	685a      	ldr	r2, [r3, #4]
 80004f6:	1a10      	subs	r0, r2, r0
 80004f8:	4008      	ands	r0, r1
  if ((prev < ch_memcore.basemem) || (prev > ch_memcore.topmem)) {
 80004fa:	6819      	ldr	r1, [r3, #0]
 80004fc:	4288      	cmp	r0, r1
 80004fe:	d303      	bcc.n	8000508 <chCoreAllocAlignedI+0x18>
 8000500:	4282      	cmp	r2, r0
 8000502:	d301      	bcc.n	8000508 <chCoreAllocAlignedI+0x18>
  ch_memcore.topmem = prev;
 8000504:	6058      	str	r0, [r3, #4]
  return p;
 8000506:	4770      	bx	lr
    return NULL;
 8000508:	2000      	movs	r0, #0
 * @iclass
 */
static inline void *chCoreAllocAlignedI(size_t size, unsigned align) {

  return chCoreAllocAlignedWithOffsetI(size, align, 0U);
}
 800050a:	4770      	bx	lr
 800050c:	24000ad8 	.word	0x24000ad8

08000510 <trace_next.constprop.0>:
 *
 * @notapi
 */
NOINLINE static void trace_next(os_instance_t *oip) {

  oip->trace_buffer.ptr->time    = chVTGetSystemTimeX();
 8000510:	4a0c      	ldr	r2, [pc, #48]	; (8000544 <trace_next.constprop.0+0x34>)
 *
 * @notapi
 */
static inline systime_t st_lld_get_counter(void) {

  return (systime_t)STM32_ST_TIM->CNT;
 8000512:	f04f 4180 	mov.w	r1, #1073741824	; 0x40000000
 8000516:	f8d2 308c 	ldr.w	r3, [r2, #140]	; 0x8c
#endif

  /* Trace hook, useful in order to interface debug tools.*/
  CH_CFG_TRACE_HOOK(oip->trace_buffer.ptr);

  if (++oip->trace_buffer.ptr >= &oip->trace_buffer.buffer[CH_DBG_TRACE_BUFFER_SIZE]) {
 800051a:	f502 6009 	add.w	r0, r2, #2192	; 0x890
 800051e:	6a49      	ldr	r1, [r1, #36]	; 0x24
NOINLINE static void trace_next(os_instance_t *oip) {
 8000520:	b410      	push	{r4}
 8000522:	4c09      	ldr	r4, [pc, #36]	; (8000548 <trace_next.constprop.0+0x38>)
  oip->trace_buffer.ptr->time    = chVTGetSystemTimeX();
 8000524:	6059      	str	r1, [r3, #4]
  oip->trace_buffer.ptr->rtstamp = chSysGetRealtimeCounterX();
 8000526:	6819      	ldr	r1, [r3, #0]
 8000528:	6864      	ldr	r4, [r4, #4]
 800052a:	f364 211f 	bfi	r1, r4, #8, #24
 800052e:	f843 1b10 	str.w	r1, [r3], #16
  if (++oip->trace_buffer.ptr >= &oip->trace_buffer.buffer[CH_DBG_TRACE_BUFFER_SIZE]) {
 8000532:	4283      	cmp	r3, r0
    oip->trace_buffer.ptr = &oip->trace_buffer.buffer[0];
  }
}
 8000534:	f85d 4b04 	ldr.w	r4, [sp], #4
    oip->trace_buffer.ptr = &oip->trace_buffer.buffer[0];
 8000538:	bf28      	it	cs
 800053a:	f102 0390 	addcs.w	r3, r2, #144	; 0x90
 800053e:	f8c2 308c 	str.w	r3, [r2, #140]	; 0x8c
}
 8000542:	4770      	bx	lr
 8000544:	24000000 	.word	0x24000000
 8000548:	e0001000 	.word	0xe0001000
 800054c:	00000000 	.word	0x00000000

08000550 <chVTDoResetI>:
 * @notapi
 */
static inline bool ch_dlist_isfirst(ch_delta_list_t *dlhp,
                                    ch_delta_list_t *dlp) {

  return (bool)(dlhp->next == dlp);
 8000550:	4926      	ldr	r1, [pc, #152]	; (80005ec <chVTDoResetI+0x9c>)
 8000552:	690b      	ldr	r3, [r1, #16]
  systime_t now;
  sysinterval_t nowdelta, delta;

  /* If the timer is not the first of the list then it is simply unlinked
     else the operation is more complex.*/
  if (!ch_dlist_isfirst(&vtlp->dlist, &vtp->dlist)) {
 8000554:	4298      	cmp	r0, r3
void chVTDoResetI(virtual_timer_t *vtp) {
 8000556:	b430      	push	{r4, r5}
  if (!ch_dlist_isfirst(&vtlp->dlist, &vtp->dlist)) {
 8000558:	d00d      	beq.n	8000576 <chVTDoResetI+0x26>
 *
 * @notapi
 */
static inline ch_delta_list_t *ch_dlist_dequeue(ch_delta_list_t *dlp) {

  dlp->prev->next = dlp->next;
 800055a:	e890 0038 	ldmia.w	r0, {r3, r4, r5}

    /* Removing the element from the delta list.*/
    (void) ch_dlist_dequeue(&vtp->dlist);

    /* Adding delta to the next element, if it is not the last one.*/
    vtp->dlist.next->delta += vtp->dlist.delta;
 800055e:	689a      	ldr	r2, [r3, #8]
 8000560:	6023      	str	r3, [r4, #0]
 8000562:	442a      	add	r2, r5
  dlp->next->prev = dlp->prev;
 8000564:	605c      	str	r4, [r3, #4]

    /* Marking timer as not armed.*/
    vtp->dlist.next = NULL;
 8000566:	2400      	movs	r4, #0
    vtp->dlist.next->delta += vtp->dlist.delta;
 8000568:	609a      	str	r2, [r3, #8]

    /* Special case when the removed element from the last position in the list,
       the value in the header must be restored, just doing it is faster than
       checking then doing.*/
    vtlp->dlist.delta = (sysinterval_t)-1;
 800056a:	f04f 33ff 	mov.w	r3, #4294967295	; 0xffffffff
    vtp->dlist.next = NULL;
 800056e:	6004      	str	r4, [r0, #0]
    vtlp->dlist.delta = (sysinterval_t)-1;
 8000570:	618b      	str	r3, [r1, #24]
  delta = vtlp->dlist.next->delta - nowdelta;

  /* Setting up the alarm.*/
  vt_set_alarm(now, delta);
#endif /* CH_CFG_ST_TIMEDELTA > 0 */
}
 8000572:	bc30      	pop	{r4, r5}
 8000574:	4770      	bx	lr
  dlhp->next       = dlp->next;
 8000576:	6802      	ldr	r2, [r0, #0]
 8000578:	460b      	mov	r3, r1
  vtp->dlist.next = NULL;
 800057a:	2500      	movs	r5, #0
 800057c:	f843 2f10 	str.w	r2, [r3, #16]!
  dlhp->next->prev = dlhp;
 8000580:	6053      	str	r3, [r2, #4]
 8000582:	6005      	str	r5, [r0, #0]
  return (bool)(dlhp == dlhp->next);
 8000584:	690c      	ldr	r4, [r1, #16]
  if (ch_dlist_isempty(&vtlp->dlist)) {
 8000586:	429c      	cmp	r4, r3
 8000588:	d029      	beq.n	80005de <chVTDoResetI+0x8e>
  vtlp->dlist.next->delta += vtp->dlist.delta;
 800058a:	68a3      	ldr	r3, [r4, #8]
 800058c:	f04f 4c80 	mov.w	ip, #1073741824	; 0x40000000
 8000590:	6882      	ldr	r2, [r0, #8]
 8000592:	441a      	add	r2, r3
  nowdelta = chTimeDiffX(vtlp->lasttime, now);
 8000594:	69cb      	ldr	r3, [r1, #28]
  vtlp->dlist.next->delta += vtp->dlist.delta;
 8000596:	60a2      	str	r2, [r4, #8]
 8000598:	f8dc 0024 	ldr.w	r0, [ip, #36]	; 0x24
 */
static inline sysinterval_t chTimeDiffX(systime_t start, systime_t end) {

  /*lint -save -e9033 [10.8] This cast is required by the operation, it is
    known that the destination type can be wider.*/
  return (sysinterval_t)((systime_t)(end - start));
 800059c:	1ac4      	subs	r4, r0, r3
  if (nowdelta >= vtlp->dlist.next->delta) {
 800059e:	42a2      	cmp	r2, r4
 80005a0:	d9e7      	bls.n	8000572 <chVTDoResetI+0x22>
  delta = vtlp->dlist.next->delta - nowdelta;
 80005a2:	1a1b      	subs	r3, r3, r0
 80005a4:	4413      	add	r3, r2
 80005a6:	2b02      	cmp	r3, #2
 80005a8:	bf38      	it	cc
 80005aa:	2302      	movcc	r3, #2
  return systime + (systime_t)interval;
 80005ac:	18c2      	adds	r2, r0, r3
 *
 * @notapi
 */
static inline void st_lld_set_alarm(systime_t abstime) {

  STM32_ST_TIM->CCR[0] = (uint32_t)abstime;
 80005ae:	f8cc 2034 	str.w	r2, [ip, #52]	; 0x34
  return (systime_t)STM32_ST_TIM->CNT;
 80005b2:	f8dc 2024 	ldr.w	r2, [ip, #36]	; 0x24
  return (sysinterval_t)((systime_t)(end - start));
 80005b6:	1a10      	subs	r0, r2, r0
    if (likely(nowdelta < delay)) {
 80005b8:	4283      	cmp	r3, r0
 80005ba:	d8da      	bhi.n	8000572 <chVTDoResetI+0x22>
 80005bc:	2302      	movs	r3, #2
    currdelta += (sysinterval_t)1;
 80005be:	3301      	adds	r3, #1
  return systime + (systime_t)interval;
 80005c0:	18d0      	adds	r0, r2, r3
  STM32_ST_TIM->CCR[0] = (uint32_t)abstime;
 80005c2:	f8cc 0034 	str.w	r0, [ip, #52]	; 0x34
  return (systime_t)STM32_ST_TIM->CNT;
 80005c6:	f8dc 0024 	ldr.w	r0, [ip, #36]	; 0x24
  return (sysinterval_t)((systime_t)(end - start));
 80005ca:	1a82      	subs	r2, r0, r2
    if (likely(nowdelta < delay)) {
 80005cc:	429a      	cmp	r2, r3
 80005ce:	d20a      	bcs.n	80005e6 <chVTDoResetI+0x96>
  if (currdelta > CH_CFG_ST_TIMEDELTA) {
 80005d0:	2b02      	cmp	r3, #2
 80005d2:	d9ce      	bls.n	8000572 <chVTDoResetI+0x22>
 * @param[in] mask      fault flags to be added
 */
void chRFCUCollectFaultsI(rfcu_mask_t mask) {

#if CH_CFG_SMP_MODE == FALSE
  currcore->rfcu.mask |= mask;
 80005d4:	6b4b      	ldr	r3, [r1, #52]	; 0x34
 80005d6:	f043 0301 	orr.w	r3, r3, #1
 80005da:	634b      	str	r3, [r1, #52]	; 0x34
#else
  ch_system.rfcu.mask |= mask;
#endif

  CH_CFG_RUNTIME_FAULTS_HOOK(mask);
}
 80005dc:	e7c9      	b.n	8000572 <chVTDoResetI+0x22>
  STM32_ST_TIM->DIER = 0U;
 80005de:	f04f 4380 	mov.w	r3, #1073741824	; 0x40000000
 80005e2:	60dd      	str	r5, [r3, #12]
 * @api
 */
void stStopAlarm(void) {

  st_lld_stop_alarm();
}
 80005e4:	e7c5      	b.n	8000572 <chVTDoResetI+0x22>
  return (systime_t)STM32_ST_TIM->CNT;
 80005e6:	4602      	mov	r2, r0
 80005e8:	e7e9      	b.n	80005be <chVTDoResetI+0x6e>
 80005ea:	bf00      	nop
 80005ec:	24000000 	.word	0x24000000

080005f0 <__sch_ready_ahead>:
 * @notapi
 */
void __trace_ready(thread_t *tp, msg_t msg) {
  os_instance_t *oip = currcore;

  if ((oip->trace_buffer.suspended & CH_DBG_TRACE_MASK_READY) == 0U) {
 80005f0:	4b12      	ldr	r3, [pc, #72]	; (800063c <__sch_ready_ahead+0x4c>)
 80005f2:	f8b3 2088 	ldrh.w	r2, [r3, #136]	; 0x88
 80005f6:	07d2      	lsls	r2, r2, #31
 * @param[in] tp        the thread to be made ready
 * @return              The thread pointer.
 *
 * @notapi
 */
static thread_t *__sch_ready_ahead(thread_t *tp) {
 80005f8:	b510      	push	{r4, lr}
 80005fa:	4604      	mov	r4, r0
 80005fc:	d50f      	bpl.n	800061e <__sch_ready_ahead+0x2e>

  /* Tracing the event.*/
  __trace_ready(tp, tp->u.rdymsg);

  /* The thread is marked ready.*/
  tp->state = CH_STATE_READY;
 80005fe:	2200      	movs	r2, #0

  /* Insertion in the priority queue.*/
  return threadref(ch_pqueue_insert_ahead(&tp->owner->rlist.pqueue,
 8000600:	69a3      	ldr	r3, [r4, #24]
  } while (unlikely(pqp->prio > p->prio));
 8000602:	68a1      	ldr	r1, [r4, #8]
  tp->state = CH_STATE_READY;
 8000604:	f884 2024 	strb.w	r2, [r4, #36]	; 0x24
    pqp = pqp->next;
 8000608:	681b      	ldr	r3, [r3, #0]
  } while (unlikely(pqp->prio > p->prio));
 800060a:	689a      	ldr	r2, [r3, #8]
 800060c:	428a      	cmp	r2, r1
 800060e:	d8fb      	bhi.n	8000608 <__sch_ready_ahead+0x18>
  p->prev       = pqp->prev;
 8000610:	685a      	ldr	r2, [r3, #4]
                                          &tp->hdr.pqueue));
}
 8000612:	4620      	mov	r0, r4
  p->next       = pqp;
 8000614:	6023      	str	r3, [r4, #0]
  p->prev       = pqp->prev;
 8000616:	6062      	str	r2, [r4, #4]
  p->prev->next = p;
 8000618:	6014      	str	r4, [r2, #0]
  pqp->prev     = p;
 800061a:	605c      	str	r4, [r3, #4]
 800061c:	bd10      	pop	{r4, pc}
    oip->trace_buffer.ptr->type        = CH_TRACE_TYPE_READY;
 800061e:	f890 2024 	ldrb.w	r2, [r0, #36]	; 0x24
 8000622:	f8d3 108c 	ldr.w	r1, [r3, #140]	; 0x8c
 8000626:	00d3      	lsls	r3, r2, #3
  __trace_ready(tp, tp->u.rdymsg);
 8000628:	6a80      	ldr	r0, [r0, #40]	; 0x28
 800062a:	f043 0301 	orr.w	r3, r3, #1
    oip->trace_buffer.ptr->state       = (uint8_t)tp->state;
    oip->trace_buffer.ptr->u.rdy.tp    = tp;
    oip->trace_buffer.ptr->u.rdy.msg   = msg;
 800062e:	e9c1 4002 	strd	r4, r0, [r1, #8]
    oip->trace_buffer.ptr->type        = CH_TRACE_TYPE_READY;
 8000632:	700b      	strb	r3, [r1, #0]
    trace_next(oip);
 8000634:	f7ff ff6c 	bl	8000510 <trace_next.constprop.0>
  }
}
 8000638:	e7e1      	b.n	80005fe <__sch_ready_ahead+0xe>
 800063a:	bf00      	nop
 800063c:	24000000 	.word	0x24000000

08000640 <__sch_ready_behind.isra.0>:
  if ((oip->trace_buffer.suspended & CH_DBG_TRACE_MASK_READY) == 0U) {
 8000640:	4b11      	ldr	r3, [pc, #68]	; (8000688 <__sch_ready_behind.isra.0+0x48>)
 8000642:	f8b3 2088 	ldrh.w	r2, [r3, #136]	; 0x88
 8000646:	07d2      	lsls	r2, r2, #31
static thread_t *__sch_ready_behind(thread_t *tp) {
 8000648:	b510      	push	{r4, lr}
 800064a:	4604      	mov	r4, r0
 800064c:	d50e      	bpl.n	800066c <__sch_ready_behind.isra.0+0x2c>
  tp->state = CH_STATE_READY;
 800064e:	2200      	movs	r2, #0
  return threadref(ch_pqueue_insert_behind(&tp->owner->rlist.pqueue,
 8000650:	69a3      	ldr	r3, [r4, #24]
  } while (unlikely(pqp->prio >= p->prio));
 8000652:	68a1      	ldr	r1, [r4, #8]
  tp->state = CH_STATE_READY;
 8000654:	f884 2024 	strb.w	r2, [r4, #36]	; 0x24
    pqp = pqp->next;
 8000658:	681b      	ldr	r3, [r3, #0]
  } while (unlikely(pqp->prio >= p->prio));
 800065a:	689a      	ldr	r2, [r3, #8]
 800065c:	428a      	cmp	r2, r1
 800065e:	d2fb      	bcs.n	8000658 <__sch_ready_behind.isra.0+0x18>
  p->prev       = pqp->prev;
 8000660:	685a      	ldr	r2, [r3, #4]
 8000662:	e9c4 3200 	strd	r3, r2, [r4]
  p->prev->next = p;
 8000666:	6014      	str	r4, [r2, #0]
  pqp->prev     = p;
 8000668:	605c      	str	r4, [r3, #4]
}
 800066a:	bd10      	pop	{r4, pc}
    oip->trace_buffer.ptr->type        = CH_TRACE_TYPE_READY;
 800066c:	f890 2024 	ldrb.w	r2, [r0, #36]	; 0x24
 8000670:	f8d3 108c 	ldr.w	r1, [r3, #140]	; 0x8c
 8000674:	00d3      	lsls	r3, r2, #3
  __trace_ready(tp, tp->u.rdymsg);
 8000676:	6a80      	ldr	r0, [r0, #40]	; 0x28
 8000678:	f043 0301 	orr.w	r3, r3, #1
    oip->trace_buffer.ptr->u.rdy.msg   = msg;
 800067c:	e9c1 4002 	strd	r4, r0, [r1, #8]
    oip->trace_buffer.ptr->type        = CH_TRACE_TYPE_READY;
 8000680:	700b      	strb	r3, [r1, #0]
    trace_next(oip);
 8000682:	f7ff ff45 	bl	8000510 <trace_next.constprop.0>
}
 8000686:	e7e2      	b.n	800064e <__sch_ready_behind.isra.0+0xe>
 8000688:	24000000 	.word	0x24000000
 800068c:	00000000 	.word	0x00000000

08000690 <__sch_wakeup>:
}

/*
 * Timeout wakeup callback.
 */
static void __sch_wakeup(virtual_timer_t *vtp, void *p) {
 8000690:	b510      	push	{r4, lr}
 8000692:	2330      	movs	r3, #48	; 0x30
 8000694:	460c      	mov	r4, r1
 8000696:	f383 8811 	msr	BASEPRI, r3
  thread_t *tp = threadref(p);

  (void)vtp;

  chSysLockFromISR();
  switch (tp->state) {
 800069a:	f891 3024 	ldrb.w	r3, [r1, #36]	; 0x24
 800069e:	2b0c      	cmp	r3, #12
 80006a0:	d810      	bhi.n	80006c4 <__sch_wakeup+0x34>
 80006a2:	e8df f003 	tbb	[pc, r3]
 80006a6:	0f2d      	.short	0x0f2d
 80006a8:	070b290f 	.word	0x070b290f
 80006ac:	0f0f0b0f 	.word	0x0f0f0b0f
 80006b0:	0f0f      	.short	0x0f0f
 80006b2:	0b          	.byte	0x0b
 80006b3:	00          	.byte	0x00
  case CH_STATE_SUSPENDED:
    *tp->u.wttrp = NULL;
    break;
#if CH_CFG_USE_SEMAPHORES == TRUE
  case CH_STATE_WTSEM:
    chSemFastSignalI(tp->u.wtsemp);
 80006b4:	6a89      	ldr	r1, [r1, #40]	; 0x28
 */
static inline void chSemFastSignalI(semaphore_t *sp) {

  chDbgCheckClassI();

  sp->cnt++;
 80006b6:	688a      	ldr	r2, [r1, #8]
 80006b8:	3201      	adds	r2, #1
 80006ba:	608a      	str	r2, [r1, #8]
  p->prev->next = p->next;
 80006bc:	e9d4 2100 	ldrd	r2, r1, [r4]
 80006c0:	600a      	str	r2, [r1, #0]
  p->next->prev = p->prev;
 80006c2:	6051      	str	r1, [r2, #4]
  if ((oip->trace_buffer.suspended & CH_DBG_TRACE_MASK_READY) == 0U) {
 80006c4:	4916      	ldr	r1, [pc, #88]	; (8000720 <__sch_wakeup+0x90>)
    /* Any other state, nothing to do.*/
    break;
  }

  /* Standard message for timeout conditions.*/
  tp->u.rdymsg = MSG_TIMEOUT;
 80006c6:	f04f 32ff 	mov.w	r2, #4294967295	; 0xffffffff
 80006ca:	f8b1 0088 	ldrh.w	r0, [r1, #136]	; 0x88
 80006ce:	62a2      	str	r2, [r4, #40]	; 0x28
 80006d0:	07c0      	lsls	r0, r0, #31
 80006d2:	d519      	bpl.n	8000708 <__sch_wakeup+0x78>
  tp->state = CH_STATE_READY;
 80006d4:	2200      	movs	r2, #0
  return threadref(ch_pqueue_insert_behind(&tp->owner->rlist.pqueue,
 80006d6:	69a3      	ldr	r3, [r4, #24]
  } while (unlikely(pqp->prio >= p->prio));
 80006d8:	68a1      	ldr	r1, [r4, #8]
  tp->state = CH_STATE_READY;
 80006da:	f884 2024 	strb.w	r2, [r4, #36]	; 0x24
    pqp = pqp->next;
 80006de:	681b      	ldr	r3, [r3, #0]
  } while (unlikely(pqp->prio >= p->prio));
 80006e0:	689a      	ldr	r2, [r3, #8]
 80006e2:	428a      	cmp	r2, r1
 80006e4:	d2fb      	bcs.n	80006de <__sch_wakeup+0x4e>
  p->prev       = pqp->prev;
 80006e6:	685a      	ldr	r2, [r3, #4]
 80006e8:	2100      	movs	r1, #0
  p->next       = pqp;
 80006ea:	6023      	str	r3, [r4, #0]
  p->prev       = pqp->prev;
 80006ec:	6062      	str	r2, [r4, #4]
  p->prev->next = p;
 80006ee:	6014      	str	r4, [r2, #0]
  pqp->prev     = p;
 80006f0:	605c      	str	r4, [r3, #4]
 80006f2:	f381 8811 	msr	BASEPRI, r1
  /* Goes behind peers because it went to sleep voluntarily.*/
  (void) __sch_ready_behind(tp);
  chSysUnlockFromISR();

  return;
}
 80006f6:	bd10      	pop	{r4, pc}
    *tp->u.wttrp = NULL;
 80006f8:	6a8a      	ldr	r2, [r1, #40]	; 0x28
 80006fa:	2100      	movs	r1, #0
 80006fc:	6011      	str	r1, [r2, #0]
    break;
 80006fe:	e7e1      	b.n	80006c4 <__sch_wakeup+0x34>
 8000700:	2300      	movs	r3, #0
 8000702:	f383 8811 	msr	BASEPRI, r3
}
 8000706:	bd10      	pop	{r4, pc}
    oip->trace_buffer.ptr->type        = CH_TRACE_TYPE_READY;
 8000708:	00db      	lsls	r3, r3, #3
 800070a:	f8d1 108c 	ldr.w	r1, [r1, #140]	; 0x8c
 800070e:	f043 0301 	orr.w	r3, r3, #1
    oip->trace_buffer.ptr->u.rdy.msg   = msg;
 8000712:	e9c1 4202 	strd	r4, r2, [r1, #8]
    oip->trace_buffer.ptr->type        = CH_TRACE_TYPE_READY;
 8000716:	700b      	strb	r3, [r1, #0]
    trace_next(oip);
 8000718:	f7ff fefa 	bl	8000510 <trace_next.constprop.0>
}
 800071c:	e7da      	b.n	80006d4 <__sch_wakeup+0x44>
 800071e:	bf00      	nop
 8000720:	24000000 	.word	0x24000000
	...

08000730 <vt_insert_first.constprop.0>:
  vtlp->lasttime = now;
 8000730:	4b16      	ldr	r3, [pc, #88]	; (800078c <vt_insert_first.constprop.0+0x5c>)
 8000732:	2a02      	cmp	r2, #2
static void vt_insert_first(virtual_timers_list_t *vtlp,
 8000734:	b430      	push	{r4, r5}
  dlp->prev       = dlhp;
 8000736:	f103 0410 	add.w	r4, r3, #16
  vtlp->lasttime = now;
 800073a:	61d9      	str	r1, [r3, #28]
  dlp->delta      = delta;
 800073c:	6082      	str	r2, [r0, #8]
 800073e:	bf38      	it	cc
 8000740:	2202      	movcc	r2, #2
  dlp->prev       = dlhp;
 8000742:	6044      	str	r4, [r0, #4]
  dlp->next       = dlp->prev->next;
 8000744:	691c      	ldr	r4, [r3, #16]
 8000746:	6004      	str	r4, [r0, #0]
  dlp->next->prev = dlp;
 8000748:	6060      	str	r0, [r4, #4]
  return systime + (systime_t)interval;
 800074a:	188c      	adds	r4, r1, r2
  dlhp->next      = dlp;
 800074c:	6118      	str	r0, [r3, #16]
  STM32_ST_TIM->CCR[0] = (uint32_t)abstime;
 800074e:	f04f 4080 	mov.w	r0, #1073741824	; 0x40000000
 8000752:	6344      	str	r4, [r0, #52]	; 0x34
  STM32_ST_TIM->SR     = 0;
 8000754:	2400      	movs	r4, #0
 8000756:	6104      	str	r4, [r0, #16]
  STM32_ST_TIM->DIER   = STM32_TIM_DIER_CC1IE;
 8000758:	2402      	movs	r4, #2
 800075a:	60c4      	str	r4, [r0, #12]
  return (systime_t)STM32_ST_TIM->CNT;
 800075c:	6a45      	ldr	r5, [r0, #36]	; 0x24
  return (sysinterval_t)((systime_t)(end - start));
 800075e:	eba5 0c01 	sub.w	ip, r5, r1
    if (likely(chTimeDiffX(now, newnow) < delay)) {
 8000762:	4562      	cmp	r2, ip
 8000764:	d903      	bls.n	800076e <vt_insert_first.constprop.0+0x3e>
}
 8000766:	bc30      	pop	{r4, r5}
 8000768:	4770      	bx	lr
 800076a:	4629      	mov	r1, r5
 800076c:	4615      	mov	r5, r2
    currdelta += (sysinterval_t)1;
 800076e:	3401      	adds	r4, #1
  return systime + (systime_t)interval;
 8000770:	4421      	add	r1, r4
  STM32_ST_TIM->CCR[0] = (uint32_t)abstime;
 8000772:	6341      	str	r1, [r0, #52]	; 0x34
  return (systime_t)STM32_ST_TIM->CNT;
 8000774:	6a42      	ldr	r2, [r0, #36]	; 0x24
  return (sysinterval_t)((systime_t)(end - start));
 8000776:	1b51      	subs	r1, r2, r5
    if (likely(chTimeDiffX(now, newnow) < delay)) {
 8000778:	42a1      	cmp	r1, r4
 800077a:	d2f6      	bcs.n	800076a <vt_insert_first.constprop.0+0x3a>
  if (currdelta > CH_CFG_ST_TIMEDELTA) {
 800077c:	2c02      	cmp	r4, #2
 800077e:	d9f2      	bls.n	8000766 <vt_insert_first.constprop.0+0x36>
  currcore->rfcu.mask |= mask;
 8000780:	6b5a      	ldr	r2, [r3, #52]	; 0x34
 8000782:	f042 0201 	orr.w	r2, r2, #1
}
 8000786:	bc30      	pop	{r4, r5}
 8000788:	635a      	str	r2, [r3, #52]	; 0x34
 800078a:	4770      	bx	lr
 800078c:	24000000 	.word	0x24000000

08000790 <vt_enqueue.constprop.0>:
static void vt_enqueue(virtual_timers_list_t *vtlp,
 8000790:	b4f0      	push	{r4, r5, r6, r7}
  return (bool)(dlhp == dlhp->next);
 8000792:	4e25      	ldr	r6, [pc, #148]	; (8000828 <vt_enqueue.constprop.0+0x98>)
 8000794:	f04f 4c80 	mov.w	ip, #1073741824	; 0x40000000
 8000798:	4633      	mov	r3, r6
 800079a:	f8dc 7024 	ldr.w	r7, [ip, #36]	; 0x24
 800079e:	f853 2f10 	ldr.w	r2, [r3, #16]!
    if (ch_dlist_isempty(&vtlp->dlist)) {
 80007a2:	429a      	cmp	r2, r3
 80007a4:	d038      	beq.n	8000818 <vt_enqueue.constprop.0+0x88>
 80007a6:	69f3      	ldr	r3, [r6, #28]
 80007a8:	4605      	mov	r5, r0
    if (delta < vtlp->dlist.next->delta) {
 80007aa:	6894      	ldr	r4, [r2, #8]
 80007ac:	1afb      	subs	r3, r7, r3
      delta = delay;
 80007ae:	18cb      	adds	r3, r1, r3
 80007b0:	bf28      	it	cs
 80007b2:	460b      	movcs	r3, r1
    if (delta < vtlp->dlist.next->delta) {
 80007b4:	429c      	cmp	r4, r3
 80007b6:	d903      	bls.n	80007c0 <vt_enqueue.constprop.0+0x30>
 80007b8:	e012      	b.n	80007e0 <vt_enqueue.constprop.0+0x50>
    dlp = dlp->next;
 80007ba:	6812      	ldr	r2, [r2, #0]
    delta -= dlp->delta;
 80007bc:	1b1b      	subs	r3, r3, r4
  while (likely(dlp->delta < delta)) {
 80007be:	6894      	ldr	r4, [r2, #8]
 80007c0:	429c      	cmp	r4, r3
 80007c2:	d3fa      	bcc.n	80007ba <vt_enqueue.constprop.0+0x2a>
  dlp->prev       = dlp->next->prev;
 80007c4:	6851      	ldr	r1, [r2, #4]
  dlp->delta      = delta;
 80007c6:	60ab      	str	r3, [r5, #8]
  dlp->prev       = dlp->next->prev;
 80007c8:	e9c5 2100 	strd	r2, r1, [r5]
  dlp->prev->next = dlp;
 80007cc:	600d      	str	r5, [r1, #0]
  dlp->delta -= delta;
 80007ce:	6891      	ldr	r1, [r2, #8]
  dlhp->prev      = dlp;
 80007d0:	6055      	str	r5, [r2, #4]
  dlp->delta -= delta;
 80007d2:	1acb      	subs	r3, r1, r3
  dlhp->delta = (sysinterval_t)-1;
 80007d4:	f04f 31ff 	mov.w	r1, #4294967295	; 0xffffffff
  dlp->delta -= delta;
 80007d8:	6093      	str	r3, [r2, #8]
  dlhp->delta = (sysinterval_t)-1;
 80007da:	61b1      	str	r1, [r6, #24]
}
 80007dc:	bcf0      	pop	{r4, r5, r6, r7}
 80007de:	4770      	bx	lr
 80007e0:	2902      	cmp	r1, #2
 80007e2:	bf38      	it	cc
 80007e4:	2102      	movcc	r1, #2
  return systime + (systime_t)interval;
 80007e6:	1878      	adds	r0, r7, r1
  STM32_ST_TIM->CCR[0] = (uint32_t)abstime;
 80007e8:	f8cc 0034 	str.w	r0, [ip, #52]	; 0x34
  return (systime_t)STM32_ST_TIM->CNT;
 80007ec:	f8dc 0024 	ldr.w	r0, [ip, #36]	; 0x24
  return (sysinterval_t)((systime_t)(end - start));
 80007f0:	1bc7      	subs	r7, r0, r7
    if (likely(nowdelta < delay)) {
 80007f2:	428f      	cmp	r7, r1
 80007f4:	d3e4      	bcc.n	80007c0 <vt_enqueue.constprop.0+0x30>
 80007f6:	2102      	movs	r1, #2
    currdelta += (sysinterval_t)1;
 80007f8:	3101      	adds	r1, #1
  return systime + (systime_t)interval;
 80007fa:	1847      	adds	r7, r0, r1
  STM32_ST_TIM->CCR[0] = (uint32_t)abstime;
 80007fc:	f8cc 7034 	str.w	r7, [ip, #52]	; 0x34
  return (systime_t)STM32_ST_TIM->CNT;
 8000800:	f8dc 7024 	ldr.w	r7, [ip, #36]	; 0x24
  return (sysinterval_t)((systime_t)(end - start));
 8000804:	1a38      	subs	r0, r7, r0
    if (likely(nowdelta < delay)) {
 8000806:	4288      	cmp	r0, r1
 8000808:	d20b      	bcs.n	8000822 <vt_enqueue.constprop.0+0x92>
  if (currdelta > CH_CFG_ST_TIMEDELTA) {
 800080a:	2902      	cmp	r1, #2
 800080c:	d9d8      	bls.n	80007c0 <vt_enqueue.constprop.0+0x30>
 800080e:	6b71      	ldr	r1, [r6, #52]	; 0x34
 8000810:	f041 0101 	orr.w	r1, r1, #1
 8000814:	6371      	str	r1, [r6, #52]	; 0x34
}
 8000816:	e7d3      	b.n	80007c0 <vt_enqueue.constprop.0+0x30>
      vt_insert_first(vtlp, vtp, now, delay);
 8000818:	460a      	mov	r2, r1
 800081a:	4639      	mov	r1, r7
}
 800081c:	bcf0      	pop	{r4, r5, r6, r7}
      vt_insert_first(vtlp, vtp, now, delay);
 800081e:	f7ff bf87 	b.w	8000730 <vt_insert_first.constprop.0>
 8000822:	4638      	mov	r0, r7
 8000824:	e7e8      	b.n	80007f8 <vt_enqueue.constprop.0+0x68>
 8000826:	bf00      	nop
 8000828:	24000000 	.word	0x24000000
 800082c:	00000000 	.word	0x00000000

08000830 <chSchGoSleepS>:
 *
 * @param[in] newstate  the new thread state
 *
 * @sclass
 */
void chSchGoSleepS(tstate_t newstate) {
 8000830:	b538      	push	{r3, r4, r5, lr}
  os_instance_t *oip = currcore;
  thread_t *otp = __instance_get_currthread(oip);
 8000832:	4b14      	ldr	r3, [pc, #80]	; (8000884 <chSchGoSleepS+0x54>)
  otp->ticks = (tslices_t)CH_CFG_TIME_QUANTUM;
#endif

  /* Next thread in ready list becomes current.*/
  ntp = threadref(ch_pqueue_remove_highest(&oip->rlist.pqueue));
  ntp->state = CH_STATE_CURRENT;
 8000834:	2101      	movs	r1, #1
  ch_priority_queue_t *p = pqp->next;
 8000836:	681c      	ldr	r4, [r3, #0]
  thread_t *otp = __instance_get_currthread(oip);
 8000838:	68dd      	ldr	r5, [r3, #12]
  otp->state = newstate;
 800083a:	f885 0024 	strb.w	r0, [r5, #36]	; 0x24
  pqp->next       = p->next;
 800083e:	6822      	ldr	r2, [r4, #0]
  pqp->next->prev = pqp;
 8000840:	6053      	str	r3, [r2, #4]
  ntp->state = CH_STATE_CURRENT;
 8000842:	f884 1024 	strb.w	r1, [r4, #36]	; 0x24
 * @notapi
 */
void __trace_switch(thread_t *ntp, thread_t *otp) {
  os_instance_t *oip = currcore;

  if ((oip->trace_buffer.suspended & CH_DBG_TRACE_MASK_SWITCH) == 0U) {
 8000846:	f8b3 1088 	ldrh.w	r1, [r3, #136]	; 0x88
  pqp->next       = p->next;
 800084a:	601a      	str	r2, [r3, #0]
 800084c:	078a      	lsls	r2, r1, #30
  __instance_set_currthread(oip, ntp);
 800084e:	60dc      	str	r4, [r3, #12]
 8000850:	d505      	bpl.n	800085e <chSchGoSleepS+0x2e>
  if (ntp->hdr.pqueue.prio == IDLEPRIO) {
    CH_CFG_IDLE_ENTER_HOOK();
  }

  /* Swap operation as tail call.*/
  chSysSwitch(ntp, otp);
 8000852:	4629      	mov	r1, r5
 8000854:	4620      	mov	r0, r4
}
 8000856:	e8bd 4038 	ldmia.w	sp!, {r3, r4, r5, lr}
  chSysSwitch(ntp, otp);
 800085a:	f7ff bdd3 	b.w	8000404 <__port_switch>
    oip->trace_buffer.ptr->type        = CH_TRACE_TYPE_SWITCH;
 800085e:	f895 2024 	ldrb.w	r2, [r5, #36]	; 0x24
 8000862:	f8d3 108c 	ldr.w	r1, [r3, #140]	; 0x8c
 8000866:	00d3      	lsls	r3, r2, #3
 8000868:	6aa8      	ldr	r0, [r5, #40]	; 0x28
 800086a:	f043 0302 	orr.w	r3, r3, #2
    oip->trace_buffer.ptr->state       = (uint8_t)otp->state;
    oip->trace_buffer.ptr->u.sw.ntp    = ntp;
    oip->trace_buffer.ptr->u.sw.wtobjp = otp->u.wtobjp;
 800086e:	e9c1 4002 	strd	r4, r0, [r1, #8]
    oip->trace_buffer.ptr->type        = CH_TRACE_TYPE_SWITCH;
 8000872:	700b      	strb	r3, [r1, #0]
    trace_next(oip);
 8000874:	f7ff fe4c 	bl	8000510 <trace_next.constprop.0>
 8000878:	4629      	mov	r1, r5
 800087a:	4620      	mov	r0, r4
}
 800087c:	e8bd 4038 	ldmia.w	sp!, {r3, r4, r5, lr}
  chSysSwitch(ntp, otp);
 8000880:	f7ff bdc0 	b.w	8000404 <__port_switch>
 8000884:	24000000 	.word	0x24000000
	...

08000890 <chSchGoSleepTimeoutS.constprop.0.isra.0>:
msg_t chSchGoSleepTimeoutS(tstate_t newstate, sysinterval_t timeout) {
  thread_t *tp = __instance_get_currthread(currcore);

  chDbgCheckClassS();

  if (TIME_INFINITE != timeout) {
 8000890:	1c43      	adds	r3, r0, #1
 8000892:	d016      	beq.n	80008c2 <chSchGoSleepTimeoutS.constprop.0.isra.0+0x32>
  thread_t *tp = __instance_get_currthread(currcore);
 8000894:	4b0c      	ldr	r3, [pc, #48]	; (80008c8 <chSchGoSleepTimeoutS.constprop.0.isra.0+0x38>)
  vtp->reload  = (sysinterval_t)0;
 8000896:	2200      	movs	r2, #0
 8000898:	4601      	mov	r1, r0
  vtp->par     = par;
 800089a:	68db      	ldr	r3, [r3, #12]
msg_t chSchGoSleepTimeoutS(tstate_t newstate, sysinterval_t timeout) {
 800089c:	b510      	push	{r4, lr}
 800089e:	b086      	sub	sp, #24
  vtp->func    = vtfunc;
 80008a0:	4c0a      	ldr	r4, [pc, #40]	; (80008cc <chSchGoSleepTimeoutS.constprop.0.isra.0+0x3c>)
  vt_enqueue(vtlp, vtp, delay);
 80008a2:	4668      	mov	r0, sp
  vtp->par     = par;
 80008a4:	9304      	str	r3, [sp, #16]
  vtp->reload  = (sysinterval_t)0;
 80008a6:	9205      	str	r2, [sp, #20]
  vtp->func    = vtfunc;
 80008a8:	9403      	str	r4, [sp, #12]
  vt_enqueue(vtlp, vtp, delay);
 80008aa:	f7ff ff71 	bl	8000790 <vt_enqueue.constprop.0>
    virtual_timer_t vt;

    chVTDoSetI(&vt, timeout, __sch_wakeup, (void *)tp);
    chSchGoSleepS(newstate);
 80008ae:	2008      	movs	r0, #8
 80008b0:	f7ff ffbe 	bl	8000830 <chSchGoSleepS>
    if (chVTIsArmedI(&vt)) {
 80008b4:	9b00      	ldr	r3, [sp, #0]
 80008b6:	b113      	cbz	r3, 80008be <chSchGoSleepTimeoutS.constprop.0.isra.0+0x2e>
      chVTDoResetI(&vt);
 80008b8:	4668      	mov	r0, sp
 80008ba:	f7ff fe49 	bl	8000550 <chVTDoResetI>
  else {
    chSchGoSleepS(newstate);
  }

  return tp->u.rdymsg;
}
 80008be:	b006      	add	sp, #24
 80008c0:	bd10      	pop	{r4, pc}
    chSchGoSleepS(newstate);
 80008c2:	2008      	movs	r0, #8
 80008c4:	f7ff bfb4 	b.w	8000830 <chSchGoSleepS>
 80008c8:	24000000 	.word	0x24000000
 80008cc:	08000691 	.word	0x08000691

080008d0 <FlightControlThread>:
 * @api
 */
static inline void chRegSetThreadName(const char *name) {

#if CH_CFG_USE_REGISTRY == TRUE
  __sch_get_currthread()->name = name;
 80008d0:	4b0e      	ldr	r3, [pc, #56]	; (800090c <FlightControlThread+0x3c>)
 80008d2:	4a0f      	ldr	r2, [pc, #60]	; (8000910 <FlightControlThread+0x40>)
 80008d4:	68db      	ldr	r3, [r3, #12]

/*
 * Flight control thread - runs your control loop.
 * Port your FreeRTOS flight control task here.
 */
static THD_FUNCTION(FlightControlThread, arg) {
 80008d6:	b580      	push	{r7, lr}
 80008d8:	2730      	movs	r7, #48	; 0x30
 80008da:	61da      	str	r2, [r3, #28]
 80008dc:	f387 8811 	msr	BASEPRI, r7
 80008e0:	f04f 4680 	mov.w	r6, #1073741824	; 0x40000000
 80008e4:	2500      	movs	r5, #0
 80008e6:	6a73      	ldr	r3, [r6, #36]	; 0x24
 80008e8:	f385 8811 	msr	BASEPRI, r5
  return systime + (systime_t)interval;
 80008ec:	f103 0414 	add.w	r4, r3, #20
 80008f0:	f387 8811 	msr	BASEPRI, r7
 80008f4:	6a70      	ldr	r0, [r6, #36]	; 0x24
 */
static inline bool chTimeIsInRangeX(systime_t time,
                                    systime_t start,
                                    systime_t end) {

  return (bool)((systime_t)((systime_t)time - (systime_t)start) <
 80008f6:	1ac3      	subs	r3, r0, r3
 */
static inline void chThdSleepS(sysinterval_t ticks) {

  chDbgCheck(ticks != TIME_IMMEDIATE);

  (void) chSchGoSleepTimeoutS(CH_STATE_SLEEPING, ticks);
 80008f8:	1a20      	subs	r0, r4, r0
systime_t chThdSleepUntilWindowed(systime_t prev, systime_t next) {
  systime_t time;

  chSysLock();
  time = chVTGetSystemTimeX();
  if (likely(chTimeIsInRangeX(time, prev, next))) {
 80008fa:	2b13      	cmp	r3, #19
 80008fc:	d801      	bhi.n	8000902 <FlightControlThread+0x32>
 80008fe:	f7ff ffc7 	bl	8000890 <chSchGoSleepTimeoutS.constprop.0.isra.0>
 8000902:	f385 8811 	msr	BASEPRI, r5
         * Read sensor data, run attitude estimation, compute outputs.
         */

        /* Sleep until next period. This compensates for execution time
         * and keeps the loop rate accurate, same as vTaskDelayUntil(). */
        deadline = chThdSleepUntilWindowed(deadline, chTimeAddX(deadline, period));
 8000906:	4623      	mov	r3, r4
 8000908:	e7f0      	b.n	80008ec <FlightControlThread+0x1c>
 800090a:	bf00      	nop
 800090c:	24000000 	.word	0x24000000
 8000910:	08001300 	.word	0x08001300
	...

08000920 <SensorReadThread>:
 8000920:	4b0e      	ldr	r3, [pc, #56]	; (800095c <SensorReadThread+0x3c>)
 8000922:	4a0f      	ldr	r2, [pc, #60]	; (8000960 <SensorReadThread+0x40>)
 8000924:	68db      	ldr	r3, [r3, #12]

/*
 * Sensor read thread - runs your IMU/baro/GPS read logic.
 * Port your FreeRTOS sensor task here.
 */
static THD_FUNCTION(SensorReadThread, arg) {
 8000926:	b580      	push	{r7, lr}
 8000928:	2730      	movs	r7, #48	; 0x30
 800092a:	61da      	str	r2, [r3, #28]
 800092c:	f387 8811 	msr	BASEPRI, r7
 8000930:	f04f 4680 	mov.w	r6, #1073741824	; 0x40000000
 8000934:	2500      	movs	r5, #0
 8000936:	6a73      	ldr	r3, [r6, #36]	; 0x24
 8000938:	f385 8811 	msr	BASEPRI, r5
  return systime + (systime_t)interval;
 800093c:	f103 040a 	add.w	r4, r3, #10
 8000940:	f387 8811 	msr	BASEPRI, r7
 8000944:	6a70      	ldr	r0, [r6, #36]	; 0x24
  return (bool)((systime_t)((systime_t)time - (systime_t)start) <
 8000946:	1ac3      	subs	r3, r0, r3
 8000948:	1a20      	subs	r0, r4, r0
 800094a:	2b09      	cmp	r3, #9
 800094c:	d801      	bhi.n	8000952 <SensorReadThread+0x32>
 800094e:	f7ff ff9f 	bl	8000890 <chSchGoSleepTimeoutS.constprop.0.isra.0>
 8000952:	f385 8811 	msr	BASEPRI, r5
        /*
         * TODO: Replace with your sensor read body.
         * Read IMU over SPI, barometer over I2C, etc.
         */

        deadline = chThdSleepUntilWindowed(deadline, chTimeAddX(deadline, period));
 8000956:	4623      	mov	r3, r4
 8000958:	e7f0      	b.n	800093c <SensorReadThread+0x1c>
 800095a:	bf00      	nop
 800095c:	24000000 	.word	0x24000000
 8000960:	0800130c 	.word	0x0800130c
	...

08000970 <chThdCreateStatic.constprop.0.isra.0>:
thread_t *chThdCreateStatic(void *wsp, size_t size,
 8000970:	b5f8      	push	{r3, r4, r5, r6, r7, lr}
 8000972:	2330      	movs	r3, #48	; 0x30
 8000974:	4604      	mov	r4, r0
 8000976:	f383 8811 	msr	BASEPRI, r3
  tp->owner             = oip;
 800097a:	4d33      	ldr	r5, [pc, #204]	; (8000a48 <chThdCreateStatic.constprop.0.isra.0+0xd8>)
  PORT_SETUP_CONTEXT(tp, wsp, tp, pf, arg);
 800097c:	f600 1014 	addw	r0, r0, #2324	; 0x914
  tp->hdr.pqueue.prio   = prio;
 8000980:	f8c4 1980 	str.w	r1, [r4, #2432]	; 0x980
  PORT_SETUP_CONTEXT(tp, wsp, tp, pf, arg);
 8000984:	2300      	movs	r3, #0
  tp->name              = name;
 8000986:	f8df c0c8 	ldr.w	ip, [pc, #200]	; 8000a50 <chThdCreateStatic.constprop.0.isra.0+0xe0>
  tp->refs              = (trefs_t)1;
 800098a:	2701      	movs	r7, #1
  tp->realprio          = prio;
 800098c:	f8c4 19b8 	str.w	r1, [r4, #2488]	; 0x9b8
  tp->state             = CH_STATE_WTSTART;
 8000990:	2102      	movs	r1, #2
  PORT_SETUP_CONTEXT(tp, wsp, tp, pf, arg);
 8000992:	f8c4 0984 	str.w	r0, [r4, #2436]	; 0x984
  tp = threadref(((uint8_t *)wsp + size -
 8000996:	f604 1678 	addw	r6, r4, #2424	; 0x978
  p->prev       = qp->prev;
 800099a:	6ae8      	ldr	r0, [r5, #44]	; 0x2c
  tp->state             = CH_STATE_WTSTART;
 800099c:	f8a4 199c 	strh.w	r1, [r4, #2460]	; 0x99c
  REG_INSERT(oip, tp);
 80009a0:	f604 1188 	addw	r1, r4, #2440	; 0x988
  PORT_SETUP_CONTEXT(tp, wsp, tp, pf, arg);
 80009a4:	f8c4 2954 	str.w	r2, [r4, #2388]	; 0x954
  tp->name              = name;
 80009a8:	f8c4 c994 	str.w	ip, [r4, #2452]	; 0x994
  p->next       = qp;
 80009ac:	f105 0c28 	add.w	ip, r5, #40	; 0x28
  PORT_SETUP_CONTEXT(tp, wsp, tp, pf, arg);
 80009b0:	4a26      	ldr	r2, [pc, #152]	; (8000a4c <chThdCreateStatic.constprop.0.isra.0+0xdc>)
  p->prev       = qp->prev;
 80009b2:	f8c4 098c 	str.w	r0, [r4, #2444]	; 0x98c
 80009b6:	f8c4 3958 	str.w	r3, [r4, #2392]	; 0x958
 80009ba:	f8c4 2974 	str.w	r2, [r4, #2420]	; 0x974
  ch_queue_init(&tp->msgqueue);
 80009be:	f604 12a8 	addw	r2, r4, #2472	; 0x9a8
  tp->mtxlist           = NULL;
 80009c2:	f8c4 39b4 	str.w	r3, [r4, #2484]	; 0x9b4
  tp->refs              = (trefs_t)1;
 80009c6:	f884 799e 	strb.w	r7, [r4, #2462]	; 0x99e
  tp->epending          = (eventmask_t)0;
 80009ca:	f8c4 39b0 	str.w	r3, [r4, #2480]	; 0x9b0
  p->next       = qp;
 80009ce:	f8c4 c988 	str.w	ip, [r4, #2440]	; 0x988
  tp->wabase = (stkalign_t *)wsp;
 80009d2:	f8c4 4998 	str.w	r4, [r4, #2456]	; 0x998
  tp->owner             = oip;
 80009d6:	f8c4 5990 	str.w	r5, [r4, #2448]	; 0x990
  p->prev->next = p;
 80009da:	6001      	str	r1, [r0, #0]
 *
 * @sclass
 */
void chSchWakeupS(thread_t *ntp, msg_t msg) {
  os_instance_t *oip = currcore;
  thread_t *otp = __instance_get_currthread(oip);
 80009dc:	68e8      	ldr	r0, [r5, #12]
              (oip->rlist.current->hdr.pqueue.prio >= oip->rlist.pqueue.next->prio),
              "priority order violation");

  /* Storing the message to be retrieved by the target thread when it will
     restart execution.*/
  ntp->u.rdymsg = msg;
 80009de:	f8c4 39a0 	str.w	r3, [r4, #2464]	; 0x9a0
  ch_list_init(&tp->waiting);
 80009e2:	f604 13a4 	addw	r3, r4, #2468	; 0x9a4
  qp->next = qp;
 80009e6:	f8c4 29a8 	str.w	r2, [r4, #2472]	; 0x9a8
  qp->prev = qp;
 80009ea:	f8c4 29ac 	str.w	r2, [r4, #2476]	; 0x9ac
  qp->prev      = p;
 80009ee:	62e9      	str	r1, [r5, #44]	; 0x2c
     one then it is just inserted in the ready list else it made
     running immediately and the invoking thread goes in the ready
     list instead.
     Note, we are favoring the path where the woken thread has higher
     priority.*/
  if (unlikely(ntp->hdr.pqueue.prio <= otp->hdr.pqueue.prio)) {
 80009f0:	f8d4 2980 	ldr.w	r2, [r4, #2432]	; 0x980
  lp->next = lp;
 80009f4:	f8c4 39a4 	str.w	r3, [r4, #2468]	; 0x9a4
 80009f8:	6883      	ldr	r3, [r0, #8]
 80009fa:	429a      	cmp	r2, r3
 80009fc:	d91f      	bls.n	8000a3e <chThdCreateStatic.constprop.0.isra.0+0xce>
    (void) __sch_ready_behind(ntp);
  }
  else {
    /* The old thread goes back in the ready list ahead of its peers
       because it has not exhausted its time slice.*/
    otp = __sch_ready_ahead(otp);
 80009fe:	f7ff fdf7 	bl	80005f0 <__sch_ready_ahead>
  if ((oip->trace_buffer.suspended & CH_DBG_TRACE_MASK_SWITCH) == 0U) {
 8000a02:	f8b5 3088 	ldrh.w	r3, [r5, #136]	; 0x88
    if (otp->hdr.pqueue.prio == IDLEPRIO) {
      CH_CFG_IDLE_LEAVE_HOOK();
    }

    /* The extracted thread is marked as current.*/
    ntp->state = CH_STATE_CURRENT;
 8000a06:	f884 799c 	strb.w	r7, [r4, #2460]	; 0x99c
    otp = __sch_ready_ahead(otp);
 8000a0a:	4604      	mov	r4, r0
 8000a0c:	079b      	lsls	r3, r3, #30
    __instance_set_currthread(oip, ntp);
 8000a0e:	60ee      	str	r6, [r5, #12]
 8000a10:	d507      	bpl.n	8000a22 <chThdCreateStatic.constprop.0.isra.0+0xb2>

    /* Swap operation as tail call.*/
    chSysSwitch(ntp, otp);
 8000a12:	4621      	mov	r1, r4
 8000a14:	4630      	mov	r0, r6
 8000a16:	f7ff fcf5 	bl	8000404 <__port_switch>
 8000a1a:	2300      	movs	r3, #0
 8000a1c:	f383 8811 	msr	BASEPRI, r3
}
 8000a20:	bdf8      	pop	{r3, r4, r5, r6, r7, pc}
    oip->trace_buffer.ptr->type        = CH_TRACE_TYPE_SWITCH;
 8000a22:	f890 3024 	ldrb.w	r3, [r0, #36]	; 0x24
 8000a26:	6a81      	ldr	r1, [r0, #40]	; 0x28
 8000a28:	00db      	lsls	r3, r3, #3
 8000a2a:	f8d5 208c 	ldr.w	r2, [r5, #140]	; 0x8c
 8000a2e:	f043 0302 	orr.w	r3, r3, #2
    oip->trace_buffer.ptr->u.sw.wtobjp = otp->u.wtobjp;
 8000a32:	e9c2 6102 	strd	r6, r1, [r2, #8]
    oip->trace_buffer.ptr->type        = CH_TRACE_TYPE_SWITCH;
 8000a36:	7013      	strb	r3, [r2, #0]
    trace_next(oip);
 8000a38:	f7ff fd6a 	bl	8000510 <trace_next.constprop.0>
 8000a3c:	e7e9      	b.n	8000a12 <chThdCreateStatic.constprop.0.isra.0+0xa2>
    (void) __sch_ready_behind(ntp);
 8000a3e:	4630      	mov	r0, r6
 8000a40:	f7ff fdfe 	bl	8000640 <__sch_ready_behind.isra.0>
 8000a44:	e7e9      	b.n	8000a1a <chThdCreateStatic.constprop.0.isra.0+0xaa>
 8000a46:	bf00      	nop
 8000a48:	24000000 	.word	0x24000000
 8000a4c:	0800041d 	.word	0x0800041d
 8000a50:	08001318 	.word	0x08001318
	...

08000a60 <__cpu_init>:
 */
#if !defined(__DOXYGEN__)
__attribute__((weak))
#endif
/*lint -save -e9075 [8.4] All symbols are invoked from asm context.*/
void __cpu_init(void) {
 8000a60:	b510      	push	{r4, lr}
  \details Acts as a special kind of Data Memory Barrier.
           It completes when all explicit memory accesses before this instruction complete.
 */
__STATIC_FORCEINLINE void __DSB(void)
{
  __ASM volatile ("dsb 0xF":::"memory");
 8000a62:	f3bf 8f4f 	dsb	sy
  __ASM volatile ("isb 0xF":::"memory");
 8000a66:	f3bf 8f6f 	isb	sy
__STATIC_INLINE void SCB_EnableICache (void)
{
  #if defined (__ICACHE_PRESENT) && (__ICACHE_PRESENT == 1U)
    __DSB();
    __ISB();
    SCB->ICIALLU = 0UL;                     /* invalidate I-Cache */
 8000a6a:	481c      	ldr	r0, [pc, #112]	; (8000adc <__cpu_init+0x7c>)
 8000a6c:	2200      	movs	r2, #0
 8000a6e:	f8c0 2250 	str.w	r2, [r0, #592]	; 0x250
  __ASM volatile ("dsb 0xF":::"memory");
 8000a72:	f3bf 8f4f 	dsb	sy
  __ASM volatile ("isb 0xF":::"memory");
 8000a76:	f3bf 8f6f 	isb	sy
    __DSB();
    __ISB();
    SCB->CCR |=  (uint32_t)SCB_CCR_IC_Msk;  /* enable I-Cache */
 8000a7a:	6943      	ldr	r3, [r0, #20]
 8000a7c:	f443 3300 	orr.w	r3, r3, #131072	; 0x20000
 8000a80:	6143      	str	r3, [r0, #20]
  __ASM volatile ("dsb 0xF":::"memory");
 8000a82:	f3bf 8f4f 	dsb	sy
  __ASM volatile ("isb 0xF":::"memory");
 8000a86:	f3bf 8f6f 	isb	sy
  #if defined (__DCACHE_PRESENT) && (__DCACHE_PRESENT == 1U)
    uint32_t ccsidr;
    uint32_t sets;
    uint32_t ways;

    SCB->CSSELR = 0U; /*(0U << 1U) | 0U;*/  /* Level 1 data cache */
 8000a8a:	f8c0 2084 	str.w	r2, [r0, #132]	; 0x84
  __ASM volatile ("dsb 0xF":::"memory");
 8000a8e:	f3bf 8f4f 	dsb	sy
    __DSB();

    ccsidr = SCB->CCSIDR;
 8000a92:	f8d0 3080 	ldr.w	r3, [r0, #128]	; 0x80
                                            /* invalidate D-Cache */
    sets = (uint32_t)(CCSIDR_SETS(ccsidr));
    do {
      ways = (uint32_t)(CCSIDR_WAYS(ccsidr));
      do {
        SCB->DCISW = (((sets << SCB_DCISW_SET_Pos) & SCB_DCISW_SET_Msk) |
 8000a96:	f643 74e0 	movw	r4, #16352	; 0x3fe0
    sets = (uint32_t)(CCSIDR_SETS(ccsidr));
 8000a9a:	f3c3 3c4e 	ubfx	ip, r3, #13, #15
      ways = (uint32_t)(CCSIDR_WAYS(ccsidr));
 8000a9e:	f3c3 0ec9 	ubfx	lr, r3, #3, #10
 8000aa2:	ea4f 1c4c 	mov.w	ip, ip, lsl #5
        SCB->DCISW = (((sets << SCB_DCISW_SET_Pos) & SCB_DCISW_SET_Msk) |
 8000aa6:	ea0c 0104 	and.w	r1, ip, r4
      ways = (uint32_t)(CCSIDR_WAYS(ccsidr));
 8000aaa:	4673      	mov	r3, lr
        SCB->DCISW = (((sets << SCB_DCISW_SET_Pos) & SCB_DCISW_SET_Msk) |
 8000aac:	ea41 7283 	orr.w	r2, r1, r3, lsl #30
                      ((ways << SCB_DCISW_WAY_Pos) & SCB_DCISW_WAY_Msk)  );
        #if defined ( __CC_ARM )
          __schedule_barrier();
        #endif
      } while (ways-- != 0U);
 8000ab0:	3b01      	subs	r3, #1
        SCB->DCISW = (((sets << SCB_DCISW_SET_Pos) & SCB_DCISW_SET_Msk) |
 8000ab2:	f8c0 2260 	str.w	r2, [r0, #608]	; 0x260
      } while (ways-- != 0U);
 8000ab6:	1c5a      	adds	r2, r3, #1
 8000ab8:	d1f8      	bne.n	8000aac <__cpu_init+0x4c>
    } while(sets-- != 0U);
 8000aba:	f1ac 0c20 	sub.w	ip, ip, #32
 8000abe:	f11c 0f20 	cmn.w	ip, #32
 8000ac2:	d1f0      	bne.n	8000aa6 <__cpu_init+0x46>
 8000ac4:	f3bf 8f4f 	dsb	sy
    __DSB();

    SCB->CCR |=  (uint32_t)SCB_CCR_DC_Msk;  /* enable D-Cache */
 8000ac8:	6943      	ldr	r3, [r0, #20]
 8000aca:	f443 3380 	orr.w	r3, r3, #65536	; 0x10000
 8000ace:	6143      	str	r3, [r0, #20]
 8000ad0:	f3bf 8f4f 	dsb	sy
  __ASM volatile ("isb 0xF":::"memory");
 8000ad4:	f3bf 8f6f 	isb	sy

#if CORTEX_MODEL == 7
  SCB_EnableICache();
  SCB_EnableDCache();
#endif
}
 8000ad8:	bd10      	pop	{r4, pc}
 8000ada:	bf00      	nop
 8000adc:	e000ed00 	.word	0xe000ed00

08000ae0 <__early_init>:
#if !defined(__DOXYGEN__)
__attribute__((weak))
#endif
/*lint -save -e9075 [8.4] All symbols are invoked from asm context.*/
#ifndef _ARDUPILOT_
void __early_init(void) {}
 8000ae0:	4770      	bx	lr
 8000ae2:	bf00      	nop
	...

08000af0 <__late_init>:
 8000af0:	4770      	bx	lr
 8000af2:	bf00      	nop
	...

08000b00 <__default_exit>:
#endif
/*lint -save -e9075 [8.4] All symbols are invoked from asm context.*/
void __default_exit(void) {
/*lint -restore*/

  while (true) {
 8000b00:	e7fe      	b.n	8000b00 <__default_exit>
 8000b02:	bf00      	nop
	...

08000b10 <__init_ram_areas>:
#endif

/**
 * @brief   Performs the initialization of the various RAM areas.
 */
void __init_ram_areas(void) {
 8000b10:	b5f8      	push	{r3, r4, r5, r6, r7, lr}
 8000b12:	4d2b      	ldr	r5, [pc, #172]	; (8000bc0 <__init_ram_areas+0xb0>)
 8000b14:	4f2b      	ldr	r7, [pc, #172]	; (8000bc4 <__init_ram_areas+0xb4>)
 8000b16:	492c      	ldr	r1, [pc, #176]	; (8000bc8 <__init_ram_areas+0xb8>)
 8000b18:	f105 0470 	add.w	r4, r5, #112	; 0x70
 8000b1c:	482b      	ldr	r0, [pc, #172]	; (8000bcc <__init_ram_areas+0xbc>)
 8000b1e:	4a2c      	ldr	r2, [pc, #176]	; (8000bd0 <__init_ram_areas+0xc0>)
  do {
    uint32_t *tp = rap->init_text_area;
    uint32_t *p = rap->init_area;

    /* Copying initialization data.*/
    while (p < rap->clear_area) {
 8000b20:	4288      	cmp	r0, r1
 8000b22:	d20d      	bcs.n	8000b40 <__init_ram_areas+0x30>
 8000b24:	3a04      	subs	r2, #4
 8000b26:	4603      	mov	r3, r0
      *p = *tp;
 8000b28:	f852 6f04 	ldr.w	r6, [r2, #4]!
 8000b2c:	f843 6b04 	str.w	r6, [r3], #4
    while (p < rap->clear_area) {
 8000b30:	428b      	cmp	r3, r1
 8000b32:	d3f9      	bcc.n	8000b28 <__init_ram_areas+0x18>
      p++;
 8000b34:	1e4b      	subs	r3, r1, #1
 8000b36:	1a1b      	subs	r3, r3, r0
 8000b38:	f023 0303 	bic.w	r3, r3, #3
 8000b3c:	3304      	adds	r3, #4
 8000b3e:	4418      	add	r0, r3
      tp++;
    }

    /* Zeroing clear area.*/
    while (p < rap->no_init_area) {
 8000b40:	42b8      	cmp	r0, r7
 8000b42:	d207      	bcs.n	8000b54 <__init_ram_areas+0x44>
      *p = 0;
 8000b44:	3f01      	subs	r7, #1
 8000b46:	2100      	movs	r1, #0
 8000b48:	1a3f      	subs	r7, r7, r0
 8000b4a:	f027 0203 	bic.w	r2, r7, #3
 8000b4e:	3204      	adds	r2, #4
 8000b50:	f000 fb84 	bl	800125c <memset>
      p++;
    }
    rap++;
  }
  while (rap < &ram_areas[CRT0_AREAS_NUMBER]);
 8000b54:	42a5      	cmp	r5, r4
 8000b56:	d005      	beq.n	8000b64 <__init_ram_areas+0x54>
    uint32_t *p = rap->init_area;
 8000b58:	e9d5 2004 	ldrd	r2, r0, [r5, #16]
    while (p < rap->no_init_area) {
 8000b5c:	e9d5 1706 	ldrd	r1, r7, [r5, #24]
 8000b60:	3510      	adds	r5, #16
 8000b62:	e7dd      	b.n	8000b20 <__init_ram_areas+0x10>
  #if defined (__DCACHE_PRESENT) && (__DCACHE_PRESENT == 1U)
    uint32_t ccsidr;
    uint32_t sets;
    uint32_t ways;

     SCB->CSSELR = 0U; /*(0U << 1U) | 0U;*/  /* Level 1 data cache */
 8000b64:	481b      	ldr	r0, [pc, #108]	; (8000bd4 <__init_ram_areas+0xc4>)
 8000b66:	2300      	movs	r3, #0
 8000b68:	f8c0 3084 	str.w	r3, [r0, #132]	; 0x84
  __ASM volatile ("dsb 0xF":::"memory");
 8000b6c:	f3bf 8f4f 	dsb	sy
   __DSB();

    ccsidr = SCB->CCSIDR;
 8000b70:	f8d0 5080 	ldr.w	r5, [r0, #128]	; 0x80
                                            /* clean D-Cache */
    sets = (uint32_t)(CCSIDR_SETS(ccsidr));
    do {
      ways = (uint32_t)(CCSIDR_WAYS(ccsidr));
      do {
        SCB->DCCSW = (((sets << SCB_DCCSW_SET_Pos) & SCB_DCCSW_SET_Msk) |
 8000b74:	f643 76e0 	movw	r6, #16352	; 0x3fe0
    sets = (uint32_t)(CCSIDR_SETS(ccsidr));
 8000b78:	f3c5 344e 	ubfx	r4, r5, #13, #15
      ways = (uint32_t)(CCSIDR_WAYS(ccsidr));
 8000b7c:	f3c5 05c9 	ubfx	r5, r5, #3, #10
 8000b80:	0164      	lsls	r4, r4, #5
        SCB->DCCSW = (((sets << SCB_DCCSW_SET_Pos) & SCB_DCCSW_SET_Msk) |
 8000b82:	ea04 0106 	and.w	r1, r4, r6
      ways = (uint32_t)(CCSIDR_WAYS(ccsidr));
 8000b86:	462b      	mov	r3, r5
        SCB->DCCSW = (((sets << SCB_DCCSW_SET_Pos) & SCB_DCCSW_SET_Msk) |
 8000b88:	ea41 7283 	orr.w	r2, r1, r3, lsl #30
                      ((ways << SCB_DCCSW_WAY_Pos) & SCB_DCCSW_WAY_Msk)  );
        #if defined ( __CC_ARM )
          __schedule_barrier();
        #endif
      } while (ways-- != 0U);
 8000b8c:	3b01      	subs	r3, #1
        SCB->DCCSW = (((sets << SCB_DCCSW_SET_Pos) & SCB_DCCSW_SET_Msk) |
 8000b8e:	f8c0 226c 	str.w	r2, [r0, #620]	; 0x26c
      } while (ways-- != 0U);
 8000b92:	1c5a      	adds	r2, r3, #1
 8000b94:	d1f8      	bne.n	8000b88 <__init_ram_areas+0x78>
    } while(sets-- != 0U);
 8000b96:	3c20      	subs	r4, #32
 8000b98:	f114 0f20 	cmn.w	r4, #32
 8000b9c:	d1f1      	bne.n	8000b82 <__init_ram_areas+0x72>
 8000b9e:	f3bf 8f4f 	dsb	sy
  __ASM volatile ("isb 0xF":::"memory");
 8000ba2:	f3bf 8f6f 	isb	sy
  __ASM volatile ("dsb 0xF":::"memory");
 8000ba6:	f3bf 8f4f 	dsb	sy
  __ASM volatile ("isb 0xF":::"memory");
 8000baa:	f3bf 8f6f 	isb	sy
    SCB->ICIALLU = 0UL;
 8000bae:	2300      	movs	r3, #0
 8000bb0:	f8c0 3250 	str.w	r3, [r0, #592]	; 0x250
  __ASM volatile ("dsb 0xF":::"memory");
 8000bb4:	f3bf 8f4f 	dsb	sy
  __ASM volatile ("isb 0xF":::"memory");
 8000bb8:	f3bf 8f6f 	isb	sy
     for self-modifying code.*/
  SCB_CleanDCache();
  SCB_InvalidateICache();
#endif
#endif
}
 8000bbc:	bdf8      	pop	{r3, r4, r5, r6, r7, pc}
 8000bbe:	bf00      	nop
 8000bc0:	08001378 	.word	0x08001378
 8000bc4:	24001e88 	.word	0x24001e88
 8000bc8:	24001e88 	.word	0x24001e88
 8000bcc:	24001e88 	.word	0x24001e88
 8000bd0:	080013f8 	.word	0x080013f8
 8000bd4:	e000ed00 	.word	0xe000ed00
	...

08000be0 <VectorB0>:
/**
 * @brief   TIM2 interrupt handler.
 *
 * @isr
 */
OSAL_IRQ_HANDLER(STM32_TIM2_HANDLER) {
 8000be0:	e92d 47f0 	stmdb	sp!, {r4, r5, r6, r7, r8, r9, sl, lr}
 * @notapi
 */
void __trace_isr_enter(const char *isr) {
  os_instance_t *oip = currcore;

  if ((oip->trace_buffer.suspended & CH_DBG_TRACE_MASK_ISR) == 0U) {
 8000be4:	4d69      	ldr	r5, [pc, #420]	; (8000d8c <VectorB0+0x1ac>)
 8000be6:	f8b5 3088 	ldrh.w	r3, [r5, #136]	; 0x88
 8000bea:	f013 0404 	ands.w	r4, r3, #4
 8000bee:	d01b      	beq.n	8000c28 <VectorB0+0x48>
void st_lld_serve_interrupt(void) {
#if OSAL_ST_MODE == OSAL_ST_MODE_FREERUNNING
  uint32_t sr;
  stm32_tim_t *timp = STM32_ST_TIM;

  sr  = timp->SR;
 8000bf0:	f04f 4680 	mov.w	r6, #1073741824	; 0x40000000
 8000bf4:	6933      	ldr	r3, [r6, #16]
  sr &= timp->DIER & STM32_TIM_DIER_IRQ_MASK;
 8000bf6:	68f2      	ldr	r2, [r6, #12]
 8000bf8:	4013      	ands	r3, r2
 8000bfa:	b2da      	uxtb	r2, r3
  timp->SR = ~sr;

  if ((sr & TIM_SR_CC1IF) != 0U)
 8000bfc:	079b      	lsls	r3, r3, #30
  timp->SR = ~sr;
 8000bfe:	ea6f 0202 	mvn.w	r2, r2
 8000c02:	6132      	str	r2, [r6, #16]
  if ((sr & TIM_SR_CC1IF) != 0U)
 8000c04:	d42c      	bmi.n	8000c60 <VectorB0+0x80>
 * @notapi
 */
void __trace_isr_leave(const char *isr) {
  os_instance_t *oip = currcore;

  if ((oip->trace_buffer.suspended & CH_DBG_TRACE_MASK_ISR) == 0U) {
 8000c06:	f8b5 3088 	ldrh.w	r3, [r5, #136]	; 0x88
 8000c0a:	f013 0404 	ands.w	r4, r3, #4
 8000c0e:	d019      	beq.n	8000c44 <VectorB0+0x64>
  __ASM volatile ("MSR basepri, %0" : : "r" (basePri) : "memory");
 8000c10:	2330      	movs	r3, #48	; 0x30
 8000c12:	f383 8811 	msr	BASEPRI, r3
 * @brief   Exception exit redirection to @p __port_switch_from_isr().
 */
void __port_irq_epilogue(void) {

  port_lock_from_isr();
  if ((SCB->ICSR & SCB_ICSR_RETTOBASE_Msk) != 0U) {
 8000c16:	4b5e      	ldr	r3, [pc, #376]	; (8000d90 <VectorB0+0x1b0>)
 8000c18:	685b      	ldr	r3, [r3, #4]
 8000c1a:	f413 6300 	ands.w	r3, r3, #2048	; 0x800
 8000c1e:	d179      	bne.n	8000d14 <VectorB0+0x134>
 8000c20:	f383 8811 	msr	BASEPRI, r3
  st_lld_serve_interrupt();
#endif
#endif

  OSAL_IRQ_EPILOGUE();
}
 8000c24:	e8bd 87f0 	ldmia.w	sp!, {r4, r5, r6, r7, r8, r9, sl, pc}
 8000c28:	2330      	movs	r3, #48	; 0x30
 8000c2a:	f383 8811 	msr	BASEPRI, r3
    oip->trace_buffer.ptr->type        = CH_TRACE_TYPE_ISR_ENTER;
 8000c2e:	2103      	movs	r1, #3
 8000c30:	f8d5 308c 	ldr.w	r3, [r5, #140]	; 0x8c
    oip->trace_buffer.ptr->u.isr.name  = isr;
 8000c34:	4a57      	ldr	r2, [pc, #348]	; (8000d94 <VectorB0+0x1b4>)
    oip->trace_buffer.ptr->type        = CH_TRACE_TYPE_ISR_ENTER;
 8000c36:	7019      	strb	r1, [r3, #0]
    oip->trace_buffer.ptr->u.isr.name  = isr;
 8000c38:	609a      	str	r2, [r3, #8]
    trace_next(oip);
 8000c3a:	f7ff fc69 	bl	8000510 <trace_next.constprop.0>
 8000c3e:	f384 8811 	msr	BASEPRI, r4
}
 8000c42:	e7d5      	b.n	8000bf0 <VectorB0+0x10>
 8000c44:	2330      	movs	r3, #48	; 0x30
 8000c46:	f383 8811 	msr	BASEPRI, r3
    port_lock_from_isr();
    oip->trace_buffer.ptr->type        = CH_TRACE_TYPE_ISR_LEAVE;
 8000c4a:	2104      	movs	r1, #4
 8000c4c:	f8d5 308c 	ldr.w	r3, [r5, #140]	; 0x8c
    oip->trace_buffer.ptr->state       = 0U;
    oip->trace_buffer.ptr->u.isr.name  = isr;
 8000c50:	4a50      	ldr	r2, [pc, #320]	; (8000d94 <VectorB0+0x1b4>)
    oip->trace_buffer.ptr->type        = CH_TRACE_TYPE_ISR_LEAVE;
 8000c52:	7019      	strb	r1, [r3, #0]
    oip->trace_buffer.ptr->u.isr.name  = isr;
 8000c54:	609a      	str	r2, [r3, #8]
    trace_next(oip);
 8000c56:	f7ff fc5b 	bl	8000510 <trace_next.constprop.0>
 8000c5a:	f384 8811 	msr	BASEPRI, r4
    port_unlock_from_isr();
  }
}
 8000c5e:	e7d7      	b.n	8000c10 <VectorB0+0x30>
 8000c60:	2330      	movs	r3, #48	; 0x30
 8000c62:	f383 8811 	msr	BASEPRI, r3
 *          to acquire the lock if needed. This is done in order to reduce
 *          interrupts jitter when many timers are in use.
 *
 * @iclass
 */
void chVTDoTickI(void) {
 8000c66:	4f4c      	ldr	r7, [pc, #304]	; (8000d98 <VectorB0+0x1b8>)
    lasttime = chTimeAddX(vtlp->lasttime, vtp->dlist.delta);
    vtlp->lasttime = lasttime;

    /* Removing the timer from the list, marking it as not armed.*/
    (void) ch_dlist_dequeue(&vtp->dlist);
    vtp->dlist.next = NULL;
 8000c68:	f04f 0900 	mov.w	r9, #0
 8000c6c:	f04f 0830 	mov.w	r8, #48	; 0x30
 8000c70:	e009      	b.n	8000c86 <VectorB0+0xa6>
 8000c72:	f389 8811 	msr	BASEPRI, r9
    /* The callback is invoked outside the kernel critical section, it
       is re-entered on the callback return. Note that "lasttime" can be
       modified within the callback if some timer function is called.*/
    chSysUnlockFromISR();

    vtp->func(vtp, vtp->par);
 8000c76:	e9d4 3103 	ldrd	r3, r1, [r4, #12]
 8000c7a:	4620      	mov	r0, r4
 8000c7c:	4798      	blx	r3
 8000c7e:	f388 8811 	msr	BASEPRI, r8

    chSysLockFromISR();

    /* If a reload is defined the timer needs to be restarted.*/
    if (unlikely(vtp->reload > (sysinterval_t)0)) {
 8000c82:	6963      	ldr	r3, [r4, #20]
 8000c84:	b9b3      	cbnz	r3, 8000cb4 <VectorB0+0xd4>
    nowdelta = chTimeDiffX(vtlp->lasttime, now);
 8000c86:	69eb      	ldr	r3, [r5, #28]
 8000c88:	6a71      	ldr	r1, [r6, #36]	; 0x24
    vtp = (virtual_timer_t *)vtlp->dlist.next;
 8000c8a:	692c      	ldr	r4, [r5, #16]
  return (sysinterval_t)((systime_t)(end - start));
 8000c8c:	1ac8      	subs	r0, r1, r3
    if (nowdelta < vtp->dlist.delta) {
 8000c8e:	68a2      	ldr	r2, [r4, #8]
 8000c90:	4290      	cmp	r0, r2
  return systime + (systime_t)interval;
 8000c92:	eb03 0a02 	add.w	sl, r3, r2
 8000c96:	d32a      	bcc.n	8000cee <VectorB0+0x10e>
  dlp->prev->next = dlp->next;
 8000c98:	e9d4 3200 	ldrd	r3, r2, [r4]
    vtlp->lasttime = lasttime;
 8000c9c:	f8c5 a01c 	str.w	sl, [r5, #28]
 8000ca0:	6013      	str	r3, [r2, #0]
  dlp->next->prev = dlp->prev;
 8000ca2:	605a      	str	r2, [r3, #4]
    vtp->dlist.next = NULL;
 8000ca4:	f8c4 9000 	str.w	r9, [r4]
    if (ch_dlist_isempty(&vtlp->dlist)) {
 8000ca8:	692b      	ldr	r3, [r5, #16]
 8000caa:	42bb      	cmp	r3, r7
 8000cac:	d1e1      	bne.n	8000c72 <VectorB0+0x92>
  STM32_ST_TIM->DIER = 0U;
 8000cae:	f8c6 900c 	str.w	r9, [r6, #12]
 8000cb2:	e7de      	b.n	8000c72 <VectorB0+0x92>
  return (systime_t)STM32_ST_TIM->CNT;
 8000cb4:	6a71      	ldr	r1, [r6, #36]	; 0x24
  return (sysinterval_t)((systime_t)(end - start));
 8000cb6:	eba1 000a 	sub.w	r0, r1, sl
      now = chVTGetSystemTimeX();
      nowdelta = chTimeDiffX(lasttime, now);

#if !defined(CH_VT_RFCU_DISABLED)
      /* Checking if the required reload is feasible.*/
      if (nowdelta > vtp->reload) {
 8000cba:	4283      	cmp	r3, r0
 8000cbc:	d342      	bcc.n	8000d44 <VectorB0+0x164>
  return (bool)(dlhp == dlhp->next);
 8000cbe:	692a      	ldr	r2, [r5, #16]
      /* Enqueuing the timer again using the calculated delta.*/
      delay = vtp->reload - nowdelta;
#endif

      /* Special case where the timers list is empty.*/
      if (ch_dlist_isempty(&vtlp->dlist)) {
 8000cc0:	42ba      	cmp	r2, r7
 8000cc2:	d059      	beq.n	8000d78 <VectorB0+0x198>
  while (likely(dlp->delta < delta)) {
 8000cc4:	6891      	ldr	r1, [r2, #8]
 8000cc6:	428b      	cmp	r3, r1
 8000cc8:	d904      	bls.n	8000cd4 <VectorB0+0xf4>
    dlp = dlp->next;
 8000cca:	6812      	ldr	r2, [r2, #0]
    delta -= dlp->delta;
 8000ccc:	1a5b      	subs	r3, r3, r1
  while (likely(dlp->delta < delta)) {
 8000cce:	6891      	ldr	r1, [r2, #8]
 8000cd0:	4299      	cmp	r1, r3
 8000cd2:	d3fa      	bcc.n	8000cca <VectorB0+0xea>
  dlp->delta      = delta;
 8000cd4:	60a3      	str	r3, [r4, #8]
  dlp->delta -= delta;
 8000cd6:	6891      	ldr	r1, [r2, #8]
  dlp->next       = dlhp;
 8000cd8:	6022      	str	r2, [r4, #0]
  dlp->delta -= delta;
 8000cda:	1acb      	subs	r3, r1, r3
  dlp->prev       = dlp->next->prev;
 8000cdc:	6851      	ldr	r1, [r2, #4]
 8000cde:	6061      	str	r1, [r4, #4]
  dlp->prev->next = dlp;
 8000ce0:	600c      	str	r4, [r1, #0]
  dlp->delta -= delta;
 8000ce2:	e9c2 4301 	strd	r4, r3, [r2, #4]
  dlhp->delta = (sysinterval_t)-1;
 8000ce6:	f04f 33ff 	mov.w	r3, #4294967295	; 0xffffffff
 8000cea:	61ab      	str	r3, [r5, #24]
}
 8000cec:	e7be      	b.n	8000c6c <VectorB0+0x8c>
      ch_dlist_insert(&vtlp->dlist, &vtp->dlist, delta);
    }
  }

  /* If the list is empty, nothing else to do.*/
  if (ch_dlist_isempty(&vtlp->dlist)) {
 8000cee:	42bc      	cmp	r4, r7
 8000cf0:	d00c      	beq.n	8000d0c <VectorB0+0x12c>
  }

  /* The "unprocessed nowdelta" time slice is added to "last time"
     and subtracted to next timer's delta.*/
  vtlp->lasttime += nowdelta;
  vtp->dlist.delta -= nowdelta;
 8000cf2:	4413      	add	r3, r2
  vtlp->lasttime += nowdelta;
 8000cf4:	61e9      	str	r1, [r5, #28]
  vtp->dlist.delta -= nowdelta;
 8000cf6:	1a5b      	subs	r3, r3, r1
 8000cf8:	2b02      	cmp	r3, #2
 8000cfa:	60a3      	str	r3, [r4, #8]
  if (delay < currdelta) {
 8000cfc:	bf38      	it	cc
 8000cfe:	2302      	movcc	r3, #2
  return systime + (systime_t)interval;
 8000d00:	18ca      	adds	r2, r1, r3
  STM32_ST_TIM->CCR[0] = (uint32_t)abstime;
 8000d02:	6372      	str	r2, [r6, #52]	; 0x34
  return (systime_t)STM32_ST_TIM->CNT;
 8000d04:	6a72      	ldr	r2, [r6, #36]	; 0x24
  return (sysinterval_t)((systime_t)(end - start));
 8000d06:	1a51      	subs	r1, r2, r1
    if (likely(nowdelta < delay)) {
 8000d08:	428b      	cmp	r3, r1
 8000d0a:	d924      	bls.n	8000d56 <VectorB0+0x176>
 8000d0c:	2300      	movs	r3, #0
 8000d0e:	f383 8811 	msr	BASEPRI, r3
 * @special
 */
static inline void osalSysUnlockFromISR(void) {

  chSysUnlockFromISR();
}
 8000d12:	e778      	b.n	8000c06 <VectorB0+0x26>
  return __builtin_arm_get_fpscr();
 8000d14:	eef1 3a10 	vmrs	r3, fpscr
  __ASM volatile ("MRS %0, psp"  : "=r" (result) );
 8000d18:	f3ef 8309 	mrs	r3, PSP

    /* The port_extctx structure is pointed by the S-PSP register.*/
    ectxp = (struct port_extctx *)s_psp;

    /* Setting up a fake XPSR register value.*/
    ectxp->xpsr = 0x01000000U;
 8000d1c:	f04f 7180 	mov.w	r1, #16777216	; 0x1000000
#if CORTEX_USE_FPU == TRUE
    ectxp->fpscr = FPU->FPDSCR;
 8000d20:	4a1e      	ldr	r2, [pc, #120]	; (8000d9c <VectorB0+0x1bc>)
    s_psp -= sizeof (struct port_extctx);
 8000d22:	3b68      	subs	r3, #104	; 0x68
    ectxp->xpsr = 0x01000000U;
 8000d24:	61d9      	str	r1, [r3, #28]
    ectxp->fpscr = FPU->FPDSCR;
 8000d26:	6bd2      	ldr	r2, [r2, #60]	; 0x3c
 8000d28:	661a      	str	r2, [r3, #96]	; 0x60
  __ASM volatile ("MSR psp, %0" : : "r" (topOfProcStack) : );
 8000d2a:	f383 8809 	msr	PSP, r3
 */
bool chSchIsPreemptionRequired(void) {
  os_instance_t *oip = currcore;
  thread_t *tp = __instance_get_currthread(oip);

  tprio_t p1 = firstprio(&oip->rlist.pqueue);
 8000d2e:	6829      	ldr	r1, [r5, #0]
  tprio_t p2 = tp->hdr.pqueue.prio;
 8000d30:	68ea      	ldr	r2, [r5, #12]
    /* Writing back the modified S-PSP value.*/
    __set_PSP(s_psp);

    /* The exit sequence is different depending on if a preemption is
       required or not.*/
    if (chSchIsPreemptionRequired()) {
 8000d32:	6889      	ldr	r1, [r1, #8]
 8000d34:	6892      	ldr	r2, [r2, #8]
 8000d36:	4291      	cmp	r1, r2
      /* Preemption is required we need to enforce a context switch.*/
      ectxp->pc = (uint32_t)__port_switch_from_isr;
 8000d38:	bf8c      	ite	hi
 8000d3a:	4a19      	ldrhi	r2, [pc, #100]	; (8000da0 <VectorB0+0x1c0>)
    }
    else {
      /* Preemption not required, we just need to exit the exception
         atomically.*/
      ectxp->pc = (uint32_t)__port_exit_from_isr;
 8000d3c:	4a19      	ldrls	r2, [pc, #100]	; (8000da4 <VectorB0+0x1c4>)
 8000d3e:	619a      	str	r2, [r3, #24]
 8000d40:	e8bd 87f0 	ldmia.w	sp!, {r4, r5, r6, r7, r8, r9, sl, pc}
  currcore->rfcu.mask |= mask;
 8000d44:	6b6b      	ldr	r3, [r5, #52]	; 0x34
  return (bool)(dlhp == dlhp->next);
 8000d46:	692a      	ldr	r2, [r5, #16]
 8000d48:	f043 0302 	orr.w	r3, r3, #2
      if (ch_dlist_isempty(&vtlp->dlist)) {
 8000d4c:	42ba      	cmp	r2, r7
 8000d4e:	636b      	str	r3, [r5, #52]	; 0x34
 8000d50:	d018      	beq.n	8000d84 <VectorB0+0x1a4>
 8000d52:	4603      	mov	r3, r0
 8000d54:	e7b6      	b.n	8000cc4 <VectorB0+0xe4>
    if (likely(nowdelta < delay)) {
 8000d56:	2302      	movs	r3, #2
  STM32_ST_TIM->CCR[0] = (uint32_t)abstime;
 8000d58:	f04f 4180 	mov.w	r1, #1073741824	; 0x40000000
    currdelta += (sysinterval_t)1;
 8000d5c:	3301      	adds	r3, #1
  return systime + (systime_t)interval;
 8000d5e:	18d0      	adds	r0, r2, r3
 8000d60:	6348      	str	r0, [r1, #52]	; 0x34
  return (systime_t)STM32_ST_TIM->CNT;
 8000d62:	6a48      	ldr	r0, [r1, #36]	; 0x24
  return (sysinterval_t)((systime_t)(end - start));
 8000d64:	1a82      	subs	r2, r0, r2
    if (likely(nowdelta < delay)) {
 8000d66:	429a      	cmp	r2, r3
 8000d68:	d20e      	bcs.n	8000d88 <VectorB0+0x1a8>
  if (currdelta > CH_CFG_ST_TIMEDELTA) {
 8000d6a:	2b02      	cmp	r3, #2
 8000d6c:	d9ce      	bls.n	8000d0c <VectorB0+0x12c>
 8000d6e:	6b6b      	ldr	r3, [r5, #52]	; 0x34
 8000d70:	f043 0301 	orr.w	r3, r3, #1
 8000d74:	636b      	str	r3, [r5, #52]	; 0x34
}
 8000d76:	e7c9      	b.n	8000d0c <VectorB0+0x12c>
        delay = vtp->reload - nowdelta;
 8000d78:	4453      	add	r3, sl
 8000d7a:	1a5a      	subs	r2, r3, r1
        vt_insert_first(vtlp, vtp, now, delay);
 8000d7c:	4620      	mov	r0, r4
 8000d7e:	f7ff fcd7 	bl	8000730 <vt_insert_first.constprop.0>
        return;
 8000d82:	e7c3      	b.n	8000d0c <VectorB0+0x12c>
        delay = (sysinterval_t)0;
 8000d84:	2200      	movs	r2, #0
 8000d86:	e7f9      	b.n	8000d7c <VectorB0+0x19c>
 8000d88:	4602      	mov	r2, r0
 8000d8a:	e7e7      	b.n	8000d5c <VectorB0+0x17c>
 8000d8c:	24000000 	.word	0x24000000
 8000d90:	e000ed00 	.word	0xe000ed00
 8000d94:	0800132c 	.word	0x0800132c
 8000d98:	24000010 	.word	0x24000010
 8000d9c:	e000ef00 	.word	0xe000ef00
 8000da0:	0800042f 	.word	0x0800042f
 8000da4:	08000432 	.word	0x08000432
	...

08000db0 <chSchDoPreemption>:
 * @note    Not a user function, it is meant to be invoked from within
 *          the port layer in the IRQ-related preemption code.
 *
 * @special
 */
void chSchDoPreemption(void) {
 8000db0:	b570      	push	{r4, r5, r6, lr}
  os_instance_t *oip = currcore;
  thread_t *otp = __instance_get_currthread(oip);
 8000db2:	4c15      	ldr	r4, [pc, #84]	; (8000e08 <chSchDoPreemption+0x58>)
  thread_t *ntp;

  /* Picks the first thread from the ready queue and makes it current.*/
  ntp = threadref(ch_pqueue_remove_highest(&oip->rlist.pqueue));
  ntp->state = CH_STATE_CURRENT;
 8000db4:	2201      	movs	r2, #1
  ch_priority_queue_t *p = pqp->next;
 8000db6:	6825      	ldr	r5, [r4, #0]
  thread_t *otp = __instance_get_currthread(oip);
 8000db8:	68e0      	ldr	r0, [r4, #12]
  pqp->next       = p->next;
 8000dba:	682b      	ldr	r3, [r5, #0]
  pqp->next->prev = pqp;
 8000dbc:	605c      	str	r4, [r3, #4]
  ntp->state = CH_STATE_CURRENT;
 8000dbe:	f885 2024 	strb.w	r2, [r5, #36]	; 0x24
  pqp->next       = p->next;
 8000dc2:	6023      	str	r3, [r4, #0]
  __instance_set_currthread(oip, ntp);
 8000dc4:	60e5      	str	r5, [r4, #12]
    otp = __sch_ready_ahead(otp);
  }
#else /* !(CH_CFG_TIME_QUANTUM > 0) */
  /* If the round-robin mechanism is disabled then the thread goes always
     ahead of its peers.*/
  otp = __sch_ready_ahead(otp);
 8000dc6:	f7ff fc13 	bl	80005f0 <__sch_ready_ahead>
  if ((oip->trace_buffer.suspended & CH_DBG_TRACE_MASK_SWITCH) == 0U) {
 8000dca:	f8b4 3088 	ldrh.w	r3, [r4, #136]	; 0x88
 8000dce:	4606      	mov	r6, r0
 8000dd0:	079b      	lsls	r3, r3, #30
 8000dd2:	d505      	bpl.n	8000de0 <chSchDoPreemption+0x30>
#endif /* !(CH_CFG_TIME_QUANTUM > 0) */

  /* Swap operation as tail call.*/
  chSysSwitch(ntp, otp);
 8000dd4:	4631      	mov	r1, r6
 8000dd6:	4628      	mov	r0, r5
}
 8000dd8:	e8bd 4070 	ldmia.w	sp!, {r4, r5, r6, lr}
  chSysSwitch(ntp, otp);
 8000ddc:	f7ff bb12 	b.w	8000404 <__port_switch>
    oip->trace_buffer.ptr->type        = CH_TRACE_TYPE_SWITCH;
 8000de0:	f890 3024 	ldrb.w	r3, [r0, #36]	; 0x24
 8000de4:	6a81      	ldr	r1, [r0, #40]	; 0x28
 8000de6:	00db      	lsls	r3, r3, #3
 8000de8:	f8d4 208c 	ldr.w	r2, [r4, #140]	; 0x8c
 8000dec:	f043 0302 	orr.w	r3, r3, #2
    oip->trace_buffer.ptr->u.sw.wtobjp = otp->u.wtobjp;
 8000df0:	e9c2 5102 	strd	r5, r1, [r2, #8]
    oip->trace_buffer.ptr->type        = CH_TRACE_TYPE_SWITCH;
 8000df4:	7013      	strb	r3, [r2, #0]
    trace_next(oip);
 8000df6:	f7ff fb8b 	bl	8000510 <trace_next.constprop.0>
 8000dfa:	4631      	mov	r1, r6
 8000dfc:	4628      	mov	r0, r5
}
 8000dfe:	e8bd 4070 	ldmia.w	sp!, {r4, r5, r6, lr}
  chSysSwitch(ntp, otp);
 8000e02:	f7ff baff 	b.w	8000404 <__port_switch>
 8000e06:	bf00      	nop
 8000e08:	24000000 	.word	0x24000000
 8000e0c:	00000000 	.word	0x00000000

08000e10 <chThdExit>:
void chThdExit(msg_t msg) {
 8000e10:	b538      	push	{r3, r4, r5, lr}
  __ASM volatile ("MSR basepri, %0" : : "r" (basePri) : "memory");
 8000e12:	2330      	movs	r3, #48	; 0x30
 8000e14:	f383 8811 	msr	BASEPRI, r3
  return __sch_get_currthread();
 8000e18:	4b12      	ldr	r3, [pc, #72]	; (8000e64 <chThdExit+0x54>)
 8000e1a:	68dc      	ldr	r4, [r3, #12]
  while (unlikely(ch_list_notempty(&currtp->waiting))) {
 8000e1c:	f104 052c 	add.w	r5, r4, #44	; 0x2c
  return (bool)(lp->next != lp);
 8000e20:	6ae3      	ldr	r3, [r4, #44]	; 0x2c
  currtp->u.exitcode = msg;
 8000e22:	62a0      	str	r0, [r4, #40]	; 0x28
  while (unlikely(ch_list_notempty(&currtp->waiting))) {
 8000e24:	429d      	cmp	r5, r3
 8000e26:	d107      	bne.n	8000e38 <chThdExit+0x28>
  if (unlikely(currtp->refs == (trefs_t)0)) {
 8000e28:	f894 3026 	ldrb.w	r3, [r4, #38]	; 0x26
 8000e2c:	b183      	cbz	r3, 8000e50 <chThdExit+0x40>
  chSchGoSleepS(CH_STATE_FINAL);
 8000e2e:	200f      	movs	r0, #15
}
 8000e30:	e8bd 4038 	ldmia.w	sp!, {r3, r4, r5, lr}
  chSchGoSleepS(CH_STATE_FINAL);
 8000e34:	f7ff bcfc 	b.w	8000830 <chSchGoSleepS>
  lp->next = p->next;
 8000e38:	681a      	ldr	r2, [r3, #0]
  return __sch_ready_behind(tp);
 8000e3a:	4618      	mov	r0, r3
 8000e3c:	62e2      	str	r2, [r4, #44]	; 0x2c
 8000e3e:	f7ff fbff 	bl	8000640 <__sch_ready_behind.isra.0>
  return (bool)(lp->next != lp);
 8000e42:	6ae3      	ldr	r3, [r4, #44]	; 0x2c
  while (unlikely(ch_list_notempty(&currtp->waiting))) {
 8000e44:	42ab      	cmp	r3, r5
 8000e46:	d1f7      	bne.n	8000e38 <chThdExit+0x28>
  if (unlikely(currtp->refs == (trefs_t)0)) {
 8000e48:	f894 3026 	ldrb.w	r3, [r4, #38]	; 0x26
 8000e4c:	2b00      	cmp	r3, #0
 8000e4e:	d1ee      	bne.n	8000e2e <chThdExit+0x1e>
    if (unlikely(((currtp->flags & CH_FLAG_MODE_MASK) == CH_FLAG_MODE_STATIC))) {
 8000e50:	f894 3025 	ldrb.w	r3, [r4, #37]	; 0x25
 8000e54:	079b      	lsls	r3, r3, #30
 8000e56:	d1ea      	bne.n	8000e2e <chThdExit+0x1e>
  p->prev->next = p->next;
 8000e58:	e9d4 3204 	ldrd	r3, r2, [r4, #16]
 8000e5c:	6013      	str	r3, [r2, #0]
  p->next->prev = p->prev;
 8000e5e:	605a      	str	r2, [r3, #4]
  return p;
 8000e60:	e7e5      	b.n	8000e2e <chThdExit+0x1e>
 8000e62:	bf00      	nop
 8000e64:	24000000 	.word	0x24000000
	...

08000e70 <SVC_Handler>:
  __ASM volatile ("MRS %0, psp"  : "=r" (result) );
 8000e70:	f3ef 8309 	mrs	r3, PSP
    FPU->FPCCR &= ~FPU_FPCCR_LSPACT_Msk;
 8000e74:	4905      	ldr	r1, [pc, #20]	; (8000e8c <SVC_Handler+0x1c>)
    psp += sizeof (struct port_extctx);
 8000e76:	3368      	adds	r3, #104	; 0x68
    FPU->FPCCR &= ~FPU_FPCCR_LSPACT_Msk;
 8000e78:	6b4a      	ldr	r2, [r1, #52]	; 0x34
 8000e7a:	f022 0201 	bic.w	r2, r2, #1
 8000e7e:	634a      	str	r2, [r1, #52]	; 0x34
  __ASM volatile ("MSR psp, %0" : : "r" (topOfProcStack) : );
 8000e80:	f383 8809 	msr	PSP, r3
  __ASM volatile ("MSR basepri, %0" : : "r" (basePri) : "memory");
 8000e84:	2300      	movs	r3, #0
 8000e86:	f383 8811 	msr	BASEPRI, r3
}
 8000e8a:	4770      	bx	lr
 8000e8c:	e000ef00 	.word	0xe000ef00

08000e90 <main>:
}

__STATIC_INLINE void __rccResetAHB1(uint32_t mask) {

  /* Resetting the peripherals.*/
  RCC->AHB1RSTR |= mask;
 8000e90:	4bc7      	ldr	r3, [pc, #796]	; (80011b0 <main+0x320>)

__STATIC_INLINE void __rccResetAHB2(uint32_t mask) {

  /* Resetting the peripherals.*/
  RCC->AHB2RSTR |= mask;
  RCC->AHB2RSTR &= ~mask;
 8000e92:	2200      	movs	r2, #0
  RCC->AHB2RSTR |= mask;
 8000e94:	f04f 31ff 	mov.w	r1, #4294967295	; 0xffffffff
}

__STATIC_INLINE void __rccResetAHB3(uint32_t mask) {

  /* Resetting the peripherals.*/
  RCC->AHB3RSTR |= mask;
 8000e98:	4cc6      	ldr	r4, [pc, #792]	; (80011b4 <main+0x324>)
  RCC->AHB1RSTR |= mask;
 8000e9a:	f8d3 0080 	ldr.w	r0, [r3, #128]	; 0x80
 8000e9e:	f060 4000 	orn	r0, r0, #2147483648	; 0x80000000

/*===========================================================================*/
/* main()                                                                     */
/*===========================================================================*/

int main(void) {
 8000ea2:	b580      	push	{r7, lr}
 8000ea4:	f8c3 0080 	str.w	r0, [r3, #128]	; 0x80
 8000ea8:	b086      	sub	sp, #24
  RCC->AHB1RSTR &= ~mask;
 8000eaa:	f8d3 0080 	ldr.w	r0, [r3, #128]	; 0x80
 */
void chSysInit(void) {
  unsigned i;

  /* System object initialization.*/
  ch_system.state = ch_sys_initializing;
 8000eae:	4fc2      	ldr	r7, [pc, #776]	; (80011b8 <main+0x328>)
 8000eb0:	f000 4000 	and.w	r0, r0, #2147483648	; 0x80000000
 8000eb4:	f8c3 0080 	str.w	r0, [r3, #128]	; 0x80
  (void)RCC->AHB1RSTR;
 8000eb8:	f8d3 0080 	ldr.w	r0, [r3, #128]	; 0x80
  RCC->AHB2RSTR |= mask;
 8000ebc:	f8d3 0084 	ldr.w	r0, [r3, #132]	; 0x84
 8000ec0:	f8c3 1084 	str.w	r1, [r3, #132]	; 0x84
  RCC->AHB2RSTR &= ~mask;
 8000ec4:	f8d3 0084 	ldr.w	r0, [r3, #132]	; 0x84
 8000ec8:	f8c3 2084 	str.w	r2, [r3, #132]	; 0x84
  (void)RCC->AHB2RSTR;
 8000ecc:	f8d3 0084 	ldr.w	r0, [r3, #132]	; 0x84
  RCC->AHB3RSTR |= mask;
 8000ed0:	6fd8      	ldr	r0, [r3, #124]	; 0x7c
 8000ed2:	4320      	orrs	r0, r4
  RCC->AHB3RSTR &= ~mask;
 8000ed4:	4cb9      	ldr	r4, [pc, #740]	; (80011bc <main+0x32c>)
  RCC->AHB3RSTR |= mask;
 8000ed6:	67d8      	str	r0, [r3, #124]	; 0x7c
  RCC->AHB3RSTR &= ~mask;
 8000ed8:	6fd8      	ldr	r0, [r3, #124]	; 0x7c
 8000eda:	4020      	ands	r0, r4
}

__STATIC_INLINE void __rccResetAHB4(uint32_t mask) {

  /* Resetting the peripherals.*/
  RCC->AHB4RSTR |= mask;
 8000edc:	4cb8      	ldr	r4, [pc, #736]	; (80011c0 <main+0x330>)
  RCC->AHB3RSTR &= ~mask;
 8000ede:	67d8      	str	r0, [r3, #124]	; 0x7c
  (void)RCC->AHB3RSTR;
 8000ee0:	6fd8      	ldr	r0, [r3, #124]	; 0x7c
  RCC->AHB4RSTR |= mask;
 8000ee2:	f8d3 0088 	ldr.w	r0, [r3, #136]	; 0x88
 8000ee6:	4304      	orrs	r4, r0
#if defined(__CORE_CM0_H_GENERIC) || defined(__CORE_CM0PLUS_H_GENERIC) ||   \
    defined(__CORE_CM23_H_GENERIC)
  NVIC->__IPR[_IP_IDX(n)] = (NVIC->__IPR[_IP_IDX(n)] & ~(0xFFU << _BIT_SHIFT(n))) |
                            (NVIC_PRIORITY_MASK(prio) << _BIT_SHIFT(n));
#else
  NVIC->__IPR[n] = NVIC_PRIORITY_MASK(prio);
 8000ee8:	48b6      	ldr	r0, [pc, #728]	; (80011c4 <main+0x334>)
 8000eea:	f8c3 4088 	str.w	r4, [r3, #136]	; 0x88
  RCC->AHB4RSTR &= ~mask;
 8000eee:	f8d3 4088 	ldr.w	r4, [r3, #136]	; 0x88
 8000ef2:	f3c4 040a 	ubfx	r4, r4, #0, #11
 8000ef6:	f8c3 4088 	str.w	r4, [r3, #136]	; 0x88
 8000efa:	2490      	movs	r4, #144	; 0x90
  (void)RCC->AHB4RSTR;
 8000efc:	f8d3 5088 	ldr.w	r5, [r3, #136]	; 0x88
  RCC->APB1LRSTR |= mask;
 8000f00:	f8d3 5090 	ldr.w	r5, [r3, #144]	; 0x90
 8000f04:	f8c3 1090 	str.w	r1, [r3, #144]	; 0x90
  RCC->APB1LRSTR &= ~mask;
 8000f08:	f8d3 5090 	ldr.w	r5, [r3, #144]	; 0x90
 8000f0c:	f8c3 2090 	str.w	r2, [r3, #144]	; 0x90
  (void)RCC->APB1LRSTR;
 8000f10:	f8d3 5090 	ldr.w	r5, [r3, #144]	; 0x90
  RCC->APB1HRSTR |= mask;
 8000f14:	f8d3 5094 	ldr.w	r5, [r3, #148]	; 0x94
 8000f18:	f8c3 1094 	str.w	r1, [r3, #148]	; 0x94
  RCC->APB1HRSTR &= ~mask;
 8000f1c:	f8d3 5094 	ldr.w	r5, [r3, #148]	; 0x94
 8000f20:	f8c3 2094 	str.w	r2, [r3, #148]	; 0x94
  (void)RCC->APB1HRSTR;
 8000f24:	f8d3 5094 	ldr.w	r5, [r3, #148]	; 0x94
  RCC->APB2RSTR |= mask;
 8000f28:	f8d3 5098 	ldr.w	r5, [r3, #152]	; 0x98
 8000f2c:	f8c3 1098 	str.w	r1, [r3, #152]	; 0x98
  RCC->APB2RSTR &= ~mask;
 8000f30:	f8d3 5098 	ldr.w	r5, [r3, #152]	; 0x98
 8000f34:	f8c3 2098 	str.w	r2, [r3, #152]	; 0x98
  (void)RCC->APB2RSTR;
 8000f38:	f8d3 5098 	ldr.w	r5, [r3, #152]	; 0x98
  RCC->APB3RSTR |= mask;
 8000f3c:	f8d3 508c 	ldr.w	r5, [r3, #140]	; 0x8c
 8000f40:	f8c3 108c 	str.w	r1, [r3, #140]	; 0x8c
  RCC->APB3RSTR &= ~mask;
 8000f44:	f8d3 508c 	ldr.w	r5, [r3, #140]	; 0x8c
 8000f48:	f8c3 208c 	str.w	r2, [r3, #140]	; 0x8c
  (void)RCC->APB3RSTR;
 8000f4c:	f8d3 508c 	ldr.w	r5, [r3, #140]	; 0x8c
  RCC->APB4RSTR |= mask;
 8000f50:	f8d3 509c 	ldr.w	r5, [r3, #156]	; 0x9c
 8000f54:	f8c3 109c 	str.w	r1, [r3, #156]	; 0x9c
  RCC->APB4RSTR &= ~mask;
 8000f58:	f8d3 509c 	ldr.w	r5, [r3, #156]	; 0x9c
 8000f5c:	f8c3 209c 	str.w	r2, [r3, #156]	; 0x9c
  (void)RCC->APB4RSTR;
 8000f60:	f8d3 509c 	ldr.w	r5, [r3, #156]	; 0x9c
 8000f64:	f880 437a 	strb.w	r4, [r0, #890]	; 0x37a
#endif
  NVIC->__ICPR[n >> 5U] = 1U << (n & 0x1FU);
 8000f68:	f04f 6480 	mov.w	r4, #67108864	; 0x4000000
 8000f6c:	f8c0 418c 	str.w	r4, [r0, #396]	; 0x18c
  NVIC->__ISER[n >> 5U] = 1U << (n & 0x1FU);
 8000f70:	60c4      	str	r4, [r0, #12]
  NVIC->__IPR[n] = NVIC_PRIORITY_MASK(prio);
 8000f72:	2470      	movs	r4, #112	; 0x70
 8000f74:	f880 431c 	strb.w	r4, [r0, #796]	; 0x31c
  NVIC->__ICPR[n >> 5U] = 1U << (n & 0x1FU);
 8000f78:	f04f 5480 	mov.w	r4, #268435456	; 0x10000000
 8000f7c:	f8c0 4180 	str.w	r4, [r0, #384]	; 0x180
  NVIC->__ISER[n >> 5U] = 1U << (n & 0x1FU);
 8000f80:	6004      	str	r4, [r0, #0]
 */
__STATIC_INLINE void rccEnableAPB1L(uint32_t mask, bool lp) {

#if STM32_TARGET_CORE == 1
  /* Allocating and enabling the peripherals.*/
  RCC_C1->APB1LENR |= mask;
 8000f82:	f8d3 00e8 	ldr.w	r0, [r3, #232]	; 0xe8
  ST_ENABLE_STOP();
 8000f86:	4c90      	ldr	r4, [pc, #576]	; (80011c8 <main+0x338>)
 8000f88:	f040 0001 	orr.w	r0, r0, #1
 8000f8c:	f8c3 00e8 	str.w	r0, [r3, #232]	; 0xe8
  if (lp) {
    RCC_C1->APB1LLPENR |= mask;
 8000f90:	f8d3 0110 	ldr.w	r0, [r3, #272]	; 0x110
 8000f94:	f040 0001 	orr.w	r0, r0, #1
 8000f98:	f8c3 0110 	str.w	r0, [r3, #272]	; 0x110
  }
  else {
    RCC_C1->APB1LLPENR &= ~mask;
  }
  (void)RCC_C1->APB1LLPENR;
 8000f9c:	f8d3 3110 	ldr.w	r3, [r3, #272]	; 0x110
  STM32_ST_TIM->PSC    = (ST_CLOCK_SRC / OSAL_ST_FREQUENCY) - 1;
 8000fa0:	f04f 4380 	mov.w	r3, #1073741824	; 0x40000000
  ST_ENABLE_STOP();
 8000fa4:	6be0      	ldr	r0, [r4, #60]	; 0x3c
 8000fa6:	f040 0001 	orr.w	r0, r0, #1
 8000faa:	63e0      	str	r0, [r4, #60]	; 0x3c
  STM32_ST_TIM->PSC    = (ST_CLOCK_SRC / OSAL_ST_FREQUENCY) - 1;
 8000fac:	f644 641f 	movw	r4, #19999	; 0x4e1f
  STM32_ST_TIM->EGR    = TIM_EGR_UG;
 8000fb0:	2001      	movs	r0, #1
  STM32_ST_TIM->PSC    = (ST_CLOCK_SRC / OSAL_ST_FREQUENCY) - 1;
 8000fb2:	629c      	str	r4, [r3, #40]	; 0x28
}
 8000fb4:	2404      	movs	r4, #4
  STM32_ST_TIM->ARR    = ST_ARR_INIT;
 8000fb6:	62d9      	str	r1, [r3, #44]	; 0x2c
  STM32_ST_TIM->CCMR1  = 0;
 8000fb8:	619a      	str	r2, [r3, #24]
  STM32_ST_TIM->CCR[0] = 0;
 8000fba:	635a      	str	r2, [r3, #52]	; 0x34
  STM32_ST_TIM->DIER   = 0;
 8000fbc:	60da      	str	r2, [r3, #12]
  STM32_ST_TIM->CR2    = 0;
 8000fbe:	605a      	str	r2, [r3, #4]
  STM32_ST_TIM->EGR    = TIM_EGR_UG;
 8000fc0:	6158      	str	r0, [r3, #20]
  STM32_ST_TIM->CR1    = TIM_CR1_CEN;
 8000fc2:	6018      	str	r0, [r3, #0]
  for (i = 0U; i < (unsigned)PORT_CORES_NUMBER; i++) {
    ch_system.instances[i] = NULL;
 8000fc4:	607a      	str	r2, [r7, #4]
  ch_system.state = ch_sys_initializing;
 8000fc6:	7038      	strb	r0, [r7, #0]
  time_measurement_t tm;

  /* Time Measurement subsystem calibration, it does a null measurement
     and calculates the call overhead which is subtracted to real
     measurements.*/
  tcp->offset = (rtcnt_t)0;
 8000fc8:	60ba      	str	r2, [r7, #8]
  tmp->best       = (rtcnt_t)-1;
 8000fca:	9100      	str	r1, [sp, #0]
  tmp->n          = (ucnt_t)0;
 8000fcc:	9203      	str	r2, [sp, #12]
  tmp->cumulative = (rttime_t)0;
 8000fce:	ed9f 7b76 	vldr	d7, [pc, #472]	; 80011a8 <main+0x318>
  tmp->last       = (rtcnt_t)0;
 8000fd2:	e9cd 2201 	strd	r2, r2, [sp, #4]
  tmp->cumulative = (rttime_t)0;
 8000fd6:	ed8d 7b04 	vstr	d7, [sp, #16]
  chTMObjectInit(&tm);
  i = TM_CALIBRATION_LOOP;
  do {
    chTMStartMeasurementX(&tm);
 8000fda:	4668      	mov	r0, sp
 8000fdc:	f7ff fa38 	bl	8000450 <chTMStartMeasurementX>
    chTMStopMeasurementX(&tm);
 8000fe0:	f7ff fa3e 	bl	8000460 <chTMStopMeasurementX>
    i--;
  } while (i > 0U);
 8000fe4:	3c01      	subs	r4, #1
 8000fe6:	d1f8      	bne.n	8000fda <main+0x14a>
  tcp->offset = tm.best;
 8000fe8:	9a00      	ldr	r2, [sp, #0]
 8000fea:	2630      	movs	r6, #48	; 0x30
  ch_memcore.basemem = __heap_base__;
 8000fec:	4b77      	ldr	r3, [pc, #476]	; (80011cc <main+0x33c>)
 8000fee:	60ba      	str	r2, [r7, #8]
 8000ff0:	4a77      	ldr	r2, [pc, #476]	; (80011d0 <main+0x340>)
  core_id = port_get_core_id();
#else
  core_id = 0U;
#endif
  chDbgAssert(ch_system.instances[core_id] == NULL, "instance already registered");
  ch_system.instances[core_id] = oip;
 8000ff2:	4d78      	ldr	r5, [pc, #480]	; (80011d4 <main+0x344>)
 8000ff4:	601a      	str	r2, [r3, #0]
  ch_memcore.topmem  = __heap_end__;
 8000ff6:	4a78      	ldr	r2, [pc, #480]	; (80011d8 <main+0x348>)
 8000ff8:	607d      	str	r5, [r7, #4]
 8000ffa:	605a      	str	r2, [r3, #4]
 *
 * @notapi
 */
void __heap_init(void) {

  default_heap.provider = chCoreAllocAlignedWithOffset;
 8000ffc:	4b77      	ldr	r3, [pc, #476]	; (80011dc <main+0x34c>)
 8000ffe:	4a78      	ldr	r2, [pc, #480]	; (80011e0 <main+0x350>)
void chMtxObjectInit(mutex_t *mp) {

  chDbgCheck(mp != NULL);

  ch_queue_init(&mp->queue);
  mp->owner = NULL;
 8001000:	615c      	str	r4, [r3, #20]
 8001002:	601a      	str	r2, [r3, #0]
  qp->next = qp;
 8001004:	f103 020c 	add.w	r2, r3, #12

  /* Core associated to this instance.*/
  oip->core_id = core_id;
 8001008:	632c      	str	r4, [r5, #48]	; 0x30
  H_NEXT(&default_heap.header) = NULL;
  H_PAGES(&default_heap.header) = 0;
 800100a:	e9c3 4401 	strd	r4, r4, [r3, #4]
  qp->prev = qp;
 800100e:	e9c3 2203 	strd	r2, r2, [r3, #12]
  qp->next = qp;
 8001012:	4b74      	ldr	r3, [pc, #464]	; (80011e4 <main+0x354>)
  } while ((c != (char)0) && (i > 0U));
}

static inline void dyn_list_init(dyn_list_t *dlp) {

  dlp->next = (dyn_element_t *)dlp;
 8001014:	f103 0210 	add.w	r2, r3, #16
 8001018:	609c      	str	r4, [r3, #8]
  chDbgCheck((mp != NULL) &&
             (size >= sizeof(void *)) &&
             (align >= PORT_NATURAL_ALIGN) &&
             MEM_IS_VALID_ALIGNMENT(align));

  mp->next = NULL;
 800101a:	615c      	str	r4, [r3, #20]
 800101c:	611a      	str	r2, [r3, #16]
  mp->object_size = size;
 800101e:	2214      	movs	r2, #20
  mp->next = NULL;
 8001020:	62dc      	str	r4, [r3, #44]	; 0x2c
  mp->object_size = size;
 8001022:	619a      	str	r2, [r3, #24]
  mp->align = align;
 8001024:	2204      	movs	r2, #4
 8001026:	61da      	str	r2, [r3, #28]
 8001028:	635a      	str	r2, [r3, #52]	; 0x34
 800102a:	f103 023c 	add.w	r2, r3, #60	; 0x3c
 800102e:	63da      	str	r2, [r3, #60]	; 0x3c
 8001030:	f103 0240 	add.w	r2, r3, #64	; 0x40
 8001034:	641a      	str	r2, [r3, #64]	; 0x40
 8001036:	f103 0244 	add.w	r2, r3, #68	; 0x44
 800103a:	645a      	str	r2, [r3, #68]	; 0x44
  mp->provider = provider;
 800103c:	4a6a      	ldr	r2, [pc, #424]	; (80011e8 <main+0x358>)
 800103e:	621a      	str	r2, [r3, #32]
 8001040:	639a      	str	r2, [r3, #56]	; 0x38
 8001042:	f103 0224 	add.w	r2, r3, #36	; 0x24
 8001046:	625a      	str	r2, [r3, #36]	; 0x24
 8001048:	f103 0228 	add.w	r2, r3, #40	; 0x28
 800104c:	629a      	str	r2, [r3, #40]	; 0x28
  mp->object_size = size;
 800104e:	221c      	movs	r2, #28
  qp->prev = qp;
 8001050:	e9c3 3300 	strd	r3, r3, [r3]
 8001054:	631a      	str	r2, [r3, #48]	; 0x30

  /* Keeping a reference to the configuration data.*/
  oip->config = oicp;
 8001056:	4b65      	ldr	r3, [pc, #404]	; (80011ec <main+0x35c>)
 8001058:	63ab      	str	r3, [r5, #56]	; 0x38
 800105a:	f386 8811 	msr	BASEPRI, r6
  __ASM volatile ("cpsie i" : : : "memory");
 800105e:	b662      	cpsie	i
  reg_value  =  SCB->AIRCR;                                                   /* read old register configuration    */
 8001060:	4b63      	ldr	r3, [pc, #396]	; (80011f0 <main+0x360>)
  reg_value &= ~((uint32_t)(SCB_AIRCR_VECTKEY_Msk | SCB_AIRCR_PRIGROUP_Msk)); /* clear bits to change               */
 8001062:	f64f 0cff 	movw	ip, #63743	; 0xf8ff
 *
 * @notapi
 */
static inline void __rfcu_object_init(rfcu_t *rfcup) {

  rfcup->mask = (rfcu_mask_t)0;
 8001066:	636c      	str	r4, [r5, #52]	; 0x34

  ch_dlist_init(&vtlp->dlist);
#if CH_CFG_ST_TIMEDELTA == 0
  vtlp->systime = (systime_t)0;
#else /* CH_CFG_ST_TIMEDELTA > 0 */
  vtlp->lasttime = (systime_t)0;
 8001068:	61ec      	str	r4, [r5, #28]
  reg_value  =  (reg_value                                   |
 800106a:	4962      	ldr	r1, [pc, #392]	; (80011f4 <main+0x364>)
  DWT->LAR = 0xC5ACCE55U;
 800106c:	4a62      	ldr	r2, [pc, #392]	; (80011f8 <main+0x368>)
  pqp->prio = (tprio_t)0;
 800106e:	e9c5 5401 	strd	r5, r4, [r5, #4]
  reg_value  =  SCB->AIRCR;                                                   /* read old register configuration    */
 8001072:	68d8      	ldr	r0, [r3, #12]
  reg_value &= ~((uint32_t)(SCB_AIRCR_VECTKEY_Msk | SCB_AIRCR_PRIGROUP_Msk)); /* clear bits to change               */
 8001074:	ea00 000c 	and.w	r0, r0, ip
  reg_value  =  (reg_value                                   |
 8001078:	4301      	orrs	r1, r0
  SCB->AIRCR =  reg_value;
 800107a:	60d9      	str	r1, [r3, #12]
  CoreDebug->DEMCR |= CoreDebug_DEMCR_TRCENA_Msk;
 800107c:	f8d3 10fc 	ldr.w	r1, [r3, #252]	; 0xfc
 8001080:	f041 7180 	orr.w	r1, r1, #16777216	; 0x1000000
 8001084:	f8c3 10fc 	str.w	r1, [r3, #252]	; 0xfc
  DWT->LAR = 0xC5ACCE55U;
 8001088:	495c      	ldr	r1, [pc, #368]	; (80011fc <main+0x36c>)
 800108a:	f8c2 1fb0 	str.w	r1, [r2, #4016]	; 0xfb0
  DWT->CTRL |= DWT_CTRL_CYCCNTENA_Msk;
 800108e:	6811      	ldr	r1, [r2, #0]
 8001090:	f041 0101 	orr.w	r1, r1, #1
 8001094:	6011      	str	r1, [r2, #0]
    SCB->SHPR[(((uint32_t)IRQn) & 0xFUL)-4UL] = (uint8_t)((priority << (8U - __NVIC_PRIO_BITS)) & (uint32_t)0xFFUL);
 8001096:	2220      	movs	r2, #32
 8001098:	77da      	strb	r2, [r3, #31]
 800109a:	f883 6022 	strb.w	r6, [r3, #34]	; 0x22
  dlhp->next  = dlhp;
 800109e:	f105 0310 	add.w	r3, r5, #16
  pqp->next = pqp;
 80010a2:	602d      	str	r5, [r5, #0]
  dlhp->prev  = dlhp;
 80010a4:	e9c5 3304 	strd	r3, r3, [r5, #16]
  dlhp->delta = (sysinterval_t)-1;
 80010a8:	f04f 33ff 	mov.w	r3, #4294967295	; 0xffffffff
 80010ac:	61ab      	str	r3, [r5, #24]
 80010ae:	f04f 4380 	mov.w	r3, #1073741824	; 0x40000000
 80010b2:	6a59      	ldr	r1, [r3, #36]	; 0x24
  tbp->suspended = (uint16_t)~CH_DBG_TRACE_MASK;
 80010b4:	4b52      	ldr	r3, [pc, #328]	; (8001200 <main+0x370>)
#endif /* CH_CFG_ST_TIMEDELTA > 0 */
#if CH_CFG_USE_TIMESTAMP == TRUE
  vtlp->laststamp = (systimestamp_t)chVTGetSystemTimeX();
 80010b6:	460a      	mov	r2, r1
 80010b8:	f8c5 3088 	str.w	r3, [r5, #136]	; 0x88
  tbp->ptr       = &tbp->buffer[0];
 80010bc:	f105 0390 	add.w	r3, r5, #144	; 0x90
 80010c0:	f8c5 308c 	str.w	r3, [r5, #140]	; 0x8c
 80010c4:	4623      	mov	r3, r4
 80010c6:	e9c5 2308 	strd	r2, r3, [r5, #32]
 *
 * @notapi
 */
static inline void __dbg_object_init(system_debug_t *sdp) {

  sdp->panic_msg = NULL;
 80010ca:	f8c5 4084 	str.w	r4, [r5, #132]	; 0x84
    tbp->buffer[i].type = CH_TRACE_TYPE_UNUSED;
 80010ce:	eb05 1304 	add.w	r3, r5, r4, lsl #4
  for (i = 0U; i < (unsigned)CH_DBG_TRACE_BUFFER_SIZE; i++) {
 80010d2:	3401      	adds	r4, #1
    tbp->buffer[i].type = CH_TRACE_TYPE_UNUSED;
 80010d4:	f893 2090 	ldrb.w	r2, [r3, #144]	; 0x90
  for (i = 0U; i < (unsigned)CH_DBG_TRACE_BUFFER_SIZE; i++) {
 80010d8:	2c80      	cmp	r4, #128	; 0x80
    tbp->buffer[i].type = CH_TRACE_TYPE_UNUSED;
 80010da:	f36f 0202 	bfc	r2, #0, #3
 80010de:	f883 2090 	strb.w	r2, [r3, #144]	; 0x90
  for (i = 0U; i < (unsigned)CH_DBG_TRACE_BUFFER_SIZE; i++) {
 80010e2:	d1f4      	bne.n	80010ce <main+0x23e>
  p->prev       = qp->prev;
 80010e4:	4b47      	ldr	r3, [pc, #284]	; (8001204 <main+0x374>)
#if (CH_DBG_ENABLE_STACK_CHECK == TRUE) || (CH_CFG_USE_DYNAMIC == TRUE)
  oip->rlist.current->wabase = oicp->mainthread_base;
#endif

  /* Setting up the caller as current thread.*/
  oip->rlist.current->state = CH_STATE_CURRENT;
 80010e6:	2201      	movs	r2, #1
  tp->wabase = tdp->wbase;
 80010e8:	4847      	ldr	r0, [pc, #284]	; (8001208 <main+0x378>)
  tp->mtxlist           = NULL;
 80010ea:	2600      	movs	r6, #0
  lp->next = lp;
 80010ec:	f103 0140 	add.w	r1, r3, #64	; 0x40
 80010f0:	f8a5 2060 	strh.w	r2, [r5, #96]	; 0x60
  tp->hdr.pqueue.prio   = prio;
 80010f4:	f8c0 21c0 	str.w	r2, [r0, #448]	; 0x1c0
  tp->realprio          = prio;
 80010f8:	f8c0 21f8 	str.w	r2, [r0, #504]	; 0x1f8
  tp->refs              = (trefs_t)1;
 80010fc:	f880 21de 	strb.w	r2, [r0, #478]	; 0x1de
 8001100:	f885 2062 	strb.w	r2, [r5, #98]	; 0x62
  p->prev->next = p;
 8001104:	f103 0224 	add.w	r2, r3, #36	; 0x24
  lp->next = lp;
 8001108:	66a9      	str	r1, [r5, #104]	; 0x68
  tp->name              = name;
 800110a:	4940      	ldr	r1, [pc, #256]	; (800120c <main+0x37c>)
  p->next       = qp;
 800110c:	f8c0 31c8 	str.w	r3, [r0, #456]	; 0x1c8
  p->prev       = qp->prev;
 8001110:	f8c0 21cc 	str.w	r2, [r0, #460]	; 0x1cc
 8001114:	652b      	str	r3, [r5, #80]	; 0x50
  p->prev->next = p;
 8001116:	62aa      	str	r2, [r5, #40]	; 0x28
  qp->next = qp;
 8001118:	f103 0244 	add.w	r2, r3, #68	; 0x44
 800111c:	65a9      	str	r1, [r5, #88]	; 0x58
  oip->rlist.current = __thd_object_init(oip, &oip->mainthread,
 800111e:	3314      	adds	r3, #20
  PORT_SETUP_CONTEXT(tp, tdp->wbase, tp, tdp->funcp, tdp->arg);
 8001120:	493b      	ldr	r1, [pc, #236]	; (8001210 <main+0x380>)
 8001122:	60eb      	str	r3, [r5, #12]
 8001124:	f500 73aa 	add.w	r3, r0, #340	; 0x154
 8001128:	f8c0 1194 	str.w	r1, [r0, #404]	; 0x194
 800112c:	4939      	ldr	r1, [pc, #228]	; (8001214 <main+0x384>)
 800112e:	f8c0 31c4 	str.w	r3, [r0, #452]	; 0x1c4
  lp->next = lp;
 8001132:	f500 73f2 	add.w	r3, r0, #484	; 0x1e4
 8001136:	f8c0 11b4 	str.w	r1, [r0, #436]	; 0x1b4
  tp->hdr.pqueue.prio   = prio;
 800113a:	646c      	str	r4, [r5, #68]	; 0x44
  tp->name              = name;
 800113c:	4936      	ldr	r1, [pc, #216]	; (8001218 <main+0x388>)
  PORT_SETUP_CONTEXT(tp, tdp->wbase, tp, tdp->funcp, tdp->arg);
 800113e:	f8c0 6198 	str.w	r6, [r0, #408]	; 0x198
  tp->owner             = oip;
 8001142:	f8c0 51d0 	str.w	r5, [r0, #464]	; 0x1d0
  tp->name              = name;
 8001146:	f8c0 11d4 	str.w	r1, [r0, #468]	; 0x1d4
  tp->owner             = oip;
 800114a:	656d      	str	r5, [r5, #84]	; 0x54
  tp->epending          = (eventmask_t)0;
 800114c:	676e      	str	r6, [r5, #116]	; 0x74
  oip->rlist.current->wabase = oicp->mainthread_base;
 800114e:	65ee      	str	r6, [r5, #92]	; 0x5c
  tp->wabase = tdp->wbase;
 8001150:	f8c0 01d8 	str.w	r0, [r0, #472]	; 0x1d8
  qp->prev = qp;
 8001154:	e9c5 221b 	strd	r2, r2, [r5, #108]	; 0x6c
  p->prev->next = p;
 8001158:	f500 72e4 	add.w	r2, r0, #456	; 0x1c8
  tp->mtxlist           = NULL;
 800115c:	e9c5 641e 	strd	r6, r4, [r5, #120]	; 0x78
 8001160:	64ea      	str	r2, [r5, #76]	; 0x4c
  tp->state             = CH_STATE_WTSTART;
 8001162:	2402      	movs	r4, #2
  qp->prev      = p;
 8001164:	62ea      	str	r2, [r5, #44]	; 0x2c
  qp->next = qp;
 8001166:	f500 72f4 	add.w	r2, r0, #488	; 0x1e8
 800116a:	f8a0 41dc 	strh.w	r4, [r0, #476]	; 0x1dc
  tp->epending          = (eventmask_t)0;
 800116e:	e9c0 667c 	strd	r6, r6, [r0, #496]	; 0x1f0
 8001172:	e9c0 3279 	strd	r3, r2, [r0, #484]	; 0x1e4
  qp->prev = qp;
 8001176:	f8c0 21ec 	str.w	r2, [r0, #492]	; 0x1ec
 800117a:	f500 70dc 	add.w	r0, r0, #440	; 0x1b8
 800117e:	f7ff fa5f 	bl	8000640 <__sch_ready_behind.isra.0>

  /* Initializing default OS instance.*/
  chInstanceObjectInit(&ch0, &ch_core0_cfg);

  /* It is alive now.*/
  ch_system.state = ch_sys_running;
 8001182:	703c      	strb	r4, [r7, #0]
  __ASM volatile ("MSR basepri, %0" : : "r" (basePri) : "memory");
 8001184:	f386 8811 	msr	BASEPRI, r6
     *   Higher number = higher priority = preempts lower number threads
     *
     * Sensor read runs at higher priority than control to ensure
     * fresh data is always available when the control loop runs.
     */
    chThdCreateStatic(waSensorRead,    sizeof(waSensorRead),
 8001188:	4a24      	ldr	r2, [pc, #144]	; (800121c <main+0x38c>)
 800118a:	2194      	movs	r1, #148	; 0x94
 800118c:	4824      	ldr	r0, [pc, #144]	; (8001220 <main+0x390>)
 800118e:	2430      	movs	r4, #48	; 0x30
 8001190:	f7ff fbee 	bl	8000970 <chThdCreateStatic.constprop.0.isra.0>
                      NORMALPRIO + 20, SensorReadThread,    NULL);

    chThdCreateStatic(waFlightControl, sizeof(waFlightControl),
 8001194:	4a23      	ldr	r2, [pc, #140]	; (8001224 <main+0x394>)
 8001196:	218a      	movs	r1, #138	; 0x8a
 8001198:	4823      	ldr	r0, [pc, #140]	; (8001228 <main+0x398>)
 800119a:	4f24      	ldr	r7, [pc, #144]	; (800122c <main+0x39c>)
 800119c:	f7ff fbe8 	bl	8000970 <chThdCreateStatic.constprop.0.isra.0>
 80011a0:	e046      	b.n	8001230 <main+0x3a0>
 80011a2:	bf00      	nop
 80011a4:	f3af 8000 	nop.w
	...
 80011b0:	58024400 	.word	0x58024400
 80011b4:	7fffefff 	.word	0x7fffefff
 80011b8:	24000ae0 	.word	0x24000ae0
 80011bc:	80001000 	.word	0x80001000
 80011c0:	fffff800 	.word	0xfffff800
 80011c4:	e000e100 	.word	0xe000e100
 80011c8:	5c001000 	.word	0x5c001000
 80011cc:	24000ad8 	.word	0x24000ad8
 80011d0:	24001e88 	.word	0x24001e88
 80011d4:	24000000 	.word	0x24000000
 80011d8:	24080000 	.word	0x24080000
 80011dc:	24000aec 	.word	0x24000aec
 80011e0:	080004b1 	.word	0x080004b1
 80011e4:	24000a90 	.word	0x24000a90
 80011e8:	080004f1 	.word	0x080004f1
 80011ec:	08001338 	.word	0x08001338
 80011f0:	e000ed00 	.word	0xe000ed00
 80011f4:	05fa0300 	.word	0x05fa0300
 80011f8:	e0001000 	.word	0xe0001000
 80011fc:	c5acce55 	.word	0xc5acce55
 8001200:	0080ffff 	.word	0x0080ffff
 8001204:	24000028 	.word	0x24000028
 8001208:	24000890 	.word	0x24000890
 800120c:	0800134c 	.word	0x0800134c
 8001210:	08000441 	.word	0x08000441
 8001214:	0800041d 	.word	0x0800041d
 8001218:	08001320 	.word	0x08001320
 800121c:	08000921 	.word	0x08000921
 8001220:	240014c8 	.word	0x240014c8
 8001224:	080008d1 	.word	0x080008d1
 8001228:	24000b08 	.word	0x24000b08
 800122c:	08000691 	.word	0x08000691
 8001230:	f384 8811 	msr	BASEPRI, r4
  vtp->par     = par;
 8001234:	68eb      	ldr	r3, [r5, #12]
  vt_enqueue(vtlp, vtp, delay);
 8001236:	f242 7110 	movw	r1, #10000	; 0x2710
 800123a:	4668      	mov	r0, sp
  vtp->reload  = (sysinterval_t)0;
 800123c:	9605      	str	r6, [sp, #20]
  vtp->par     = par;
 800123e:	e9cd 7303 	strd	r7, r3, [sp, #12]
  vt_enqueue(vtlp, vtp, delay);
 8001242:	f7ff faa5 	bl	8000790 <vt_enqueue.constprop.0>
    chSchGoSleepS(newstate);
 8001246:	2008      	movs	r0, #8
 8001248:	f7ff faf2 	bl	8000830 <chSchGoSleepS>
    if (chVTIsArmedI(&vt)) {
 800124c:	9b00      	ldr	r3, [sp, #0]
      chVTDoResetI(&vt);
 800124e:	4668      	mov	r0, sp
    if (chVTIsArmedI(&vt)) {
 8001250:	b10b      	cbz	r3, 8001256 <main+0x3c6>
      chVTDoResetI(&vt);
 8001252:	f7ff f97d 	bl	8000550 <chVTDoResetI>
 8001256:	f386 8811 	msr	BASEPRI, r6
}
 800125a:	e7e9      	b.n	8001230 <main+0x3a0>

0800125c <memset>:
 800125c:	0783      	lsls	r3, r0, #30
 800125e:	b530      	push	{r4, r5, lr}
 8001260:	d048      	beq.n	80012f4 <memset+0x98>
 8001262:	1e54      	subs	r4, r2, #1
 8001264:	2a00      	cmp	r2, #0
 8001266:	d03f      	beq.n	80012e8 <memset+0x8c>
 8001268:	b2ca      	uxtb	r2, r1
 800126a:	4603      	mov	r3, r0
 800126c:	e001      	b.n	8001272 <memset+0x16>
 800126e:	3c01      	subs	r4, #1
 8001270:	d33a      	bcc.n	80012e8 <memset+0x8c>
 8001272:	f803 2b01 	strb.w	r2, [r3], #1
 8001276:	079d      	lsls	r5, r3, #30
 8001278:	d1f9      	bne.n	800126e <memset+0x12>
 800127a:	2c03      	cmp	r4, #3
 800127c:	d92d      	bls.n	80012da <memset+0x7e>
 800127e:	b2cd      	uxtb	r5, r1
 8001280:	ea45 2505 	orr.w	r5, r5, r5, lsl #8
 8001284:	2c0f      	cmp	r4, #15
 8001286:	ea45 4505 	orr.w	r5, r5, r5, lsl #16
 800128a:	d936      	bls.n	80012fa <memset+0x9e>
 800128c:	f1a4 0210 	sub.w	r2, r4, #16
 8001290:	f022 0c0f 	bic.w	ip, r2, #15
 8001294:	f103 0e20 	add.w	lr, r3, #32
 8001298:	44e6      	add	lr, ip
 800129a:	ea4f 1c12 	mov.w	ip, r2, lsr #4
 800129e:	f103 0210 	add.w	r2, r3, #16
 80012a2:	e942 5504 	strd	r5, r5, [r2, #-16]
 80012a6:	e942 5502 	strd	r5, r5, [r2, #-8]
 80012aa:	3210      	adds	r2, #16
 80012ac:	4572      	cmp	r2, lr
 80012ae:	d1f8      	bne.n	80012a2 <memset+0x46>
 80012b0:	f10c 0201 	add.w	r2, ip, #1
 80012b4:	f014 0f0c 	tst.w	r4, #12
 80012b8:	eb03 1202 	add.w	r2, r3, r2, lsl #4
 80012bc:	f004 0c0f 	and.w	ip, r4, #15
 80012c0:	d013      	beq.n	80012ea <memset+0x8e>
 80012c2:	f1ac 0304 	sub.w	r3, ip, #4
 80012c6:	f023 0303 	bic.w	r3, r3, #3
 80012ca:	3304      	adds	r3, #4
 80012cc:	4413      	add	r3, r2
 80012ce:	f842 5b04 	str.w	r5, [r2], #4
 80012d2:	4293      	cmp	r3, r2
 80012d4:	d1fb      	bne.n	80012ce <memset+0x72>
 80012d6:	f00c 0403 	and.w	r4, ip, #3
 80012da:	b12c      	cbz	r4, 80012e8 <memset+0x8c>
 80012dc:	b2ca      	uxtb	r2, r1
 80012de:	441c      	add	r4, r3
 80012e0:	f803 2b01 	strb.w	r2, [r3], #1
 80012e4:	429c      	cmp	r4, r3
 80012e6:	d1fb      	bne.n	80012e0 <memset+0x84>
 80012e8:	bd30      	pop	{r4, r5, pc}
 80012ea:	4664      	mov	r4, ip
 80012ec:	4613      	mov	r3, r2
 80012ee:	2c00      	cmp	r4, #0
 80012f0:	d1f4      	bne.n	80012dc <memset+0x80>
 80012f2:	e7f9      	b.n	80012e8 <memset+0x8c>
 80012f4:	4603      	mov	r3, r0
 80012f6:	4614      	mov	r4, r2
 80012f8:	e7bf      	b.n	800127a <memset+0x1e>
 80012fa:	461a      	mov	r2, r3
 80012fc:	46a4      	mov	ip, r4
 80012fe:	e7e0      	b.n	80012c2 <memset+0x66>
